
JD_node_1_401.elf:     file format elf32-littlearm

Sections:
Idx Name          Size      VMA       LMA       File off  Algn
  0 .isr_vector   00000194  08004000  08004000  00004000  2**0
                  CONTENTS, ALLOC, LOAD, READONLY, DATA
  1 .text         00004688  08004194  08004194  00004194  2**2
                  CONTENTS, ALLOC, LOAD, READONLY, CODE
  2 .rodata       00000030  0800881c  0800881c  0000881c  2**2
                  CONTENTS, ALLOC, LOAD, READONLY, DATA
  3 .ARM.extab    00000000  0800884c  0800884c  0001000c  2**0
                  CONTENTS
  4 .ARM          00000008  0800884c  0800884c  0000884c  2**2
                  CONTENTS, ALLOC, LOAD, READONLY, DATA
  5 .preinit_array 00000000  08008854  08008854  0001000c  2**0
                  CONTENTS, ALLOC, LOAD, DATA
  6 .init_array   00000004  08008854  08008854  00008854  2**2
                  CONTENTS, ALLOC, LOAD, DATA
  7 .fini_array   00000004  08008858  08008858  00008858  2**2
                  CONTENTS, ALLOC, LOAD, DATA
  8 .data         0000000c  20000000  0800885c  00010000  2**2
                  CONTENTS, ALLOC, LOAD, DATA
  9 .bss          00000224  2000000c  08008868  0001000c  2**2
                  ALLOC
 10 ._user_heap_stack 00000600  20000230  08008868  00010230  2**0
                  ALLOC
 11 .ARM.attributes 00000030  00000000  00000000  0001000c  2**0
                  CONTENTS, READONLY
 12 .debug_info   00008d01  00000000  00000000  0001003c  2**0
                  CONTENTS, READONLY, DEBUGGING, OCTETS
 13 .debug_abbrev 00001cc1  00000000  00000000  00018d3d  2**0
                  CONTENTS, READONLY, DEBUGGING, OCTETS
 14 .debug_aranges 00000ae0  00000000  00000000  0001aa00  2**3
                  CONTENTS, READONLY, DEBUGGING, OCTETS
 15 .debug_ranges 00000a08  00000000  00000000  0001b4e0  2**3
                  CONTENTS, READONLY, DEBUGGING, OCTETS
 16 .debug_macro  0001785c  00000000  00000000  0001bee8  2**0
                  CONTENTS, READONLY, DEBUGGING, OCTETS
 17 .debug_line   0000994c  00000000  00000000  00033744  2**0
                  CONTENTS, READONLY, DEBUGGING, OCTETS
 18 .debug_str    0008f1c0  00000000  00000000  0003d090  2**0
                  CONTENTS, READONLY, DEBUGGING, OCTETS
 19 .comment      00000053  00000000  00000000  000cc250  2**0
                  CONTENTS, READONLY
 20 .debug_frame  00002cd4  00000000  00000000  000cc2a4  2**2
                  CONTENTS, READONLY, DEBUGGING, OCTETS

Disassembly of section .text:

08004194 <__do_global_dtors_aux>:
 8004194:	b510      	push	{r4, lr}
 8004196:	4c05      	ldr	r4, [pc, #20]	; (80041ac <__do_global_dtors_aux+0x18>)
 8004198:	7823      	ldrb	r3, [r4, #0]
 800419a:	b933      	cbnz	r3, 80041aa <__do_global_dtors_aux+0x16>
 800419c:	4b04      	ldr	r3, [pc, #16]	; (80041b0 <__do_global_dtors_aux+0x1c>)
 800419e:	b113      	cbz	r3, 80041a6 <__do_global_dtors_aux+0x12>
 80041a0:	4804      	ldr	r0, [pc, #16]	; (80041b4 <__do_global_dtors_aux+0x20>)
 80041a2:	f3af 8000 	nop.w
 80041a6:	2301      	movs	r3, #1
 80041a8:	7023      	strb	r3, [r4, #0]
 80041aa:	bd10      	pop	{r4, pc}
 80041ac:	2000000c 	.word	0x2000000c
 80041b0:	00000000 	.word	0x00000000
 80041b4:	08008804 	.word	0x08008804

080041b8 <frame_dummy>:
 80041b8:	b508      	push	{r3, lr}
 80041ba:	4b03      	ldr	r3, [pc, #12]	; (80041c8 <frame_dummy+0x10>)
 80041bc:	b11b      	cbz	r3, 80041c6 <frame_dummy+0xe>
 80041be:	4903      	ldr	r1, [pc, #12]	; (80041cc <frame_dummy+0x14>)
 80041c0:	4803      	ldr	r0, [pc, #12]	; (80041d0 <frame_dummy+0x18>)
 80041c2:	f3af 8000 	nop.w
 80041c6:	bd08      	pop	{r3, pc}
 80041c8:	00000000 	.word	0x00000000
 80041cc:	20000010 	.word	0x20000010
 80041d0:	08008804 	.word	0x08008804

080041d4 <__aeabi_uldivmod>:
 80041d4:	b953      	cbnz	r3, 80041ec <__aeabi_uldivmod+0x18>
 80041d6:	b94a      	cbnz	r2, 80041ec <__aeabi_uldivmod+0x18>
 80041d8:	2900      	cmp	r1, #0
 80041da:	bf08      	it	eq
 80041dc:	2800      	cmpeq	r0, #0
 80041de:	bf1c      	itt	ne
 80041e0:	f04f 31ff 	movne.w	r1, #4294967295	; 0xffffffff
 80041e4:	f04f 30ff 	movne.w	r0, #4294967295	; 0xffffffff
 80041e8:	f000 b96e 	b.w	80044c8 <__aeabi_idiv0>
 80041ec:	f1ad 0c08 	sub.w	ip, sp, #8
 80041f0:	e96d ce04 	strd	ip, lr, [sp, #-16]!
 80041f4:	f000 f806 	bl	8004204 <__udivmoddi4>
 80041f8:	f8dd e004 	ldr.w	lr, [sp, #4]
 80041fc:	e9dd 2302 	ldrd	r2, r3, [sp, #8]
 8004200:	b004      	add	sp, #16
 8004202:	4770      	bx	lr

08004204 <__udivmoddi4>:
 8004204:	e92d 47f0 	stmdb	sp!, {r4, r5, r6, r7, r8, r9, sl, lr}
 8004208:	9d08      	ldr	r5, [sp, #32]
 800420a:	4604      	mov	r4, r0
 800420c:	468c      	mov	ip, r1
 800420e:	2b00      	cmp	r3, #0
 8004210:	f040 8083 	bne.w	800431a <__udivmoddi4+0x116>
 8004214:	428a      	cmp	r2, r1
 8004216:	4617      	mov	r7, r2
 8004218:	d947      	bls.n	80042aa <__udivmoddi4+0xa6>
 800421a:	fab2 f282 	clz	r2, r2
 800421e:	b142      	cbz	r2, 8004232 <__udivmoddi4+0x2e>
 8004220:	f1c2 0020 	rsb	r0, r2, #32
 8004224:	fa24 f000 	lsr.w	r0, r4, r0
 8004228:	4091      	lsls	r1, r2
 800422a:	4097      	lsls	r7, r2
 800422c:	ea40 0c01 	orr.w	ip, r0, r1
 8004230:	4094      	lsls	r4, r2
 8004232:	ea4f 4817 	mov.w	r8, r7, lsr #16
 8004236:	0c23      	lsrs	r3, r4, #16
 8004238:	fbbc f6f8 	udiv	r6, ip, r8
 800423c:	fa1f fe87 	uxth.w	lr, r7
 8004240:	fb08 c116 	mls	r1, r8, r6, ip
 8004244:	ea43 4301 	orr.w	r3, r3, r1, lsl #16
 8004248:	fb06 f10e 	mul.w	r1, r6, lr
 800424c:	4299      	cmp	r1, r3
 800424e:	d909      	bls.n	8004264 <__udivmoddi4+0x60>
 8004250:	18fb      	adds	r3, r7, r3
 8004252:	f106 30ff 	add.w	r0, r6, #4294967295	; 0xffffffff
 8004256:	f080 8119 	bcs.w	800448c <__udivmoddi4+0x288>
 800425a:	4299      	cmp	r1, r3
 800425c:	f240 8116 	bls.w	800448c <__udivmoddi4+0x288>
 8004260:	3e02      	subs	r6, #2
 8004262:	443b      	add	r3, r7
 8004264:	1a5b      	subs	r3, r3, r1
 8004266:	b2a4      	uxth	r4, r4
 8004268:	fbb3 f0f8 	udiv	r0, r3, r8
 800426c:	fb08 3310 	mls	r3, r8, r0, r3
 8004270:	ea44 4403 	orr.w	r4, r4, r3, lsl #16
 8004274:	fb00 fe0e 	mul.w	lr, r0, lr
 8004278:	45a6      	cmp	lr, r4
 800427a:	d909      	bls.n	8004290 <__udivmoddi4+0x8c>
 800427c:	193c      	adds	r4, r7, r4
 800427e:	f100 33ff 	add.w	r3, r0, #4294967295	; 0xffffffff
 8004282:	f080 8105 	bcs.w	8004490 <__udivmoddi4+0x28c>
 8004286:	45a6      	cmp	lr, r4
 8004288:	f240 8102 	bls.w	8004490 <__udivmoddi4+0x28c>
 800428c:	3802      	subs	r0, #2
 800428e:	443c      	add	r4, r7
 8004290:	ea40 4006 	orr.w	r0, r0, r6, lsl #16
 8004294:	eba4 040e 	sub.w	r4, r4, lr
 8004298:	2600      	movs	r6, #0
 800429a:	b11d      	cbz	r5, 80042a4 <__udivmoddi4+0xa0>
 800429c:	40d4      	lsrs	r4, r2
 800429e:	2300      	movs	r3, #0
 80042a0:	e9c5 4300 	strd	r4, r3, [r5]
 80042a4:	4631      	mov	r1, r6
 80042a6:	e8bd 87f0 	ldmia.w	sp!, {r4, r5, r6, r7, r8, r9, sl, pc}
 80042aa:	b902      	cbnz	r2, 80042ae <__udivmoddi4+0xaa>
 80042ac:	deff      	udf	#255	; 0xff
 80042ae:	fab2 f282 	clz	r2, r2
 80042b2:	2a00      	cmp	r2, #0
 80042b4:	d150      	bne.n	8004358 <__udivmoddi4+0x154>
 80042b6:	1bcb      	subs	r3, r1, r7
 80042b8:	ea4f 4e17 	mov.w	lr, r7, lsr #16
 80042bc:	fa1f f887 	uxth.w	r8, r7
 80042c0:	2601      	movs	r6, #1
 80042c2:	fbb3 fcfe 	udiv	ip, r3, lr
 80042c6:	0c21      	lsrs	r1, r4, #16
 80042c8:	fb0e 331c 	mls	r3, lr, ip, r3
 80042cc:	ea41 4103 	orr.w	r1, r1, r3, lsl #16
 80042d0:	fb08 f30c 	mul.w	r3, r8, ip
 80042d4:	428b      	cmp	r3, r1
 80042d6:	d907      	bls.n	80042e8 <__udivmoddi4+0xe4>
 80042d8:	1879      	adds	r1, r7, r1
 80042da:	f10c 30ff 	add.w	r0, ip, #4294967295	; 0xffffffff
 80042de:	d202      	bcs.n	80042e6 <__udivmoddi4+0xe2>
 80042e0:	428b      	cmp	r3, r1
 80042e2:	f200 80e9 	bhi.w	80044b8 <__udivmoddi4+0x2b4>
 80042e6:	4684      	mov	ip, r0
 80042e8:	1ac9      	subs	r1, r1, r3
 80042ea:	b2a3      	uxth	r3, r4
 80042ec:	fbb1 f0fe 	udiv	r0, r1, lr
 80042f0:	fb0e 1110 	mls	r1, lr, r0, r1
 80042f4:	ea43 4401 	orr.w	r4, r3, r1, lsl #16
 80042f8:	fb08 f800 	mul.w	r8, r8, r0
 80042fc:	45a0      	cmp	r8, r4
 80042fe:	d907      	bls.n	8004310 <__udivmoddi4+0x10c>
 8004300:	193c      	adds	r4, r7, r4
 8004302:	f100 33ff 	add.w	r3, r0, #4294967295	; 0xffffffff
 8004306:	d202      	bcs.n	800430e <__udivmoddi4+0x10a>
 8004308:	45a0      	cmp	r8, r4
 800430a:	f200 80d9 	bhi.w	80044c0 <__udivmoddi4+0x2bc>
 800430e:	4618      	mov	r0, r3
 8004310:	eba4 0408 	sub.w	r4, r4, r8
 8004314:	ea40 400c 	orr.w	r0, r0, ip, lsl #16
 8004318:	e7bf      	b.n	800429a <__udivmoddi4+0x96>
 800431a:	428b      	cmp	r3, r1
 800431c:	d909      	bls.n	8004332 <__udivmoddi4+0x12e>
 800431e:	2d00      	cmp	r5, #0
 8004320:	f000 80b1 	beq.w	8004486 <__udivmoddi4+0x282>
 8004324:	2600      	movs	r6, #0
 8004326:	e9c5 0100 	strd	r0, r1, [r5]
 800432a:	4630      	mov	r0, r6
 800432c:	4631      	mov	r1, r6
 800432e:	e8bd 87f0 	ldmia.w	sp!, {r4, r5, r6, r7, r8, r9, sl, pc}
 8004332:	fab3 f683 	clz	r6, r3
 8004336:	2e00      	cmp	r6, #0
 8004338:	d14a      	bne.n	80043d0 <__udivmoddi4+0x1cc>
 800433a:	428b      	cmp	r3, r1
 800433c:	d302      	bcc.n	8004344 <__udivmoddi4+0x140>
 800433e:	4282      	cmp	r2, r0
 8004340:	f200 80b8 	bhi.w	80044b4 <__udivmoddi4+0x2b0>
 8004344:	1a84      	subs	r4, r0, r2
 8004346:	eb61 0103 	sbc.w	r1, r1, r3
 800434a:	2001      	movs	r0, #1
 800434c:	468c      	mov	ip, r1
 800434e:	2d00      	cmp	r5, #0
 8004350:	d0a8      	beq.n	80042a4 <__udivmoddi4+0xa0>
 8004352:	e9c5 4c00 	strd	r4, ip, [r5]
 8004356:	e7a5      	b.n	80042a4 <__udivmoddi4+0xa0>
 8004358:	f1c2 0320 	rsb	r3, r2, #32
 800435c:	fa20 f603 	lsr.w	r6, r0, r3
 8004360:	4097      	lsls	r7, r2
 8004362:	fa01 f002 	lsl.w	r0, r1, r2
 8004366:	ea4f 4e17 	mov.w	lr, r7, lsr #16
 800436a:	40d9      	lsrs	r1, r3
 800436c:	4330      	orrs	r0, r6
 800436e:	0c03      	lsrs	r3, r0, #16
 8004370:	fbb1 f6fe 	udiv	r6, r1, lr
 8004374:	fa1f f887 	uxth.w	r8, r7
 8004378:	fb0e 1116 	mls	r1, lr, r6, r1
 800437c:	ea43 4301 	orr.w	r3, r3, r1, lsl #16
 8004380:	fb06 f108 	mul.w	r1, r6, r8
 8004384:	4299      	cmp	r1, r3
 8004386:	fa04 f402 	lsl.w	r4, r4, r2
 800438a:	d909      	bls.n	80043a0 <__udivmoddi4+0x19c>
 800438c:	18fb      	adds	r3, r7, r3
 800438e:	f106 3cff 	add.w	ip, r6, #4294967295	; 0xffffffff
 8004392:	f080 808d 	bcs.w	80044b0 <__udivmoddi4+0x2ac>
 8004396:	4299      	cmp	r1, r3
 8004398:	f240 808a 	bls.w	80044b0 <__udivmoddi4+0x2ac>
 800439c:	3e02      	subs	r6, #2
 800439e:	443b      	add	r3, r7
 80043a0:	1a5b      	subs	r3, r3, r1
 80043a2:	b281      	uxth	r1, r0
 80043a4:	fbb3 f0fe 	udiv	r0, r3, lr
 80043a8:	fb0e 3310 	mls	r3, lr, r0, r3
 80043ac:	ea41 4103 	orr.w	r1, r1, r3, lsl #16
 80043b0:	fb00 f308 	mul.w	r3, r0, r8
 80043b4:	428b      	cmp	r3, r1
 80043b6:	d907      	bls.n	80043c8 <__udivmoddi4+0x1c4>
 80043b8:	1879      	adds	r1, r7, r1
 80043ba:	f100 3cff 	add.w	ip, r0, #4294967295	; 0xffffffff
 80043be:	d273      	bcs.n	80044a8 <__udivmoddi4+0x2a4>
 80043c0:	428b      	cmp	r3, r1
 80043c2:	d971      	bls.n	80044a8 <__udivmoddi4+0x2a4>
 80043c4:	3802      	subs	r0, #2
 80043c6:	4439      	add	r1, r7
 80043c8:	1acb      	subs	r3, r1, r3
 80043ca:	ea40 4606 	orr.w	r6, r0, r6, lsl #16
 80043ce:	e778      	b.n	80042c2 <__udivmoddi4+0xbe>
 80043d0:	f1c6 0c20 	rsb	ip, r6, #32
 80043d4:	fa03 f406 	lsl.w	r4, r3, r6
 80043d8:	fa22 f30c 	lsr.w	r3, r2, ip
 80043dc:	431c      	orrs	r4, r3
 80043de:	fa20 f70c 	lsr.w	r7, r0, ip
 80043e2:	fa01 f306 	lsl.w	r3, r1, r6
 80043e6:	ea4f 4e14 	mov.w	lr, r4, lsr #16
 80043ea:	fa21 f10c 	lsr.w	r1, r1, ip
 80043ee:	431f      	orrs	r7, r3
 80043f0:	0c3b      	lsrs	r3, r7, #16
 80043f2:	fbb1 f9fe 	udiv	r9, r1, lr
 80043f6:	fa1f f884 	uxth.w	r8, r4
 80043fa:	fb0e 1119 	mls	r1, lr, r9, r1
 80043fe:	ea43 4101 	orr.w	r1, r3, r1, lsl #16
 8004402:	fb09 fa08 	mul.w	sl, r9, r8
 8004406:	458a      	cmp	sl, r1
 8004408:	fa02 f206 	lsl.w	r2, r2, r6
 800440c:	fa00 f306 	lsl.w	r3, r0, r6
 8004410:	d908      	bls.n	8004424 <__udivmoddi4+0x220>
 8004412:	1861      	adds	r1, r4, r1
 8004414:	f109 30ff 	add.w	r0, r9, #4294967295	; 0xffffffff
 8004418:	d248      	bcs.n	80044ac <__udivmoddi4+0x2a8>
 800441a:	458a      	cmp	sl, r1
 800441c:	d946      	bls.n	80044ac <__udivmoddi4+0x2a8>
 800441e:	f1a9 0902 	sub.w	r9, r9, #2
 8004422:	4421      	add	r1, r4
 8004424:	eba1 010a 	sub.w	r1, r1, sl
 8004428:	b2bf      	uxth	r7, r7
 800442a:	fbb1 f0fe 	udiv	r0, r1, lr
 800442e:	fb0e 1110 	mls	r1, lr, r0, r1
 8004432:	ea47 4701 	orr.w	r7, r7, r1, lsl #16
 8004436:	fb00 f808 	mul.w	r8, r0, r8
 800443a:	45b8      	cmp	r8, r7
 800443c:	d907      	bls.n	800444e <__udivmoddi4+0x24a>
 800443e:	19e7      	adds	r7, r4, r7
 8004440:	f100 31ff 	add.w	r1, r0, #4294967295	; 0xffffffff
 8004444:	d22e      	bcs.n	80044a4 <__udivmoddi4+0x2a0>
 8004446:	45b8      	cmp	r8, r7
 8004448:	d92c      	bls.n	80044a4 <__udivmoddi4+0x2a0>
 800444a:	3802      	subs	r0, #2
 800444c:	4427      	add	r7, r4
 800444e:	ea40 4009 	orr.w	r0, r0, r9, lsl #16
 8004452:	eba7 0708 	sub.w	r7, r7, r8
 8004456:	fba0 8902 	umull	r8, r9, r0, r2
 800445a:	454f      	cmp	r7, r9
 800445c:	46c6      	mov	lr, r8
 800445e:	4649      	mov	r1, r9
 8004460:	d31a      	bcc.n	8004498 <__udivmoddi4+0x294>
 8004462:	d017      	beq.n	8004494 <__udivmoddi4+0x290>
 8004464:	b15d      	cbz	r5, 800447e <__udivmoddi4+0x27a>
 8004466:	ebb3 020e 	subs.w	r2, r3, lr
 800446a:	eb67 0701 	sbc.w	r7, r7, r1
 800446e:	fa07 fc0c 	lsl.w	ip, r7, ip
 8004472:	40f2      	lsrs	r2, r6
 8004474:	ea4c 0202 	orr.w	r2, ip, r2
 8004478:	40f7      	lsrs	r7, r6
 800447a:	e9c5 2700 	strd	r2, r7, [r5]
 800447e:	2600      	movs	r6, #0
 8004480:	4631      	mov	r1, r6
 8004482:	e8bd 87f0 	ldmia.w	sp!, {r4, r5, r6, r7, r8, r9, sl, pc}
 8004486:	462e      	mov	r6, r5
 8004488:	4628      	mov	r0, r5
 800448a:	e70b      	b.n	80042a4 <__udivmoddi4+0xa0>
 800448c:	4606      	mov	r6, r0
 800448e:	e6e9      	b.n	8004264 <__udivmoddi4+0x60>
 8004490:	4618      	mov	r0, r3
 8004492:	e6fd      	b.n	8004290 <__udivmoddi4+0x8c>
 8004494:	4543      	cmp	r3, r8
 8004496:	d2e5      	bcs.n	8004464 <__udivmoddi4+0x260>
 8004498:	ebb8 0e02 	subs.w	lr, r8, r2
 800449c:	eb69 0104 	sbc.w	r1, r9, r4
 80044a0:	3801      	subs	r0, #1
 80044a2:	e7df      	b.n	8004464 <__udivmoddi4+0x260>
 80044a4:	4608      	mov	r0, r1
 80044a6:	e7d2      	b.n	800444e <__udivmoddi4+0x24a>
 80044a8:	4660      	mov	r0, ip
 80044aa:	e78d      	b.n	80043c8 <__udivmoddi4+0x1c4>
 80044ac:	4681      	mov	r9, r0
 80044ae:	e7b9      	b.n	8004424 <__udivmoddi4+0x220>
 80044b0:	4666      	mov	r6, ip
 80044b2:	e775      	b.n	80043a0 <__udivmoddi4+0x19c>
 80044b4:	4630      	mov	r0, r6
 80044b6:	e74a      	b.n	800434e <__udivmoddi4+0x14a>
 80044b8:	f1ac 0c02 	sub.w	ip, ip, #2
 80044bc:	4439      	add	r1, r7
 80044be:	e713      	b.n	80042e8 <__udivmoddi4+0xe4>
 80044c0:	3802      	subs	r0, #2
 80044c2:	443c      	add	r4, r7
 80044c4:	e724      	b.n	8004310 <__udivmoddi4+0x10c>
 80044c6:	bf00      	nop

080044c8 <__aeabi_idiv0>:
 80044c8:	4770      	bx	lr
 80044ca:	bf00      	nop

080044cc <__NVIC_GetPriorityGrouping>:
  \brief   Get Priority Grouping
  \details Reads the priority grouping field from the NVIC Interrupt Controller.
  \return                Priority grouping field (SCB->AIRCR [10:8] PRIGROUP field).
 */
__STATIC_INLINE uint32_t __NVIC_GetPriorityGrouping(void)
{
 80044cc:	b480      	push	{r7}
 80044ce:	af00      	add	r7, sp, #0
  return ((uint32_t)((SCB->AIRCR & SCB_AIRCR_PRIGROUP_Msk) >> SCB_AIRCR_PRIGROUP_Pos));
 80044d0:	4b04      	ldr	r3, [pc, #16]	; (80044e4 <__NVIC_GetPriorityGrouping+0x18>)
 80044d2:	68db      	ldr	r3, [r3, #12]
 80044d4:	0a1b      	lsrs	r3, r3, #8
 80044d6:	f003 0307 	and.w	r3, r3, #7
}
 80044da:	4618      	mov	r0, r3
 80044dc:	46bd      	mov	sp, r7
 80044de:	f85d 7b04 	ldr.w	r7, [sp], #4
 80044e2:	4770      	bx	lr
 80044e4:	e000ed00 	.word	0xe000ed00

080044e8 <__NVIC_EnableIRQ>:
  \details Enables a device specific interrupt in the NVIC interrupt controller.
  \param [in]      IRQn  Device specific interrupt number.
  \note    IRQn must not be negative.
 */
__STATIC_INLINE void __NVIC_EnableIRQ(IRQn_Type IRQn)
{
 80044e8:	b480      	push	{r7}
 80044ea:	b083      	sub	sp, #12
 80044ec:	af00      	add	r7, sp, #0
 80044ee:	4603      	mov	r3, r0
 80044f0:	71fb      	strb	r3, [r7, #7]
  if ((int32_t)(IRQn) >= 0)
 80044f2:	f997 3007 	ldrsb.w	r3, [r7, #7]
 80044f6:	2b00      	cmp	r3, #0
 80044f8:	db0b      	blt.n	8004512 <__NVIC_EnableIRQ+0x2a>
  {
    NVIC->ISER[(((uint32_t)IRQn) >> 5UL)] = (uint32_t)(1UL << (((uint32_t)IRQn) & 0x1FUL));
 80044fa:	79fb      	ldrb	r3, [r7, #7]
 80044fc:	f003 021f 	and.w	r2, r3, #31
 8004500:	4907      	ldr	r1, [pc, #28]	; (8004520 <__NVIC_EnableIRQ+0x38>)
 8004502:	f997 3007 	ldrsb.w	r3, [r7, #7]
 8004506:	095b      	lsrs	r3, r3, #5
 8004508:	2001      	movs	r0, #1
 800450a:	fa00 f202 	lsl.w	r2, r0, r2
 800450e:	f841 2023 	str.w	r2, [r1, r3, lsl #2]
  }
}
 8004512:	bf00      	nop
 8004514:	370c      	adds	r7, #12
 8004516:	46bd      	mov	sp, r7
 8004518:	f85d 7b04 	ldr.w	r7, [sp], #4
 800451c:	4770      	bx	lr
 800451e:	bf00      	nop
 8004520:	e000e100 	.word	0xe000e100

08004524 <__NVIC_DisableIRQ>:
  \details Disables a device specific interrupt in the NVIC interrupt controller.
  \param [in]      IRQn  Device specific interrupt number.
  \note    IRQn must not be negative.
 */
__STATIC_INLINE void __NVIC_DisableIRQ(IRQn_Type IRQn)
{
 8004524:	b480      	push	{r7}
 8004526:	b083      	sub	sp, #12
 8004528:	af00      	add	r7, sp, #0
 800452a:	4603      	mov	r3, r0
 800452c:	71fb      	strb	r3, [r7, #7]
  if ((int32_t)(IRQn) >= 0)
 800452e:	f997 3007 	ldrsb.w	r3, [r7, #7]
 8004532:	2b00      	cmp	r3, #0
 8004534:	db12      	blt.n	800455c <__NVIC_DisableIRQ+0x38>
  {
    NVIC->ICER[(((uint32_t)IRQn) >> 5UL)] = (uint32_t)(1UL << (((uint32_t)IRQn) & 0x1FUL));
 8004536:	79fb      	ldrb	r3, [r7, #7]
 8004538:	f003 021f 	and.w	r2, r3, #31
 800453c:	490a      	ldr	r1, [pc, #40]	; (8004568 <__NVIC_DisableIRQ+0x44>)
 800453e:	f997 3007 	ldrsb.w	r3, [r7, #7]
 8004542:	095b      	lsrs	r3, r3, #5
 8004544:	2001      	movs	r0, #1
 8004546:	fa00 f202 	lsl.w	r2, r0, r2
 800454a:	3320      	adds	r3, #32
 800454c:	f841 2023 	str.w	r2, [r1, r3, lsl #2]
  \details Acts as a special kind of Data Memory Barrier.
           It completes when all explicit memory accesses before this instruction complete.
 */
__STATIC_FORCEINLINE void __DSB(void)
{
  __ASM volatile ("dsb 0xF":::"memory");
 8004550:	f3bf 8f4f 	dsb	sy
}
 8004554:	bf00      	nop
  __ASM volatile ("isb 0xF":::"memory");
 8004556:	f3bf 8f6f 	isb	sy
}
 800455a:	bf00      	nop
    __DSB();
    __ISB();
  }
}
 800455c:	bf00      	nop
 800455e:	370c      	adds	r7, #12
 8004560:	46bd      	mov	sp, r7
 8004562:	f85d 7b04 	ldr.w	r7, [sp], #4
 8004566:	4770      	bx	lr
 8004568:	e000e100 	.word	0xe000e100

0800456c <__NVIC_SetPriority>:
  \param [in]      IRQn  Interrupt number.
  \param [in]  priority  Priority to set.
  \note    The priority cannot be set for every processor exception.
 */
__STATIC_INLINE void __NVIC_SetPriority(IRQn_Type IRQn, uint32_t priority)
{
 800456c:	b480      	push	{r7}
 800456e:	b083      	sub	sp, #12
 8004570:	af00      	add	r7, sp, #0
 8004572:	4603      	mov	r3, r0
 8004574:	6039      	str	r1, [r7, #0]
 8004576:	71fb      	strb	r3, [r7, #7]
  if ((int32_t)(IRQn) >= 0)
 8004578:	f997 3007 	ldrsb.w	r3, [r7, #7]
 800457c:	2b00      	cmp	r3, #0
 800457e:	db0a      	blt.n	8004596 <__NVIC_SetPriority+0x2a>
  {
    NVIC->IP[((uint32_t)IRQn)]               = (uint8_t)((priority << (8U - __NVIC_PRIO_BITS)) & (uint32_t)0xFFUL);
 8004580:	683b      	ldr	r3, [r7, #0]
 8004582:	b2da      	uxtb	r2, r3
 8004584:	490c      	ldr	r1, [pc, #48]	; (80045b8 <__NVIC_SetPriority+0x4c>)
 8004586:	f997 3007 	ldrsb.w	r3, [r7, #7]
 800458a:	0112      	lsls	r2, r2, #4
 800458c:	b2d2      	uxtb	r2, r2
 800458e:	440b      	add	r3, r1
 8004590:	f883 2300 	strb.w	r2, [r3, #768]	; 0x300
  }
  else
  {
    SCB->SHP[(((uint32_t)IRQn) & 0xFUL)-4UL] = (uint8_t)((priority << (8U - __NVIC_PRIO_BITS)) & (uint32_t)0xFFUL);
  }
}
 8004594:	e00a      	b.n	80045ac <__NVIC_SetPriority+0x40>
    SCB->SHP[(((uint32_t)IRQn) & 0xFUL)-4UL] = (uint8_t)((priority << (8U - __NVIC_PRIO_BITS)) & (uint32_t)0xFFUL);
 8004596:	683b      	ldr	r3, [r7, #0]
 8004598:	b2da      	uxtb	r2, r3
 800459a:	4908      	ldr	r1, [pc, #32]	; (80045bc <__NVIC_SetPriority+0x50>)
 800459c:	79fb      	ldrb	r3, [r7, #7]
 800459e:	f003 030f 	and.w	r3, r3, #15
 80045a2:	3b04      	subs	r3, #4
 80045a4:	0112      	lsls	r2, r2, #4
 80045a6:	b2d2      	uxtb	r2, r2
 80045a8:	440b      	add	r3, r1
 80045aa:	761a      	strb	r2, [r3, #24]
}
 80045ac:	bf00      	nop
 80045ae:	370c      	adds	r7, #12
 80045b0:	46bd      	mov	sp, r7
 80045b2:	f85d 7b04 	ldr.w	r7, [sp], #4
 80045b6:	4770      	bx	lr
 80045b8:	e000e100 	.word	0xe000e100
 80045bc:	e000ed00 	.word	0xe000ed00

080045c0 <NVIC_EncodePriority>:
  \param [in]   PreemptPriority  Preemptive priority value (starting from 0).
  \param [in]       SubPriority  Subpriority value (starting from 0).
  \return                        Encoded priority. Value can be used in the function \ref NVIC_SetPriority().
 */
__STATIC_INLINE uint32_t NVIC_EncodePriority (uint32_t PriorityGroup, uint32_t PreemptPriority, uint32_t SubPriority)
{
 80045c0:	b480      	push	{r7}
 80045c2:	b089      	sub	sp, #36	; 0x24
 80045c4:	af00      	add	r7, sp, #0
 80045c6:	60f8      	str	r0, [r7, #12]
 80045c8:	60b9      	str	r1, [r7, #8]
 80045ca:	607a      	str	r2, [r7, #4]
  uint32_t PriorityGroupTmp = (PriorityGroup & (uint32_t)0x07UL);   /* only values 0..7 are used          */
 80045cc:	68fb      	ldr	r3, [r7, #12]
 80045ce:	f003 0307 	and.w	r3, r3, #7
 80045d2:	61fb      	str	r3, [r7, #28]
  uint32_t PreemptPriorityBits;
  uint32_t SubPriorityBits;

  PreemptPriorityBits = ((7UL - PriorityGroupTmp) > (uint32_t)(__NVIC_PRIO_BITS)) ? (uint32_t)(__NVIC_PRIO_BITS) : (uint32_t)(7UL - PriorityGroupTmp);
 80045d4:	69fb      	ldr	r3, [r7, #28]
 80045d6:	f1c3 0307 	rsb	r3, r3, #7
 80045da:	2b04      	cmp	r3, #4
 80045dc:	bf28      	it	cs
 80045de:	2304      	movcs	r3, #4
 80045e0:	61bb      	str	r3, [r7, #24]
  SubPriorityBits     = ((PriorityGroupTmp + (uint32_t)(__NVIC_PRIO_BITS)) < (uint32_t)7UL) ? (uint32_t)0UL : (uint32_t)((PriorityGroupTmp - 7UL) + (uint32_t)(__NVIC_PRIO_BITS));
 80045e2:	69fb      	ldr	r3, [r7, #28]
 80045e4:	3304      	adds	r3, #4
 80045e6:	2b06      	cmp	r3, #6
 80045e8:	d902      	bls.n	80045f0 <NVIC_EncodePriority+0x30>
 80045ea:	69fb      	ldr	r3, [r7, #28]
 80045ec:	3b03      	subs	r3, #3
 80045ee:	e000      	b.n	80045f2 <NVIC_EncodePriority+0x32>
 80045f0:	2300      	movs	r3, #0
 80045f2:	617b      	str	r3, [r7, #20]

  return (
           ((PreemptPriority & (uint32_t)((1UL << (PreemptPriorityBits)) - 1UL)) << SubPriorityBits) |
 80045f4:	f04f 32ff 	mov.w	r2, #4294967295	; 0xffffffff
 80045f8:	69bb      	ldr	r3, [r7, #24]
 80045fa:	fa02 f303 	lsl.w	r3, r2, r3
 80045fe:	43da      	mvns	r2, r3
 8004600:	68bb      	ldr	r3, [r7, #8]
 8004602:	401a      	ands	r2, r3
 8004604:	697b      	ldr	r3, [r7, #20]
 8004606:	409a      	lsls	r2, r3
           ((SubPriority     & (uint32_t)((1UL << (SubPriorityBits    )) - 1UL)))
 8004608:	f04f 31ff 	mov.w	r1, #4294967295	; 0xffffffff
 800460c:	697b      	ldr	r3, [r7, #20]
 800460e:	fa01 f303 	lsl.w	r3, r1, r3
 8004612:	43d9      	mvns	r1, r3
 8004614:	687b      	ldr	r3, [r7, #4]
 8004616:	400b      	ands	r3, r1
           ((PreemptPriority & (uint32_t)((1UL << (PreemptPriorityBits)) - 1UL)) << SubPriorityBits) |
 8004618:	4313      	orrs	r3, r2
         );
}
 800461a:	4618      	mov	r0, r3
 800461c:	3724      	adds	r7, #36	; 0x24
 800461e:	46bd      	mov	sp, r7
 8004620:	f85d 7b04 	ldr.w	r7, [sp], #4
 8004624:	4770      	bx	lr
	...

08004628 <__NVIC_SystemReset>:
/**
  \brief   System Reset
  \details Initiates a system reset request to reset the MCU.
 */
__NO_RETURN __STATIC_INLINE void __NVIC_SystemReset(void)
{
 8004628:	b480      	push	{r7}
 800462a:	af00      	add	r7, sp, #0
  __ASM volatile ("dsb 0xF":::"memory");
 800462c:	f3bf 8f4f 	dsb	sy
}
 8004630:	bf00      	nop
  __DSB();                                                          /* Ensure all outstanding memory accesses included
                                                                       buffered write are completed before reset */
  SCB->AIRCR  = (uint32_t)((0x5FAUL << SCB_AIRCR_VECTKEY_Pos)    |
                           (SCB->AIRCR & SCB_AIRCR_PRIGROUP_Msk) |
 8004632:	4b06      	ldr	r3, [pc, #24]	; (800464c <__NVIC_SystemReset+0x24>)
 8004634:	68db      	ldr	r3, [r3, #12]
 8004636:	f403 62e0 	and.w	r2, r3, #1792	; 0x700
  SCB->AIRCR  = (uint32_t)((0x5FAUL << SCB_AIRCR_VECTKEY_Pos)    |
 800463a:	4904      	ldr	r1, [pc, #16]	; (800464c <__NVIC_SystemReset+0x24>)
 800463c:	4b04      	ldr	r3, [pc, #16]	; (8004650 <__NVIC_SystemReset+0x28>)
 800463e:	4313      	orrs	r3, r2
 8004640:	60cb      	str	r3, [r1, #12]
  __ASM volatile ("dsb 0xF":::"memory");
 8004642:	f3bf 8f4f 	dsb	sy
}
 8004646:	bf00      	nop
                            SCB_AIRCR_SYSRESETREQ_Msk    );         /* Keep priority group unchanged */
  __DSB();                                                          /* Ensure completion of memory access */

  for(;;)                                                           /* wait until reset */
  {
    __NOP();
 8004648:	bf00      	nop
 800464a:	e7fd      	b.n	8004648 <__NVIC_SystemReset+0x20>
 800464c:	e000ed00 	.word	0xe000ed00
 8004650:	05fa0004 	.word	0x05fa0004

08004654 <LL_DMA_EnableStream>:
  *         @arg @ref LL_DMA_STREAM_6
  *         @arg @ref LL_DMA_STREAM_7
  * @retval None
  */
__STATIC_INLINE void LL_DMA_EnableStream(DMA_TypeDef *DMAx, uint32_t Stream)
{
 8004654:	b480      	push	{r7}
 8004656:	b083      	sub	sp, #12
 8004658:	af00      	add	r7, sp, #0
 800465a:	6078      	str	r0, [r7, #4]
 800465c:	6039      	str	r1, [r7, #0]
  SET_BIT(((DMA_Stream_TypeDef *)((uint32_t)((uint32_t)DMAx + STREAM_OFFSET_TAB[Stream])))->CR, DMA_SxCR_EN);
 800465e:	4a0c      	ldr	r2, [pc, #48]	; (8004690 <LL_DMA_EnableStream+0x3c>)
 8004660:	683b      	ldr	r3, [r7, #0]
 8004662:	4413      	add	r3, r2
 8004664:	781b      	ldrb	r3, [r3, #0]
 8004666:	461a      	mov	r2, r3
 8004668:	687b      	ldr	r3, [r7, #4]
 800466a:	4413      	add	r3, r2
 800466c:	681b      	ldr	r3, [r3, #0]
 800466e:	4908      	ldr	r1, [pc, #32]	; (8004690 <LL_DMA_EnableStream+0x3c>)
 8004670:	683a      	ldr	r2, [r7, #0]
 8004672:	440a      	add	r2, r1
 8004674:	7812      	ldrb	r2, [r2, #0]
 8004676:	4611      	mov	r1, r2
 8004678:	687a      	ldr	r2, [r7, #4]
 800467a:	440a      	add	r2, r1
 800467c:	f043 0301 	orr.w	r3, r3, #1
 8004680:	6013      	str	r3, [r2, #0]
}
 8004682:	bf00      	nop
 8004684:	370c      	adds	r7, #12
 8004686:	46bd      	mov	sp, r7
 8004688:	f85d 7b04 	ldr.w	r7, [sp], #4
 800468c:	4770      	bx	lr
 800468e:	bf00      	nop
 8004690:	0800881c 	.word	0x0800881c

08004694 <LL_DMA_DisableStream>:
  *         @arg @ref LL_DMA_STREAM_6
  *         @arg @ref LL_DMA_STREAM_7
  * @retval None
  */
__STATIC_INLINE void LL_DMA_DisableStream(DMA_TypeDef *DMAx, uint32_t Stream)
{
 8004694:	b480      	push	{r7}
 8004696:	b083      	sub	sp, #12
 8004698:	af00      	add	r7, sp, #0
 800469a:	6078      	str	r0, [r7, #4]
 800469c:	6039      	str	r1, [r7, #0]
  CLEAR_BIT(((DMA_Stream_TypeDef *)((uint32_t)((uint32_t)DMAx + STREAM_OFFSET_TAB[Stream])))->CR, DMA_SxCR_EN);
 800469e:	4a0c      	ldr	r2, [pc, #48]	; (80046d0 <LL_DMA_DisableStream+0x3c>)
 80046a0:	683b      	ldr	r3, [r7, #0]
 80046a2:	4413      	add	r3, r2
 80046a4:	781b      	ldrb	r3, [r3, #0]
 80046a6:	461a      	mov	r2, r3
 80046a8:	687b      	ldr	r3, [r7, #4]
 80046aa:	4413      	add	r3, r2
 80046ac:	681b      	ldr	r3, [r3, #0]
 80046ae:	4908      	ldr	r1, [pc, #32]	; (80046d0 <LL_DMA_DisableStream+0x3c>)
 80046b0:	683a      	ldr	r2, [r7, #0]
 80046b2:	440a      	add	r2, r1
 80046b4:	7812      	ldrb	r2, [r2, #0]
 80046b6:	4611      	mov	r1, r2
 80046b8:	687a      	ldr	r2, [r7, #4]
 80046ba:	440a      	add	r2, r1
 80046bc:	f023 0301 	bic.w	r3, r3, #1
 80046c0:	6013      	str	r3, [r2, #0]
}
 80046c2:	bf00      	nop
 80046c4:	370c      	adds	r7, #12
 80046c6:	46bd      	mov	sp, r7
 80046c8:	f85d 7b04 	ldr.w	r7, [sp], #4
 80046cc:	4770      	bx	lr
 80046ce:	bf00      	nop
 80046d0:	0800881c 	.word	0x0800881c

080046d4 <LL_DMA_SetDataTransferDirection>:
  *         @arg @ref LL_DMA_DIRECTION_MEMORY_TO_PERIPH
  *         @arg @ref LL_DMA_DIRECTION_MEMORY_TO_MEMORY
  * @retval None
  */
__STATIC_INLINE void LL_DMA_SetDataTransferDirection(DMA_TypeDef *DMAx, uint32_t Stream, uint32_t  Direction)
{
 80046d4:	b480      	push	{r7}
 80046d6:	b085      	sub	sp, #20
 80046d8:	af00      	add	r7, sp, #0
 80046da:	60f8      	str	r0, [r7, #12]
 80046dc:	60b9      	str	r1, [r7, #8]
 80046de:	607a      	str	r2, [r7, #4]
  MODIFY_REG(((DMA_Stream_TypeDef*)((uint32_t)((uint32_t)DMAx + STREAM_OFFSET_TAB[Stream])))->CR, DMA_SxCR_DIR, Direction);
 80046e0:	4a0d      	ldr	r2, [pc, #52]	; (8004718 <LL_DMA_SetDataTransferDirection+0x44>)
 80046e2:	68bb      	ldr	r3, [r7, #8]
 80046e4:	4413      	add	r3, r2
 80046e6:	781b      	ldrb	r3, [r3, #0]
 80046e8:	461a      	mov	r2, r3
 80046ea:	68fb      	ldr	r3, [r7, #12]
 80046ec:	4413      	add	r3, r2
 80046ee:	681b      	ldr	r3, [r3, #0]
 80046f0:	f023 02c0 	bic.w	r2, r3, #192	; 0xc0
 80046f4:	4908      	ldr	r1, [pc, #32]	; (8004718 <LL_DMA_SetDataTransferDirection+0x44>)
 80046f6:	68bb      	ldr	r3, [r7, #8]
 80046f8:	440b      	add	r3, r1
 80046fa:	781b      	ldrb	r3, [r3, #0]
 80046fc:	4619      	mov	r1, r3
 80046fe:	68fb      	ldr	r3, [r7, #12]
 8004700:	440b      	add	r3, r1
 8004702:	4619      	mov	r1, r3
 8004704:	687b      	ldr	r3, [r7, #4]
 8004706:	4313      	orrs	r3, r2
 8004708:	600b      	str	r3, [r1, #0]
}
 800470a:	bf00      	nop
 800470c:	3714      	adds	r7, #20
 800470e:	46bd      	mov	sp, r7
 8004710:	f85d 7b04 	ldr.w	r7, [sp], #4
 8004714:	4770      	bx	lr
 8004716:	bf00      	nop
 8004718:	0800881c 	.word	0x0800881c

0800471c <LL_DMA_SetMode>:
  *         @arg @ref LL_DMA_MODE_CIRCULAR
  *         @arg @ref LL_DMA_MODE_PFCTRL
  * @retval None
  */
__STATIC_INLINE void LL_DMA_SetMode(DMA_TypeDef *DMAx, uint32_t Stream, uint32_t Mode)
{
 800471c:	b480      	push	{r7}
 800471e:	b085      	sub	sp, #20
 8004720:	af00      	add	r7, sp, #0
 8004722:	60f8      	str	r0, [r7, #12]
 8004724:	60b9      	str	r1, [r7, #8]
 8004726:	607a      	str	r2, [r7, #4]
  MODIFY_REG(((DMA_Stream_TypeDef*)((uint32_t)((uint32_t)DMAx + STREAM_OFFSET_TAB[Stream])))->CR, DMA_SxCR_CIRC | DMA_SxCR_PFCTRL, Mode);
 8004728:	4a0d      	ldr	r2, [pc, #52]	; (8004760 <LL_DMA_SetMode+0x44>)
 800472a:	68bb      	ldr	r3, [r7, #8]
 800472c:	4413      	add	r3, r2
 800472e:	781b      	ldrb	r3, [r3, #0]
 8004730:	461a      	mov	r2, r3
 8004732:	68fb      	ldr	r3, [r7, #12]
 8004734:	4413      	add	r3, r2
 8004736:	681b      	ldr	r3, [r3, #0]
 8004738:	f423 7290 	bic.w	r2, r3, #288	; 0x120
 800473c:	4908      	ldr	r1, [pc, #32]	; (8004760 <LL_DMA_SetMode+0x44>)
 800473e:	68bb      	ldr	r3, [r7, #8]
 8004740:	440b      	add	r3, r1
 8004742:	781b      	ldrb	r3, [r3, #0]
 8004744:	4619      	mov	r1, r3
 8004746:	68fb      	ldr	r3, [r7, #12]
 8004748:	440b      	add	r3, r1
 800474a:	4619      	mov	r1, r3
 800474c:	687b      	ldr	r3, [r7, #4]
 800474e:	4313      	orrs	r3, r2
 8004750:	600b      	str	r3, [r1, #0]
}
 8004752:	bf00      	nop
 8004754:	3714      	adds	r7, #20
 8004756:	46bd      	mov	sp, r7
 8004758:	f85d 7b04 	ldr.w	r7, [sp], #4
 800475c:	4770      	bx	lr
 800475e:	bf00      	nop
 8004760:	0800881c 	.word	0x0800881c

08004764 <LL_DMA_SetPeriphIncMode>:
  *         @arg @ref LL_DMA_PERIPH_NOINCREMENT
  *         @arg @ref LL_DMA_PERIPH_INCREMENT
  * @retval None
  */
__STATIC_INLINE void LL_DMA_SetPeriphIncMode(DMA_TypeDef *DMAx, uint32_t Stream, uint32_t IncrementMode)
{
 8004764:	b480      	push	{r7}
 8004766:	b085      	sub	sp, #20
 8004768:	af00      	add	r7, sp, #0
 800476a:	60f8      	str	r0, [r7, #12]
 800476c:	60b9      	str	r1, [r7, #8]
 800476e:	607a      	str	r2, [r7, #4]
  MODIFY_REG(((DMA_Stream_TypeDef*)((uint32_t)((uint32_t)DMAx + STREAM_OFFSET_TAB[Stream])))->CR, DMA_SxCR_PINC, IncrementMode);
 8004770:	4a0d      	ldr	r2, [pc, #52]	; (80047a8 <LL_DMA_SetPeriphIncMode+0x44>)
 8004772:	68bb      	ldr	r3, [r7, #8]
 8004774:	4413      	add	r3, r2
 8004776:	781b      	ldrb	r3, [r3, #0]
 8004778:	461a      	mov	r2, r3
 800477a:	68fb      	ldr	r3, [r7, #12]
 800477c:	4413      	add	r3, r2
 800477e:	681b      	ldr	r3, [r3, #0]
 8004780:	f423 7200 	bic.w	r2, r3, #512	; 0x200
 8004784:	4908      	ldr	r1, [pc, #32]	; (80047a8 <LL_DMA_SetPeriphIncMode+0x44>)
 8004786:	68bb      	ldr	r3, [r7, #8]
 8004788:	440b      	add	r3, r1
 800478a:	781b      	ldrb	r3, [r3, #0]
 800478c:	4619      	mov	r1, r3
 800478e:	68fb      	ldr	r3, [r7, #12]
 8004790:	440b      	add	r3, r1
 8004792:	4619      	mov	r1, r3
 8004794:	687b      	ldr	r3, [r7, #4]
 8004796:	4313      	orrs	r3, r2
 8004798:	600b      	str	r3, [r1, #0]
}
 800479a:	bf00      	nop
 800479c:	3714      	adds	r7, #20
 800479e:	46bd      	mov	sp, r7
 80047a0:	f85d 7b04 	ldr.w	r7, [sp], #4
 80047a4:	4770      	bx	lr
 80047a6:	bf00      	nop
 80047a8:	0800881c 	.word	0x0800881c

080047ac <LL_DMA_SetMemoryIncMode>:
  *         @arg @ref LL_DMA_MEMORY_NOINCREMENT
  *         @arg @ref LL_DMA_MEMORY_INCREMENT
  * @retval None
  */
__STATIC_INLINE void LL_DMA_SetMemoryIncMode(DMA_TypeDef *DMAx, uint32_t Stream, uint32_t IncrementMode)
{
 80047ac:	b480      	push	{r7}
 80047ae:	b085      	sub	sp, #20
 80047b0:	af00      	add	r7, sp, #0
 80047b2:	60f8      	str	r0, [r7, #12]
 80047b4:	60b9      	str	r1, [r7, #8]
 80047b6:	607a      	str	r2, [r7, #4]
  MODIFY_REG(((DMA_Stream_TypeDef*)((uint32_t)((uint32_t)DMAx + STREAM_OFFSET_TAB[Stream])))->CR, DMA_SxCR_MINC, IncrementMode);
 80047b8:	4a0d      	ldr	r2, [pc, #52]	; (80047f0 <LL_DMA_SetMemoryIncMode+0x44>)
 80047ba:	68bb      	ldr	r3, [r7, #8]
 80047bc:	4413      	add	r3, r2
 80047be:	781b      	ldrb	r3, [r3, #0]
 80047c0:	461a      	mov	r2, r3
 80047c2:	68fb      	ldr	r3, [r7, #12]
 80047c4:	4413      	add	r3, r2
 80047c6:	681b      	ldr	r3, [r3, #0]
 80047c8:	f423 6280 	bic.w	r2, r3, #1024	; 0x400
 80047cc:	4908      	ldr	r1, [pc, #32]	; (80047f0 <LL_DMA_SetMemoryIncMode+0x44>)
 80047ce:	68bb      	ldr	r3, [r7, #8]
 80047d0:	440b      	add	r3, r1
 80047d2:	781b      	ldrb	r3, [r3, #0]
 80047d4:	4619      	mov	r1, r3
 80047d6:	68fb      	ldr	r3, [r7, #12]
 80047d8:	440b      	add	r3, r1
 80047da:	4619      	mov	r1, r3
 80047dc:	687b      	ldr	r3, [r7, #4]
 80047de:	4313      	orrs	r3, r2
 80047e0:	600b      	str	r3, [r1, #0]
}
 80047e2:	bf00      	nop
 80047e4:	3714      	adds	r7, #20
 80047e6:	46bd      	mov	sp, r7
 80047e8:	f85d 7b04 	ldr.w	r7, [sp], #4
 80047ec:	4770      	bx	lr
 80047ee:	bf00      	nop
 80047f0:	0800881c 	.word	0x0800881c

080047f4 <LL_DMA_SetPeriphSize>:
  *         @arg @ref LL_DMA_PDATAALIGN_HALFWORD
  *         @arg @ref LL_DMA_PDATAALIGN_WORD
  * @retval None
  */
__STATIC_INLINE void LL_DMA_SetPeriphSize(DMA_TypeDef *DMAx, uint32_t Stream, uint32_t  Size)
{
 80047f4:	b480      	push	{r7}
 80047f6:	b085      	sub	sp, #20
 80047f8:	af00      	add	r7, sp, #0
 80047fa:	60f8      	str	r0, [r7, #12]
 80047fc:	60b9      	str	r1, [r7, #8]
 80047fe:	607a      	str	r2, [r7, #4]
  MODIFY_REG(((DMA_Stream_TypeDef*)((uint32_t)((uint32_t)DMAx + STREAM_OFFSET_TAB[Stream])))->CR, DMA_SxCR_PSIZE, Size);
 8004800:	4a0d      	ldr	r2, [pc, #52]	; (8004838 <LL_DMA_SetPeriphSize+0x44>)
 8004802:	68bb      	ldr	r3, [r7, #8]
 8004804:	4413      	add	r3, r2
 8004806:	781b      	ldrb	r3, [r3, #0]
 8004808:	461a      	mov	r2, r3
 800480a:	68fb      	ldr	r3, [r7, #12]
 800480c:	4413      	add	r3, r2
 800480e:	681b      	ldr	r3, [r3, #0]
 8004810:	f423 52c0 	bic.w	r2, r3, #6144	; 0x1800
 8004814:	4908      	ldr	r1, [pc, #32]	; (8004838 <LL_DMA_SetPeriphSize+0x44>)
 8004816:	68bb      	ldr	r3, [r7, #8]
 8004818:	440b      	add	r3, r1
 800481a:	781b      	ldrb	r3, [r3, #0]
 800481c:	4619      	mov	r1, r3
 800481e:	68fb      	ldr	r3, [r7, #12]
 8004820:	440b      	add	r3, r1
 8004822:	4619      	mov	r1, r3
 8004824:	687b      	ldr	r3, [r7, #4]
 8004826:	4313      	orrs	r3, r2
 8004828:	600b      	str	r3, [r1, #0]
}
 800482a:	bf00      	nop
 800482c:	3714      	adds	r7, #20
 800482e:	46bd      	mov	sp, r7
 8004830:	f85d 7b04 	ldr.w	r7, [sp], #4
 8004834:	4770      	bx	lr
 8004836:	bf00      	nop
 8004838:	0800881c 	.word	0x0800881c

0800483c <LL_DMA_SetMemorySize>:
  *         @arg @ref LL_DMA_MDATAALIGN_HALFWORD
  *         @arg @ref LL_DMA_MDATAALIGN_WORD
  * @retval None
  */
__STATIC_INLINE void LL_DMA_SetMemorySize(DMA_TypeDef *DMAx, uint32_t Stream, uint32_t  Size)
{
 800483c:	b480      	push	{r7}
 800483e:	b085      	sub	sp, #20
 8004840:	af00      	add	r7, sp, #0
 8004842:	60f8      	str	r0, [r7, #12]
 8004844:	60b9      	str	r1, [r7, #8]
 8004846:	607a      	str	r2, [r7, #4]
  MODIFY_REG(((DMA_Stream_TypeDef*)((uint32_t)((uint32_t)DMAx + STREAM_OFFSET_TAB[Stream])))->CR, DMA_SxCR_MSIZE, Size);
 8004848:	4a0d      	ldr	r2, [pc, #52]	; (8004880 <LL_DMA_SetMemorySize+0x44>)
 800484a:	68bb      	ldr	r3, [r7, #8]
 800484c:	4413      	add	r3, r2
 800484e:	781b      	ldrb	r3, [r3, #0]
 8004850:	461a      	mov	r2, r3
 8004852:	68fb      	ldr	r3, [r7, #12]
 8004854:	4413      	add	r3, r2
 8004856:	681b      	ldr	r3, [r3, #0]
 8004858:	f423 42c0 	bic.w	r2, r3, #24576	; 0x6000
 800485c:	4908      	ldr	r1, [pc, #32]	; (8004880 <LL_DMA_SetMemorySize+0x44>)
 800485e:	68bb      	ldr	r3, [r7, #8]
 8004860:	440b      	add	r3, r1
 8004862:	781b      	ldrb	r3, [r3, #0]
 8004864:	4619      	mov	r1, r3
 8004866:	68fb      	ldr	r3, [r7, #12]
 8004868:	440b      	add	r3, r1
 800486a:	4619      	mov	r1, r3
 800486c:	687b      	ldr	r3, [r7, #4]
 800486e:	4313      	orrs	r3, r2
 8004870:	600b      	str	r3, [r1, #0]
}
 8004872:	bf00      	nop
 8004874:	3714      	adds	r7, #20
 8004876:	46bd      	mov	sp, r7
 8004878:	f85d 7b04 	ldr.w	r7, [sp], #4
 800487c:	4770      	bx	lr
 800487e:	bf00      	nop
 8004880:	0800881c 	.word	0x0800881c

08004884 <LL_DMA_SetStreamPriorityLevel>:
  *         @arg @ref LL_DMA_PRIORITY_HIGH
  *         @arg @ref LL_DMA_PRIORITY_VERYHIGH
  * @retval None
  */
__STATIC_INLINE void LL_DMA_SetStreamPriorityLevel(DMA_TypeDef *DMAx, uint32_t Stream, uint32_t  Priority)
{
 8004884:	b480      	push	{r7}
 8004886:	b085      	sub	sp, #20
 8004888:	af00      	add	r7, sp, #0
 800488a:	60f8      	str	r0, [r7, #12]
 800488c:	60b9      	str	r1, [r7, #8]
 800488e:	607a      	str	r2, [r7, #4]
  MODIFY_REG(((DMA_Stream_TypeDef*)((uint32_t)((uint32_t)DMAx + STREAM_OFFSET_TAB[Stream])))->CR, DMA_SxCR_PL, Priority);
 8004890:	4a0d      	ldr	r2, [pc, #52]	; (80048c8 <LL_DMA_SetStreamPriorityLevel+0x44>)
 8004892:	68bb      	ldr	r3, [r7, #8]
 8004894:	4413      	add	r3, r2
 8004896:	781b      	ldrb	r3, [r3, #0]
 8004898:	461a      	mov	r2, r3
 800489a:	68fb      	ldr	r3, [r7, #12]
 800489c:	4413      	add	r3, r2
 800489e:	681b      	ldr	r3, [r3, #0]
 80048a0:	f423 3240 	bic.w	r2, r3, #196608	; 0x30000
 80048a4:	4908      	ldr	r1, [pc, #32]	; (80048c8 <LL_DMA_SetStreamPriorityLevel+0x44>)
 80048a6:	68bb      	ldr	r3, [r7, #8]
 80048a8:	440b      	add	r3, r1
 80048aa:	781b      	ldrb	r3, [r3, #0]
 80048ac:	4619      	mov	r1, r3
 80048ae:	68fb      	ldr	r3, [r7, #12]
 80048b0:	440b      	add	r3, r1
 80048b2:	4619      	mov	r1, r3
 80048b4:	687b      	ldr	r3, [r7, #4]
 80048b6:	4313      	orrs	r3, r2
 80048b8:	600b      	str	r3, [r1, #0]
}
 80048ba:	bf00      	nop
 80048bc:	3714      	adds	r7, #20
 80048be:	46bd      	mov	sp, r7
 80048c0:	f85d 7b04 	ldr.w	r7, [sp], #4
 80048c4:	4770      	bx	lr
 80048c6:	bf00      	nop
 80048c8:	0800881c 	.word	0x0800881c

080048cc <LL_DMA_SetDataLength>:
  *         @arg @ref LL_DMA_STREAM_7
  * @param  NbData Between 0 to 0xFFFFFFFF
  * @retval None
  */
__STATIC_INLINE void LL_DMA_SetDataLength(DMA_TypeDef* DMAx, uint32_t Stream, uint32_t NbData)
{
 80048cc:	b480      	push	{r7}
 80048ce:	b085      	sub	sp, #20
 80048d0:	af00      	add	r7, sp, #0
 80048d2:	60f8      	str	r0, [r7, #12]
 80048d4:	60b9      	str	r1, [r7, #8]
 80048d6:	607a      	str	r2, [r7, #4]
  MODIFY_REG(((DMA_Stream_TypeDef*)((uint32_t)((uint32_t)DMAx + STREAM_OFFSET_TAB[Stream])))->NDTR, DMA_SxNDT, NbData);
 80048d8:	4a0d      	ldr	r2, [pc, #52]	; (8004910 <LL_DMA_SetDataLength+0x44>)
 80048da:	68bb      	ldr	r3, [r7, #8]
 80048dc:	4413      	add	r3, r2
 80048de:	781b      	ldrb	r3, [r3, #0]
 80048e0:	461a      	mov	r2, r3
 80048e2:	68fb      	ldr	r3, [r7, #12]
 80048e4:	4413      	add	r3, r2
 80048e6:	685b      	ldr	r3, [r3, #4]
 80048e8:	0c1b      	lsrs	r3, r3, #16
 80048ea:	041b      	lsls	r3, r3, #16
 80048ec:	4908      	ldr	r1, [pc, #32]	; (8004910 <LL_DMA_SetDataLength+0x44>)
 80048ee:	68ba      	ldr	r2, [r7, #8]
 80048f0:	440a      	add	r2, r1
 80048f2:	7812      	ldrb	r2, [r2, #0]
 80048f4:	4611      	mov	r1, r2
 80048f6:	68fa      	ldr	r2, [r7, #12]
 80048f8:	440a      	add	r2, r1
 80048fa:	4611      	mov	r1, r2
 80048fc:	687a      	ldr	r2, [r7, #4]
 80048fe:	4313      	orrs	r3, r2
 8004900:	604b      	str	r3, [r1, #4]
}
 8004902:	bf00      	nop
 8004904:	3714      	adds	r7, #20
 8004906:	46bd      	mov	sp, r7
 8004908:	f85d 7b04 	ldr.w	r7, [sp], #4
 800490c:	4770      	bx	lr
 800490e:	bf00      	nop
 8004910:	0800881c 	.word	0x0800881c

08004914 <LL_DMA_SetChannelSelection>:
  *         @arg @ref LL_DMA_CHANNEL_6
  *         @arg @ref LL_DMA_CHANNEL_7
  * @retval None
  */
__STATIC_INLINE void LL_DMA_SetChannelSelection(DMA_TypeDef *DMAx, uint32_t Stream, uint32_t Channel)
{
 8004914:	b480      	push	{r7}
 8004916:	b085      	sub	sp, #20
 8004918:	af00      	add	r7, sp, #0
 800491a:	60f8      	str	r0, [r7, #12]
 800491c:	60b9      	str	r1, [r7, #8]
 800491e:	607a      	str	r2, [r7, #4]
  MODIFY_REG(((DMA_Stream_TypeDef*)((uint32_t)((uint32_t)DMAx + STREAM_OFFSET_TAB[Stream])))->CR, DMA_SxCR_CHSEL, Channel);
 8004920:	4a0d      	ldr	r2, [pc, #52]	; (8004958 <LL_DMA_SetChannelSelection+0x44>)
 8004922:	68bb      	ldr	r3, [r7, #8]
 8004924:	4413      	add	r3, r2
 8004926:	781b      	ldrb	r3, [r3, #0]
 8004928:	461a      	mov	r2, r3
 800492a:	68fb      	ldr	r3, [r7, #12]
 800492c:	4413      	add	r3, r2
 800492e:	681b      	ldr	r3, [r3, #0]
 8004930:	f023 6260 	bic.w	r2, r3, #234881024	; 0xe000000
 8004934:	4908      	ldr	r1, [pc, #32]	; (8004958 <LL_DMA_SetChannelSelection+0x44>)
 8004936:	68bb      	ldr	r3, [r7, #8]
 8004938:	440b      	add	r3, r1
 800493a:	781b      	ldrb	r3, [r3, #0]
 800493c:	4619      	mov	r1, r3
 800493e:	68fb      	ldr	r3, [r7, #12]
 8004940:	440b      	add	r3, r1
 8004942:	4619      	mov	r1, r3
 8004944:	687b      	ldr	r3, [r7, #4]
 8004946:	4313      	orrs	r3, r2
 8004948:	600b      	str	r3, [r1, #0]
}
 800494a:	bf00      	nop
 800494c:	3714      	adds	r7, #20
 800494e:	46bd      	mov	sp, r7
 8004950:	f85d 7b04 	ldr.w	r7, [sp], #4
 8004954:	4770      	bx	lr
 8004956:	bf00      	nop
 8004958:	0800881c 	.word	0x0800881c

0800495c <LL_DMA_DisableFifoMode>:
  *         @arg @ref LL_DMA_STREAM_6
  *         @arg @ref LL_DMA_STREAM_7
  * @retval None
  */
__STATIC_INLINE void LL_DMA_DisableFifoMode(DMA_TypeDef *DMAx, uint32_t Stream)
{
 800495c:	b480      	push	{r7}
 800495e:	b083      	sub	sp, #12
 8004960:	af00      	add	r7, sp, #0
 8004962:	6078      	str	r0, [r7, #4]
 8004964:	6039      	str	r1, [r7, #0]
  CLEAR_BIT(((DMA_Stream_TypeDef *)((uint32_t)((uint32_t)DMAx + STREAM_OFFSET_TAB[Stream])))->FCR, DMA_SxFCR_DMDIS);
 8004966:	4a0c      	ldr	r2, [pc, #48]	; (8004998 <LL_DMA_DisableFifoMode+0x3c>)
 8004968:	683b      	ldr	r3, [r7, #0]
 800496a:	4413      	add	r3, r2
 800496c:	781b      	ldrb	r3, [r3, #0]
 800496e:	461a      	mov	r2, r3
 8004970:	687b      	ldr	r3, [r7, #4]
 8004972:	4413      	add	r3, r2
 8004974:	695b      	ldr	r3, [r3, #20]
 8004976:	4908      	ldr	r1, [pc, #32]	; (8004998 <LL_DMA_DisableFifoMode+0x3c>)
 8004978:	683a      	ldr	r2, [r7, #0]
 800497a:	440a      	add	r2, r1
 800497c:	7812      	ldrb	r2, [r2, #0]
 800497e:	4611      	mov	r1, r2
 8004980:	687a      	ldr	r2, [r7, #4]
 8004982:	440a      	add	r2, r1
 8004984:	f023 0304 	bic.w	r3, r3, #4
 8004988:	6153      	str	r3, [r2, #20]
}
 800498a:	bf00      	nop
 800498c:	370c      	adds	r7, #12
 800498e:	46bd      	mov	sp, r7
 8004990:	f85d 7b04 	ldr.w	r7, [sp], #4
 8004994:	4770      	bx	lr
 8004996:	bf00      	nop
 8004998:	0800881c 	.word	0x0800881c

0800499c <LL_DMA_SetMemoryAddress>:
  *         @arg @ref LL_DMA_STREAM_7
  * @param  MemoryAddress Between 0 to 0xFFFFFFFF
  * @retval None
  */
__STATIC_INLINE void LL_DMA_SetMemoryAddress(DMA_TypeDef* DMAx, uint32_t Stream, uint32_t MemoryAddress)
{
 800499c:	b480      	push	{r7}
 800499e:	b085      	sub	sp, #20
 80049a0:	af00      	add	r7, sp, #0
 80049a2:	60f8      	str	r0, [r7, #12]
 80049a4:	60b9      	str	r1, [r7, #8]
 80049a6:	607a      	str	r2, [r7, #4]
  WRITE_REG(((DMA_Stream_TypeDef*)((uint32_t)((uint32_t)DMAx + STREAM_OFFSET_TAB[Stream])))->M0AR, MemoryAddress);
 80049a8:	4a07      	ldr	r2, [pc, #28]	; (80049c8 <LL_DMA_SetMemoryAddress+0x2c>)
 80049aa:	68bb      	ldr	r3, [r7, #8]
 80049ac:	4413      	add	r3, r2
 80049ae:	781b      	ldrb	r3, [r3, #0]
 80049b0:	461a      	mov	r2, r3
 80049b2:	68fb      	ldr	r3, [r7, #12]
 80049b4:	4413      	add	r3, r2
 80049b6:	461a      	mov	r2, r3
 80049b8:	687b      	ldr	r3, [r7, #4]
 80049ba:	60d3      	str	r3, [r2, #12]
}
 80049bc:	bf00      	nop
 80049be:	3714      	adds	r7, #20
 80049c0:	46bd      	mov	sp, r7
 80049c2:	f85d 7b04 	ldr.w	r7, [sp], #4
 80049c6:	4770      	bx	lr
 80049c8:	0800881c 	.word	0x0800881c

080049cc <LL_DMA_SetPeriphAddress>:
  *         @arg @ref LL_DMA_STREAM_7
  * @param  PeriphAddress Between 0 to 0xFFFFFFFF
  * @retval None
  */
__STATIC_INLINE void LL_DMA_SetPeriphAddress(DMA_TypeDef* DMAx, uint32_t Stream, uint32_t PeriphAddress)
{
 80049cc:	b480      	push	{r7}
 80049ce:	b085      	sub	sp, #20
 80049d0:	af00      	add	r7, sp, #0
 80049d2:	60f8      	str	r0, [r7, #12]
 80049d4:	60b9      	str	r1, [r7, #8]
 80049d6:	607a      	str	r2, [r7, #4]
  WRITE_REG(((DMA_Stream_TypeDef*)((uint32_t)((uint32_t)DMAx + STREAM_OFFSET_TAB[Stream])))->PAR, PeriphAddress);
 80049d8:	4a07      	ldr	r2, [pc, #28]	; (80049f8 <LL_DMA_SetPeriphAddress+0x2c>)
 80049da:	68bb      	ldr	r3, [r7, #8]
 80049dc:	4413      	add	r3, r2
 80049de:	781b      	ldrb	r3, [r3, #0]
 80049e0:	461a      	mov	r2, r3
 80049e2:	68fb      	ldr	r3, [r7, #12]
 80049e4:	4413      	add	r3, r2
 80049e6:	461a      	mov	r2, r3
 80049e8:	687b      	ldr	r3, [r7, #4]
 80049ea:	6093      	str	r3, [r2, #8]
}
 80049ec:	bf00      	nop
 80049ee:	3714      	adds	r7, #20
 80049f0:	46bd      	mov	sp, r7
 80049f2:	f85d 7b04 	ldr.w	r7, [sp], #4
 80049f6:	4770      	bx	lr
 80049f8:	0800881c 	.word	0x0800881c

080049fc <LL_DMA_ClearFlag_HT6>:
  * @rmtoll HIFCR  CHTIF6    LL_DMA_ClearFlag_HT6
  * @param  DMAx DMAx Instance
  * @retval None
  */
__STATIC_INLINE void LL_DMA_ClearFlag_HT6(DMA_TypeDef *DMAx)
{
 80049fc:	b480      	push	{r7}
 80049fe:	b083      	sub	sp, #12
 8004a00:	af00      	add	r7, sp, #0
 8004a02:	6078      	str	r0, [r7, #4]
  WRITE_REG(DMAx->HIFCR , DMA_HIFCR_CHTIF6);
 8004a04:	687b      	ldr	r3, [r7, #4]
 8004a06:	f44f 1280 	mov.w	r2, #1048576	; 0x100000
 8004a0a:	60da      	str	r2, [r3, #12]
}
 8004a0c:	bf00      	nop
 8004a0e:	370c      	adds	r7, #12
 8004a10:	46bd      	mov	sp, r7
 8004a12:	f85d 7b04 	ldr.w	r7, [sp], #4
 8004a16:	4770      	bx	lr

08004a18 <LL_DMA_ClearFlag_TC6>:
  * @rmtoll HIFCR  CTCIF6    LL_DMA_ClearFlag_TC6
  * @param  DMAx DMAx Instance
  * @retval None
  */
__STATIC_INLINE void LL_DMA_ClearFlag_TC6(DMA_TypeDef *DMAx)
{
 8004a18:	b480      	push	{r7}
 8004a1a:	b083      	sub	sp, #12
 8004a1c:	af00      	add	r7, sp, #0
 8004a1e:	6078      	str	r0, [r7, #4]
  WRITE_REG(DMAx->HIFCR , DMA_HIFCR_CTCIF6);
 8004a20:	687b      	ldr	r3, [r7, #4]
 8004a22:	f44f 1200 	mov.w	r2, #2097152	; 0x200000
 8004a26:	60da      	str	r2, [r3, #12]
}
 8004a28:	bf00      	nop
 8004a2a:	370c      	adds	r7, #12
 8004a2c:	46bd      	mov	sp, r7
 8004a2e:	f85d 7b04 	ldr.w	r7, [sp], #4
 8004a32:	4770      	bx	lr

08004a34 <LL_DMA_EnableIT_HT>:
  *         @arg @ref LL_DMA_STREAM_6
  *         @arg @ref LL_DMA_STREAM_7
  * @retval None
  */
__STATIC_INLINE void LL_DMA_EnableIT_HT(DMA_TypeDef *DMAx, uint32_t Stream)
{
 8004a34:	b480      	push	{r7}
 8004a36:	b083      	sub	sp, #12
 8004a38:	af00      	add	r7, sp, #0
 8004a3a:	6078      	str	r0, [r7, #4]
 8004a3c:	6039      	str	r1, [r7, #0]
  SET_BIT(((DMA_Stream_TypeDef *)((uint32_t)((uint32_t)DMAx + STREAM_OFFSET_TAB[Stream])))->CR, DMA_SxCR_HTIE);
 8004a3e:	4a0c      	ldr	r2, [pc, #48]	; (8004a70 <LL_DMA_EnableIT_HT+0x3c>)
 8004a40:	683b      	ldr	r3, [r7, #0]
 8004a42:	4413      	add	r3, r2
 8004a44:	781b      	ldrb	r3, [r3, #0]
 8004a46:	461a      	mov	r2, r3
 8004a48:	687b      	ldr	r3, [r7, #4]
 8004a4a:	4413      	add	r3, r2
 8004a4c:	681b      	ldr	r3, [r3, #0]
 8004a4e:	4908      	ldr	r1, [pc, #32]	; (8004a70 <LL_DMA_EnableIT_HT+0x3c>)
 8004a50:	683a      	ldr	r2, [r7, #0]
 8004a52:	440a      	add	r2, r1
 8004a54:	7812      	ldrb	r2, [r2, #0]
 8004a56:	4611      	mov	r1, r2
 8004a58:	687a      	ldr	r2, [r7, #4]
 8004a5a:	440a      	add	r2, r1
 8004a5c:	f043 0308 	orr.w	r3, r3, #8
 8004a60:	6013      	str	r3, [r2, #0]
}
 8004a62:	bf00      	nop
 8004a64:	370c      	adds	r7, #12
 8004a66:	46bd      	mov	sp, r7
 8004a68:	f85d 7b04 	ldr.w	r7, [sp], #4
 8004a6c:	4770      	bx	lr
 8004a6e:	bf00      	nop
 8004a70:	0800881c 	.word	0x0800881c

08004a74 <LL_DMA_EnableIT_TC>:
  *         @arg @ref LL_DMA_STREAM_6
  *         @arg @ref LL_DMA_STREAM_7
  * @retval None
  */
__STATIC_INLINE void LL_DMA_EnableIT_TC(DMA_TypeDef *DMAx, uint32_t Stream)
{
 8004a74:	b480      	push	{r7}
 8004a76:	b083      	sub	sp, #12
 8004a78:	af00      	add	r7, sp, #0
 8004a7a:	6078      	str	r0, [r7, #4]
 8004a7c:	6039      	str	r1, [r7, #0]
  SET_BIT(((DMA_Stream_TypeDef *)((uint32_t)((uint32_t)DMAx + STREAM_OFFSET_TAB[Stream])))->CR, DMA_SxCR_TCIE);
 8004a7e:	4a0c      	ldr	r2, [pc, #48]	; (8004ab0 <LL_DMA_EnableIT_TC+0x3c>)
 8004a80:	683b      	ldr	r3, [r7, #0]
 8004a82:	4413      	add	r3, r2
 8004a84:	781b      	ldrb	r3, [r3, #0]
 8004a86:	461a      	mov	r2, r3
 8004a88:	687b      	ldr	r3, [r7, #4]
 8004a8a:	4413      	add	r3, r2
 8004a8c:	681b      	ldr	r3, [r3, #0]
 8004a8e:	4908      	ldr	r1, [pc, #32]	; (8004ab0 <LL_DMA_EnableIT_TC+0x3c>)
 8004a90:	683a      	ldr	r2, [r7, #0]
 8004a92:	440a      	add	r2, r1
 8004a94:	7812      	ldrb	r2, [r2, #0]
 8004a96:	4611      	mov	r1, r2
 8004a98:	687a      	ldr	r2, [r7, #4]
 8004a9a:	440a      	add	r2, r1
 8004a9c:	f043 0310 	orr.w	r3, r3, #16
 8004aa0:	6013      	str	r3, [r2, #0]
}
 8004aa2:	bf00      	nop
 8004aa4:	370c      	adds	r7, #12
 8004aa6:	46bd      	mov	sp, r7
 8004aa8:	f85d 7b04 	ldr.w	r7, [sp], #4
 8004aac:	4770      	bx	lr
 8004aae:	bf00      	nop
 8004ab0:	0800881c 	.word	0x0800881c

08004ab4 <LL_RCC_HSE_Enable>:
  * @brief  Enable HSE crystal oscillator (HSE ON)
  * @rmtoll CR           HSEON         LL_RCC_HSE_Enable
  * @retval None
  */
__STATIC_INLINE void LL_RCC_HSE_Enable(void)
{
 8004ab4:	b480      	push	{r7}
 8004ab6:	af00      	add	r7, sp, #0
  SET_BIT(RCC->CR, RCC_CR_HSEON);
 8004ab8:	4b05      	ldr	r3, [pc, #20]	; (8004ad0 <LL_RCC_HSE_Enable+0x1c>)
 8004aba:	681b      	ldr	r3, [r3, #0]
 8004abc:	4a04      	ldr	r2, [pc, #16]	; (8004ad0 <LL_RCC_HSE_Enable+0x1c>)
 8004abe:	f443 3380 	orr.w	r3, r3, #65536	; 0x10000
 8004ac2:	6013      	str	r3, [r2, #0]
}
 8004ac4:	bf00      	nop
 8004ac6:	46bd      	mov	sp, r7
 8004ac8:	f85d 7b04 	ldr.w	r7, [sp], #4
 8004acc:	4770      	bx	lr
 8004ace:	bf00      	nop
 8004ad0:	40023800 	.word	0x40023800

08004ad4 <LL_RCC_HSE_IsReady>:
  * @brief  Check if HSE oscillator Ready
  * @rmtoll CR           HSERDY        LL_RCC_HSE_IsReady
  * @retval State of bit (1 or 0).
  */
__STATIC_INLINE uint32_t LL_RCC_HSE_IsReady(void)
{
 8004ad4:	b480      	push	{r7}
 8004ad6:	af00      	add	r7, sp, #0
  return (READ_BIT(RCC->CR, RCC_CR_HSERDY) == (RCC_CR_HSERDY));
 8004ad8:	4b07      	ldr	r3, [pc, #28]	; (8004af8 <LL_RCC_HSE_IsReady+0x24>)
 8004ada:	681b      	ldr	r3, [r3, #0]
 8004adc:	f403 3300 	and.w	r3, r3, #131072	; 0x20000
 8004ae0:	f5b3 3f00 	cmp.w	r3, #131072	; 0x20000
 8004ae4:	bf0c      	ite	eq
 8004ae6:	2301      	moveq	r3, #1
 8004ae8:	2300      	movne	r3, #0
 8004aea:	b2db      	uxtb	r3, r3
}
 8004aec:	4618      	mov	r0, r3
 8004aee:	46bd      	mov	sp, r7
 8004af0:	f85d 7b04 	ldr.w	r7, [sp], #4
 8004af4:	4770      	bx	lr
 8004af6:	bf00      	nop
 8004af8:	40023800 	.word	0x40023800

08004afc <LL_RCC_SetSysClkSource>:
  *
  *         (*) value not defined in all devices.
  * @retval None
  */
__STATIC_INLINE void LL_RCC_SetSysClkSource(uint32_t Source)
{
 8004afc:	b480      	push	{r7}
 8004afe:	b083      	sub	sp, #12
 8004b00:	af00      	add	r7, sp, #0
 8004b02:	6078      	str	r0, [r7, #4]
  MODIFY_REG(RCC->CFGR, RCC_CFGR_SW, Source);
 8004b04:	4b06      	ldr	r3, [pc, #24]	; (8004b20 <LL_RCC_SetSysClkSource+0x24>)
 8004b06:	689b      	ldr	r3, [r3, #8]
 8004b08:	f023 0203 	bic.w	r2, r3, #3
 8004b0c:	4904      	ldr	r1, [pc, #16]	; (8004b20 <LL_RCC_SetSysClkSource+0x24>)
 8004b0e:	687b      	ldr	r3, [r7, #4]
 8004b10:	4313      	orrs	r3, r2
 8004b12:	608b      	str	r3, [r1, #8]
}
 8004b14:	bf00      	nop
 8004b16:	370c      	adds	r7, #12
 8004b18:	46bd      	mov	sp, r7
 8004b1a:	f85d 7b04 	ldr.w	r7, [sp], #4
 8004b1e:	4770      	bx	lr
 8004b20:	40023800 	.word	0x40023800

08004b24 <LL_RCC_GetSysClkSource>:
  *         @arg @ref LL_RCC_SYS_CLKSOURCE_STATUS_PLLR (*)
  *
  *         (*) value not defined in all devices.
  */
__STATIC_INLINE uint32_t LL_RCC_GetSysClkSource(void)
{
 8004b24:	b480      	push	{r7}
 8004b26:	af00      	add	r7, sp, #0
  return (uint32_t)(READ_BIT(RCC->CFGR, RCC_CFGR_SWS));
 8004b28:	4b04      	ldr	r3, [pc, #16]	; (8004b3c <LL_RCC_GetSysClkSource+0x18>)
 8004b2a:	689b      	ldr	r3, [r3, #8]
 8004b2c:	f003 030c 	and.w	r3, r3, #12
}
 8004b30:	4618      	mov	r0, r3
 8004b32:	46bd      	mov	sp, r7
 8004b34:	f85d 7b04 	ldr.w	r7, [sp], #4
 8004b38:	4770      	bx	lr
 8004b3a:	bf00      	nop
 8004b3c:	40023800 	.word	0x40023800

08004b40 <LL_RCC_SetAHBPrescaler>:
  *         @arg @ref LL_RCC_SYSCLK_DIV_256
  *         @arg @ref LL_RCC_SYSCLK_DIV_512
  * @retval None
  */
__STATIC_INLINE void LL_RCC_SetAHBPrescaler(uint32_t Prescaler)
{
 8004b40:	b480      	push	{r7}
 8004b42:	b083      	sub	sp, #12
 8004b44:	af00      	add	r7, sp, #0
 8004b46:	6078      	str	r0, [r7, #4]
  MODIFY_REG(RCC->CFGR, RCC_CFGR_HPRE, Prescaler);
 8004b48:	4b06      	ldr	r3, [pc, #24]	; (8004b64 <LL_RCC_SetAHBPrescaler+0x24>)
 8004b4a:	689b      	ldr	r3, [r3, #8]
 8004b4c:	f023 02f0 	bic.w	r2, r3, #240	; 0xf0
 8004b50:	4904      	ldr	r1, [pc, #16]	; (8004b64 <LL_RCC_SetAHBPrescaler+0x24>)
 8004b52:	687b      	ldr	r3, [r7, #4]
 8004b54:	4313      	orrs	r3, r2
 8004b56:	608b      	str	r3, [r1, #8]
}
 8004b58:	bf00      	nop
 8004b5a:	370c      	adds	r7, #12
 8004b5c:	46bd      	mov	sp, r7
 8004b5e:	f85d 7b04 	ldr.w	r7, [sp], #4
 8004b62:	4770      	bx	lr
 8004b64:	40023800 	.word	0x40023800

08004b68 <LL_RCC_SetAPB1Prescaler>:
  *         @arg @ref LL_RCC_APB1_DIV_8
  *         @arg @ref LL_RCC_APB1_DIV_16
  * @retval None
  */
__STATIC_INLINE void LL_RCC_SetAPB1Prescaler(uint32_t Prescaler)
{
 8004b68:	b480      	push	{r7}
 8004b6a:	b083      	sub	sp, #12
 8004b6c:	af00      	add	r7, sp, #0
 8004b6e:	6078      	str	r0, [r7, #4]
  MODIFY_REG(RCC->CFGR, RCC_CFGR_PPRE1, Prescaler);
 8004b70:	4b06      	ldr	r3, [pc, #24]	; (8004b8c <LL_RCC_SetAPB1Prescaler+0x24>)
 8004b72:	689b      	ldr	r3, [r3, #8]
 8004b74:	f423 52e0 	bic.w	r2, r3, #7168	; 0x1c00
 8004b78:	4904      	ldr	r1, [pc, #16]	; (8004b8c <LL_RCC_SetAPB1Prescaler+0x24>)
 8004b7a:	687b      	ldr	r3, [r7, #4]
 8004b7c:	4313      	orrs	r3, r2
 8004b7e:	608b      	str	r3, [r1, #8]
}
 8004b80:	bf00      	nop
 8004b82:	370c      	adds	r7, #12
 8004b84:	46bd      	mov	sp, r7
 8004b86:	f85d 7b04 	ldr.w	r7, [sp], #4
 8004b8a:	4770      	bx	lr
 8004b8c:	40023800 	.word	0x40023800

08004b90 <LL_RCC_SetAPB2Prescaler>:
  *         @arg @ref LL_RCC_APB2_DIV_8
  *         @arg @ref LL_RCC_APB2_DIV_16
  * @retval None
  */
__STATIC_INLINE void LL_RCC_SetAPB2Prescaler(uint32_t Prescaler)
{
 8004b90:	b480      	push	{r7}
 8004b92:	b083      	sub	sp, #12
 8004b94:	af00      	add	r7, sp, #0
 8004b96:	6078      	str	r0, [r7, #4]
  MODIFY_REG(RCC->CFGR, RCC_CFGR_PPRE2, Prescaler);
 8004b98:	4b06      	ldr	r3, [pc, #24]	; (8004bb4 <LL_RCC_SetAPB2Prescaler+0x24>)
 8004b9a:	689b      	ldr	r3, [r3, #8]
 8004b9c:	f423 4260 	bic.w	r2, r3, #57344	; 0xe000
 8004ba0:	4904      	ldr	r1, [pc, #16]	; (8004bb4 <LL_RCC_SetAPB2Prescaler+0x24>)
 8004ba2:	687b      	ldr	r3, [r7, #4]
 8004ba4:	4313      	orrs	r3, r2
 8004ba6:	608b      	str	r3, [r1, #8]
}
 8004ba8:	bf00      	nop
 8004baa:	370c      	adds	r7, #12
 8004bac:	46bd      	mov	sp, r7
 8004bae:	f85d 7b04 	ldr.w	r7, [sp], #4
 8004bb2:	4770      	bx	lr
 8004bb4:	40023800 	.word	0x40023800

08004bb8 <LL_RCC_SetTIMPrescaler>:
  *         @arg @ref LL_RCC_TIM_PRESCALER_TWICE
  *         @arg @ref LL_RCC_TIM_PRESCALER_FOUR_TIMES
  * @retval None
  */
__STATIC_INLINE void LL_RCC_SetTIMPrescaler(uint32_t Prescaler)
{
 8004bb8:	b480      	push	{r7}
 8004bba:	b083      	sub	sp, #12
 8004bbc:	af00      	add	r7, sp, #0
 8004bbe:	6078      	str	r0, [r7, #4]
  MODIFY_REG(RCC->DCKCFGR, RCC_DCKCFGR_TIMPRE, Prescaler);
 8004bc0:	4b07      	ldr	r3, [pc, #28]	; (8004be0 <LL_RCC_SetTIMPrescaler+0x28>)
 8004bc2:	f8d3 308c 	ldr.w	r3, [r3, #140]	; 0x8c
 8004bc6:	f023 7280 	bic.w	r2, r3, #16777216	; 0x1000000
 8004bca:	4905      	ldr	r1, [pc, #20]	; (8004be0 <LL_RCC_SetTIMPrescaler+0x28>)
 8004bcc:	687b      	ldr	r3, [r7, #4]
 8004bce:	4313      	orrs	r3, r2
 8004bd0:	f8c1 308c 	str.w	r3, [r1, #140]	; 0x8c
}
 8004bd4:	bf00      	nop
 8004bd6:	370c      	adds	r7, #12
 8004bd8:	46bd      	mov	sp, r7
 8004bda:	f85d 7b04 	ldr.w	r7, [sp], #4
 8004bde:	4770      	bx	lr
 8004be0:	40023800 	.word	0x40023800

08004be4 <LL_RCC_PLL_Enable>:
  * @brief  Enable PLL
  * @rmtoll CR           PLLON         LL_RCC_PLL_Enable
  * @retval None
  */
__STATIC_INLINE void LL_RCC_PLL_Enable(void)
{
 8004be4:	b480      	push	{r7}
 8004be6:	af00      	add	r7, sp, #0
  SET_BIT(RCC->CR, RCC_CR_PLLON);
 8004be8:	4b05      	ldr	r3, [pc, #20]	; (8004c00 <LL_RCC_PLL_Enable+0x1c>)
 8004bea:	681b      	ldr	r3, [r3, #0]
 8004bec:	4a04      	ldr	r2, [pc, #16]	; (8004c00 <LL_RCC_PLL_Enable+0x1c>)
 8004bee:	f043 7380 	orr.w	r3, r3, #16777216	; 0x1000000
 8004bf2:	6013      	str	r3, [r2, #0]
}
 8004bf4:	bf00      	nop
 8004bf6:	46bd      	mov	sp, r7
 8004bf8:	f85d 7b04 	ldr.w	r7, [sp], #4
 8004bfc:	4770      	bx	lr
 8004bfe:	bf00      	nop
 8004c00:	40023800 	.word	0x40023800

08004c04 <LL_RCC_PLL_IsReady>:
  * @brief  Check if PLL Ready
  * @rmtoll CR           PLLRDY        LL_RCC_PLL_IsReady
  * @retval State of bit (1 or 0).
  */
__STATIC_INLINE uint32_t LL_RCC_PLL_IsReady(void)
{
 8004c04:	b480      	push	{r7}
 8004c06:	af00      	add	r7, sp, #0
  return (READ_BIT(RCC->CR, RCC_CR_PLLRDY) == (RCC_CR_PLLRDY));
 8004c08:	4b07      	ldr	r3, [pc, #28]	; (8004c28 <LL_RCC_PLL_IsReady+0x24>)
 8004c0a:	681b      	ldr	r3, [r3, #0]
 8004c0c:	f003 7300 	and.w	r3, r3, #33554432	; 0x2000000
 8004c10:	f1b3 7f00 	cmp.w	r3, #33554432	; 0x2000000
 8004c14:	bf0c      	ite	eq
 8004c16:	2301      	moveq	r3, #1
 8004c18:	2300      	movne	r3, #0
 8004c1a:	b2db      	uxtb	r3, r3
}
 8004c1c:	4618      	mov	r0, r3
 8004c1e:	46bd      	mov	sp, r7
 8004c20:	f85d 7b04 	ldr.w	r7, [sp], #4
 8004c24:	4770      	bx	lr
 8004c26:	bf00      	nop
 8004c28:	40023800 	.word	0x40023800

08004c2c <LL_RCC_PLL_ConfigDomain_SYS>:
  *
  *         (*) value not defined in all devices.
  * @retval None
  */
__STATIC_INLINE void LL_RCC_PLL_ConfigDomain_SYS(uint32_t Source, uint32_t PLLM, uint32_t PLLN, uint32_t PLLP_R)
{
 8004c2c:	b480      	push	{r7}
 8004c2e:	b085      	sub	sp, #20
 8004c30:	af00      	add	r7, sp, #0
 8004c32:	60f8      	str	r0, [r7, #12]
 8004c34:	60b9      	str	r1, [r7, #8]
 8004c36:	607a      	str	r2, [r7, #4]
 8004c38:	603b      	str	r3, [r7, #0]
  MODIFY_REG(RCC->PLLCFGR, RCC_PLLCFGR_PLLSRC | RCC_PLLCFGR_PLLM | RCC_PLLCFGR_PLLN,
 8004c3a:	4b0d      	ldr	r3, [pc, #52]	; (8004c70 <LL_RCC_PLL_ConfigDomain_SYS+0x44>)
 8004c3c:	685a      	ldr	r2, [r3, #4]
 8004c3e:	4b0d      	ldr	r3, [pc, #52]	; (8004c74 <LL_RCC_PLL_ConfigDomain_SYS+0x48>)
 8004c40:	4013      	ands	r3, r2
 8004c42:	68f9      	ldr	r1, [r7, #12]
 8004c44:	68ba      	ldr	r2, [r7, #8]
 8004c46:	4311      	orrs	r1, r2
 8004c48:	687a      	ldr	r2, [r7, #4]
 8004c4a:	0192      	lsls	r2, r2, #6
 8004c4c:	430a      	orrs	r2, r1
 8004c4e:	4908      	ldr	r1, [pc, #32]	; (8004c70 <LL_RCC_PLL_ConfigDomain_SYS+0x44>)
 8004c50:	4313      	orrs	r3, r2
 8004c52:	604b      	str	r3, [r1, #4]
             Source | PLLM | PLLN << RCC_PLLCFGR_PLLN_Pos);
  MODIFY_REG(RCC->PLLCFGR, RCC_PLLCFGR_PLLP, PLLP_R);
 8004c54:	4b06      	ldr	r3, [pc, #24]	; (8004c70 <LL_RCC_PLL_ConfigDomain_SYS+0x44>)
 8004c56:	685b      	ldr	r3, [r3, #4]
 8004c58:	f423 3240 	bic.w	r2, r3, #196608	; 0x30000
 8004c5c:	4904      	ldr	r1, [pc, #16]	; (8004c70 <LL_RCC_PLL_ConfigDomain_SYS+0x44>)
 8004c5e:	683b      	ldr	r3, [r7, #0]
 8004c60:	4313      	orrs	r3, r2
 8004c62:	604b      	str	r3, [r1, #4]
#if defined(RCC_PLLR_SYSCLK_SUPPORT)
  MODIFY_REG(RCC->PLLCFGR, RCC_PLLCFGR_PLLR, PLLP_R);
#endif /* RCC_PLLR_SYSCLK_SUPPORT */
}
 8004c64:	bf00      	nop
 8004c66:	3714      	adds	r7, #20
 8004c68:	46bd      	mov	sp, r7
 8004c6a:	f85d 7b04 	ldr.w	r7, [sp], #4
 8004c6e:	4770      	bx	lr
 8004c70:	40023800 	.word	0x40023800
 8004c74:	ffbf8000 	.word	0xffbf8000

08004c78 <LL_AHB1_GRP1_EnableClock>:
  *
  *         (*) value not defined in all devices.
  * @retval None
*/
__STATIC_INLINE void LL_AHB1_GRP1_EnableClock(uint32_t Periphs)
{
 8004c78:	b480      	push	{r7}
 8004c7a:	b085      	sub	sp, #20
 8004c7c:	af00      	add	r7, sp, #0
 8004c7e:	6078      	str	r0, [r7, #4]
  __IO uint32_t tmpreg;
  SET_BIT(RCC->AHB1ENR, Periphs);
 8004c80:	4b08      	ldr	r3, [pc, #32]	; (8004ca4 <LL_AHB1_GRP1_EnableClock+0x2c>)
 8004c82:	6b1a      	ldr	r2, [r3, #48]	; 0x30
 8004c84:	4907      	ldr	r1, [pc, #28]	; (8004ca4 <LL_AHB1_GRP1_EnableClock+0x2c>)
 8004c86:	687b      	ldr	r3, [r7, #4]
 8004c88:	4313      	orrs	r3, r2
 8004c8a:	630b      	str	r3, [r1, #48]	; 0x30
  /* Delay after an RCC peripheral clock enabling */
  tmpreg = READ_BIT(RCC->AHB1ENR, Periphs);
 8004c8c:	4b05      	ldr	r3, [pc, #20]	; (8004ca4 <LL_AHB1_GRP1_EnableClock+0x2c>)
 8004c8e:	6b1a      	ldr	r2, [r3, #48]	; 0x30
 8004c90:	687b      	ldr	r3, [r7, #4]
 8004c92:	4013      	ands	r3, r2
 8004c94:	60fb      	str	r3, [r7, #12]
  (void)tmpreg;
 8004c96:	68fb      	ldr	r3, [r7, #12]
}
 8004c98:	bf00      	nop
 8004c9a:	3714      	adds	r7, #20
 8004c9c:	46bd      	mov	sp, r7
 8004c9e:	f85d 7b04 	ldr.w	r7, [sp], #4
 8004ca2:	4770      	bx	lr
 8004ca4:	40023800 	.word	0x40023800

08004ca8 <LL_APB1_GRP1_EnableClock>:
  *
  *         (*) value not defined in all devices.
  * @retval None
*/
__STATIC_INLINE void LL_APB1_GRP1_EnableClock(uint32_t Periphs)
{
 8004ca8:	b480      	push	{r7}
 8004caa:	b085      	sub	sp, #20
 8004cac:	af00      	add	r7, sp, #0
 8004cae:	6078      	str	r0, [r7, #4]
  __IO uint32_t tmpreg;
  SET_BIT(RCC->APB1ENR, Periphs);
 8004cb0:	4b08      	ldr	r3, [pc, #32]	; (8004cd4 <LL_APB1_GRP1_EnableClock+0x2c>)
 8004cb2:	6c1a      	ldr	r2, [r3, #64]	; 0x40
 8004cb4:	4907      	ldr	r1, [pc, #28]	; (8004cd4 <LL_APB1_GRP1_EnableClock+0x2c>)
 8004cb6:	687b      	ldr	r3, [r7, #4]
 8004cb8:	4313      	orrs	r3, r2
 8004cba:	640b      	str	r3, [r1, #64]	; 0x40
  /* Delay after an RCC peripheral clock enabling */
  tmpreg = READ_BIT(RCC->APB1ENR, Periphs);
 8004cbc:	4b05      	ldr	r3, [pc, #20]	; (8004cd4 <LL_APB1_GRP1_EnableClock+0x2c>)
 8004cbe:	6c1a      	ldr	r2, [r3, #64]	; 0x40
 8004cc0:	687b      	ldr	r3, [r7, #4]
 8004cc2:	4013      	ands	r3, r2
 8004cc4:	60fb      	str	r3, [r7, #12]
  (void)tmpreg;
 8004cc6:	68fb      	ldr	r3, [r7, #12]
}
 8004cc8:	bf00      	nop
 8004cca:	3714      	adds	r7, #20
 8004ccc:	46bd      	mov	sp, r7
 8004cce:	f85d 7b04 	ldr.w	r7, [sp], #4
 8004cd2:	4770      	bx	lr
 8004cd4:	40023800 	.word	0x40023800

08004cd8 <LL_APB2_GRP1_EnableClock>:
  *
  *         (*) value not defined in all devices.
  * @retval None
*/
__STATIC_INLINE void LL_APB2_GRP1_EnableClock(uint32_t Periphs)
{
 8004cd8:	b480      	push	{r7}
 8004cda:	b085      	sub	sp, #20
 8004cdc:	af00      	add	r7, sp, #0
 8004cde:	6078      	str	r0, [r7, #4]
  __IO uint32_t tmpreg;
  SET_BIT(RCC->APB2ENR, Periphs);
 8004ce0:	4b08      	ldr	r3, [pc, #32]	; (8004d04 <LL_APB2_GRP1_EnableClock+0x2c>)
 8004ce2:	6c5a      	ldr	r2, [r3, #68]	; 0x44
 8004ce4:	4907      	ldr	r1, [pc, #28]	; (8004d04 <LL_APB2_GRP1_EnableClock+0x2c>)
 8004ce6:	687b      	ldr	r3, [r7, #4]
 8004ce8:	4313      	orrs	r3, r2
 8004cea:	644b      	str	r3, [r1, #68]	; 0x44
  /* Delay after an RCC peripheral clock enabling */
  tmpreg = READ_BIT(RCC->APB2ENR, Periphs);
 8004cec:	4b05      	ldr	r3, [pc, #20]	; (8004d04 <LL_APB2_GRP1_EnableClock+0x2c>)
 8004cee:	6c5a      	ldr	r2, [r3, #68]	; 0x44
 8004cf0:	687b      	ldr	r3, [r7, #4]
 8004cf2:	4013      	ands	r3, r2
 8004cf4:	60fb      	str	r3, [r7, #12]
  (void)tmpreg;
 8004cf6:	68fb      	ldr	r3, [r7, #12]
}
 8004cf8:	bf00      	nop
 8004cfa:	3714      	adds	r7, #20
 8004cfc:	46bd      	mov	sp, r7
 8004cfe:	f85d 7b04 	ldr.w	r7, [sp], #4
 8004d02:	4770      	bx	lr
 8004d04:	40023800 	.word	0x40023800

08004d08 <LL_FLASH_SetLatency>:
  *         @arg @ref LL_FLASH_LATENCY_14
  *         @arg @ref LL_FLASH_LATENCY_15
  * @retval None
  */
__STATIC_INLINE void LL_FLASH_SetLatency(uint32_t Latency)
{
 8004d08:	b480      	push	{r7}
 8004d0a:	b083      	sub	sp, #12
 8004d0c:	af00      	add	r7, sp, #0
 8004d0e:	6078      	str	r0, [r7, #4]
  MODIFY_REG(FLASH->ACR, FLASH_ACR_LATENCY, Latency);
 8004d10:	4b06      	ldr	r3, [pc, #24]	; (8004d2c <LL_FLASH_SetLatency+0x24>)
 8004d12:	681b      	ldr	r3, [r3, #0]
 8004d14:	f023 0207 	bic.w	r2, r3, #7
 8004d18:	4904      	ldr	r1, [pc, #16]	; (8004d2c <LL_FLASH_SetLatency+0x24>)
 8004d1a:	687b      	ldr	r3, [r7, #4]
 8004d1c:	4313      	orrs	r3, r2
 8004d1e:	600b      	str	r3, [r1, #0]
}
 8004d20:	bf00      	nop
 8004d22:	370c      	adds	r7, #12
 8004d24:	46bd      	mov	sp, r7
 8004d26:	f85d 7b04 	ldr.w	r7, [sp], #4
 8004d2a:	4770      	bx	lr
 8004d2c:	40023c00 	.word	0x40023c00

08004d30 <LL_FLASH_GetLatency>:
  *         @arg @ref LL_FLASH_LATENCY_13
  *         @arg @ref LL_FLASH_LATENCY_14
  *         @arg @ref LL_FLASH_LATENCY_15
  */
__STATIC_INLINE uint32_t LL_FLASH_GetLatency(void)
{
 8004d30:	b480      	push	{r7}
 8004d32:	af00      	add	r7, sp, #0
  return (uint32_t)(READ_BIT(FLASH->ACR, FLASH_ACR_LATENCY));
 8004d34:	4b04      	ldr	r3, [pc, #16]	; (8004d48 <LL_FLASH_GetLatency+0x18>)
 8004d36:	681b      	ldr	r3, [r3, #0]
 8004d38:	f003 0307 	and.w	r3, r3, #7
}
 8004d3c:	4618      	mov	r0, r3
 8004d3e:	46bd      	mov	sp, r7
 8004d40:	f85d 7b04 	ldr.w	r7, [sp], #4
 8004d44:	4770      	bx	lr
 8004d46:	bf00      	nop
 8004d48:	40023c00 	.word	0x40023c00

08004d4c <LL_PWR_SetRegulVoltageScaling>:
  *         @arg @ref LL_PWR_REGU_VOLTAGE_SCALE3
  *         (*) LL_PWR_REGU_VOLTAGE_SCALE1 is not available for STM32F401xx devices
  * @retval None
  */
__STATIC_INLINE void LL_PWR_SetRegulVoltageScaling(uint32_t VoltageScaling)
{
 8004d4c:	b480      	push	{r7}
 8004d4e:	b083      	sub	sp, #12
 8004d50:	af00      	add	r7, sp, #0
 8004d52:	6078      	str	r0, [r7, #4]
  MODIFY_REG(PWR->CR, PWR_CR_VOS, VoltageScaling);
 8004d54:	4b06      	ldr	r3, [pc, #24]	; (8004d70 <LL_PWR_SetRegulVoltageScaling+0x24>)
 8004d56:	681b      	ldr	r3, [r3, #0]
 8004d58:	f423 4240 	bic.w	r2, r3, #49152	; 0xc000
 8004d5c:	4904      	ldr	r1, [pc, #16]	; (8004d70 <LL_PWR_SetRegulVoltageScaling+0x24>)
 8004d5e:	687b      	ldr	r3, [r7, #4]
 8004d60:	4313      	orrs	r3, r2
 8004d62:	600b      	str	r3, [r1, #0]
}
 8004d64:	bf00      	nop
 8004d66:	370c      	adds	r7, #12
 8004d68:	46bd      	mov	sp, r7
 8004d6a:	f85d 7b04 	ldr.w	r7, [sp], #4
 8004d6e:	4770      	bx	lr
 8004d70:	40007000 	.word	0x40007000

08004d74 <LL_TIM_EnableCounter>:
  * @rmtoll CR1          CEN           LL_TIM_EnableCounter
  * @param  TIMx Timer instance
  * @retval None
  */
__STATIC_INLINE void LL_TIM_EnableCounter(TIM_TypeDef *TIMx)
{
 8004d74:	b480      	push	{r7}
 8004d76:	b083      	sub	sp, #12
 8004d78:	af00      	add	r7, sp, #0
 8004d7a:	6078      	str	r0, [r7, #4]
  SET_BIT(TIMx->CR1, TIM_CR1_CEN);
 8004d7c:	687b      	ldr	r3, [r7, #4]
 8004d7e:	681b      	ldr	r3, [r3, #0]
 8004d80:	f043 0201 	orr.w	r2, r3, #1
 8004d84:	687b      	ldr	r3, [r7, #4]
 8004d86:	601a      	str	r2, [r3, #0]
}
 8004d88:	bf00      	nop
 8004d8a:	370c      	adds	r7, #12
 8004d8c:	46bd      	mov	sp, r7
 8004d8e:	f85d 7b04 	ldr.w	r7, [sp], #4
 8004d92:	4770      	bx	lr

08004d94 <LL_TIM_DisableCounter>:
  * @rmtoll CR1          CEN           LL_TIM_DisableCounter
  * @param  TIMx Timer instance
  * @retval None
  */
__STATIC_INLINE void LL_TIM_DisableCounter(TIM_TypeDef *TIMx)
{
 8004d94:	b480      	push	{r7}
 8004d96:	b083      	sub	sp, #12
 8004d98:	af00      	add	r7, sp, #0
 8004d9a:	6078      	str	r0, [r7, #4]
  CLEAR_BIT(TIMx->CR1, TIM_CR1_CEN);
 8004d9c:	687b      	ldr	r3, [r7, #4]
 8004d9e:	681b      	ldr	r3, [r3, #0]
 8004da0:	f023 0201 	bic.w	r2, r3, #1
 8004da4:	687b      	ldr	r3, [r7, #4]
 8004da6:	601a      	str	r2, [r3, #0]
}
 8004da8:	bf00      	nop
 8004daa:	370c      	adds	r7, #12
 8004dac:	46bd      	mov	sp, r7
 8004dae:	f85d 7b04 	ldr.w	r7, [sp], #4
 8004db2:	4770      	bx	lr

08004db4 <LL_TIM_DisableARRPreload>:
  * @rmtoll CR1          ARPE          LL_TIM_DisableARRPreload
  * @param  TIMx Timer instance
  * @retval None
  */
__STATIC_INLINE void LL_TIM_DisableARRPreload(TIM_TypeDef *TIMx)
{
 8004db4:	b480      	push	{r7}
 8004db6:	b083      	sub	sp, #12
 8004db8:	af00      	add	r7, sp, #0
 8004dba:	6078      	str	r0, [r7, #4]
  CLEAR_BIT(TIMx->CR1, TIM_CR1_ARPE);
 8004dbc:	687b      	ldr	r3, [r7, #4]
 8004dbe:	681b      	ldr	r3, [r3, #0]
 8004dc0:	f023 0280 	bic.w	r2, r3, #128	; 0x80
 8004dc4:	687b      	ldr	r3, [r7, #4]
 8004dc6:	601a      	str	r2, [r3, #0]
}
 8004dc8:	bf00      	nop
 8004dca:	370c      	adds	r7, #12
 8004dcc:	46bd      	mov	sp, r7
 8004dce:	f85d 7b04 	ldr.w	r7, [sp], #4
 8004dd2:	4770      	bx	lr

08004dd4 <LL_TIM_SetCounter>:
  * @param  TIMx Timer instance
  * @param  Counter Counter value (between Min_Data=0 and Max_Data=0xFFFF or 0xFFFFFFFF)
  * @retval None
  */
__STATIC_INLINE void LL_TIM_SetCounter(TIM_TypeDef *TIMx, uint32_t Counter)
{
 8004dd4:	b480      	push	{r7}
 8004dd6:	b083      	sub	sp, #12
 8004dd8:	af00      	add	r7, sp, #0
 8004dda:	6078      	str	r0, [r7, #4]
 8004ddc:	6039      	str	r1, [r7, #0]
  WRITE_REG(TIMx->CNT, Counter);
 8004dde:	687b      	ldr	r3, [r7, #4]
 8004de0:	683a      	ldr	r2, [r7, #0]
 8004de2:	625a      	str	r2, [r3, #36]	; 0x24
}
 8004de4:	bf00      	nop
 8004de6:	370c      	adds	r7, #12
 8004de8:	46bd      	mov	sp, r7
 8004dea:	f85d 7b04 	ldr.w	r7, [sp], #4
 8004dee:	4770      	bx	lr

08004df0 <LL_TIM_CC_EnableChannel>:
  *         @arg @ref LL_TIM_CHANNEL_CH3N
  *         @arg @ref LL_TIM_CHANNEL_CH4
  * @retval None
  */
__STATIC_INLINE void LL_TIM_CC_EnableChannel(TIM_TypeDef *TIMx, uint32_t Channels)
{
 8004df0:	b480      	push	{r7}
 8004df2:	b083      	sub	sp, #12
 8004df4:	af00      	add	r7, sp, #0
 8004df6:	6078      	str	r0, [r7, #4]
 8004df8:	6039      	str	r1, [r7, #0]
  SET_BIT(TIMx->CCER, Channels);
 8004dfa:	687b      	ldr	r3, [r7, #4]
 8004dfc:	6a1a      	ldr	r2, [r3, #32]
 8004dfe:	683b      	ldr	r3, [r7, #0]
 8004e00:	431a      	orrs	r2, r3
 8004e02:	687b      	ldr	r3, [r7, #4]
 8004e04:	621a      	str	r2, [r3, #32]
}
 8004e06:	bf00      	nop
 8004e08:	370c      	adds	r7, #12
 8004e0a:	46bd      	mov	sp, r7
 8004e0c:	f85d 7b04 	ldr.w	r7, [sp], #4
 8004e10:	4770      	bx	lr

08004e12 <LL_TIM_CC_DisableChannel>:
  *         @arg @ref LL_TIM_CHANNEL_CH3N
  *         @arg @ref LL_TIM_CHANNEL_CH4
  * @retval None
  */
__STATIC_INLINE void LL_TIM_CC_DisableChannel(TIM_TypeDef *TIMx, uint32_t Channels)
{
 8004e12:	b480      	push	{r7}
 8004e14:	b083      	sub	sp, #12
 8004e16:	af00      	add	r7, sp, #0
 8004e18:	6078      	str	r0, [r7, #4]
 8004e1a:	6039      	str	r1, [r7, #0]
  CLEAR_BIT(TIMx->CCER, Channels);
 8004e1c:	687b      	ldr	r3, [r7, #4]
 8004e1e:	6a1a      	ldr	r2, [r3, #32]
 8004e20:	683b      	ldr	r3, [r7, #0]
 8004e22:	43db      	mvns	r3, r3
 8004e24:	401a      	ands	r2, r3
 8004e26:	687b      	ldr	r3, [r7, #4]
 8004e28:	621a      	str	r2, [r3, #32]
}
 8004e2a:	bf00      	nop
 8004e2c:	370c      	adds	r7, #12
 8004e2e:	46bd      	mov	sp, r7
 8004e30:	f85d 7b04 	ldr.w	r7, [sp], #4
 8004e34:	4770      	bx	lr

08004e36 <LL_TIM_CC_IsEnabledChannel>:
  *         @arg @ref LL_TIM_CHANNEL_CH3N
  *         @arg @ref LL_TIM_CHANNEL_CH4
  * @retval State of bit (1 or 0).
  */
__STATIC_INLINE uint32_t LL_TIM_CC_IsEnabledChannel(TIM_TypeDef *TIMx, uint32_t Channels)
{
 8004e36:	b480      	push	{r7}
 8004e38:	b083      	sub	sp, #12
 8004e3a:	af00      	add	r7, sp, #0
 8004e3c:	6078      	str	r0, [r7, #4]
 8004e3e:	6039      	str	r1, [r7, #0]
  return ((READ_BIT(TIMx->CCER, Channels) == (Channels)) ? 1UL : 0UL);
 8004e40:	687b      	ldr	r3, [r7, #4]
 8004e42:	6a1a      	ldr	r2, [r3, #32]
 8004e44:	683b      	ldr	r3, [r7, #0]
 8004e46:	4013      	ands	r3, r2
 8004e48:	683a      	ldr	r2, [r7, #0]
 8004e4a:	429a      	cmp	r2, r3
 8004e4c:	d101      	bne.n	8004e52 <LL_TIM_CC_IsEnabledChannel+0x1c>
 8004e4e:	2301      	movs	r3, #1
 8004e50:	e000      	b.n	8004e54 <LL_TIM_CC_IsEnabledChannel+0x1e>
 8004e52:	2300      	movs	r3, #0
}
 8004e54:	4618      	mov	r0, r3
 8004e56:	370c      	adds	r7, #12
 8004e58:	46bd      	mov	sp, r7
 8004e5a:	f85d 7b04 	ldr.w	r7, [sp], #4
 8004e5e:	4770      	bx	lr

08004e60 <LL_TIM_OC_DisableFast>:
  *         @arg @ref LL_TIM_CHANNEL_CH3
  *         @arg @ref LL_TIM_CHANNEL_CH4
  * @retval None
  */
__STATIC_INLINE void LL_TIM_OC_DisableFast(TIM_TypeDef *TIMx, uint32_t Channel)
{
 8004e60:	b480      	push	{r7}
 8004e62:	b085      	sub	sp, #20
 8004e64:	af00      	add	r7, sp, #0
 8004e66:	6078      	str	r0, [r7, #4]
 8004e68:	6039      	str	r1, [r7, #0]
  uint8_t iChannel = TIM_GET_CHANNEL_INDEX(Channel);
 8004e6a:	683b      	ldr	r3, [r7, #0]
 8004e6c:	2b01      	cmp	r3, #1
 8004e6e:	d01c      	beq.n	8004eaa <LL_TIM_OC_DisableFast+0x4a>
 8004e70:	683b      	ldr	r3, [r7, #0]
 8004e72:	2b04      	cmp	r3, #4
 8004e74:	d017      	beq.n	8004ea6 <LL_TIM_OC_DisableFast+0x46>
 8004e76:	683b      	ldr	r3, [r7, #0]
 8004e78:	2b10      	cmp	r3, #16
 8004e7a:	d012      	beq.n	8004ea2 <LL_TIM_OC_DisableFast+0x42>
 8004e7c:	683b      	ldr	r3, [r7, #0]
 8004e7e:	2b40      	cmp	r3, #64	; 0x40
 8004e80:	d00d      	beq.n	8004e9e <LL_TIM_OC_DisableFast+0x3e>
 8004e82:	683b      	ldr	r3, [r7, #0]
 8004e84:	f5b3 7f80 	cmp.w	r3, #256	; 0x100
 8004e88:	d007      	beq.n	8004e9a <LL_TIM_OC_DisableFast+0x3a>
 8004e8a:	683b      	ldr	r3, [r7, #0]
 8004e8c:	f5b3 6f80 	cmp.w	r3, #1024	; 0x400
 8004e90:	d101      	bne.n	8004e96 <LL_TIM_OC_DisableFast+0x36>
 8004e92:	2305      	movs	r3, #5
 8004e94:	e00a      	b.n	8004eac <LL_TIM_OC_DisableFast+0x4c>
 8004e96:	2306      	movs	r3, #6
 8004e98:	e008      	b.n	8004eac <LL_TIM_OC_DisableFast+0x4c>
 8004e9a:	2304      	movs	r3, #4
 8004e9c:	e006      	b.n	8004eac <LL_TIM_OC_DisableFast+0x4c>
 8004e9e:	2303      	movs	r3, #3
 8004ea0:	e004      	b.n	8004eac <LL_TIM_OC_DisableFast+0x4c>
 8004ea2:	2302      	movs	r3, #2
 8004ea4:	e002      	b.n	8004eac <LL_TIM_OC_DisableFast+0x4c>
 8004ea6:	2301      	movs	r3, #1
 8004ea8:	e000      	b.n	8004eac <LL_TIM_OC_DisableFast+0x4c>
 8004eaa:	2300      	movs	r3, #0
 8004eac:	73fb      	strb	r3, [r7, #15]
  __IO uint32_t *pReg = (__IO uint32_t *)((uint32_t)((uint32_t)(&TIMx->CCMR1) + OFFSET_TAB_CCMRx[iChannel]));
 8004eae:	687b      	ldr	r3, [r7, #4]
 8004eb0:	3318      	adds	r3, #24
 8004eb2:	4619      	mov	r1, r3
 8004eb4:	7bfb      	ldrb	r3, [r7, #15]
 8004eb6:	4a0b      	ldr	r2, [pc, #44]	; (8004ee4 <LL_TIM_OC_DisableFast+0x84>)
 8004eb8:	5cd3      	ldrb	r3, [r2, r3]
 8004eba:	440b      	add	r3, r1
 8004ebc:	60bb      	str	r3, [r7, #8]
  CLEAR_BIT(*pReg, (TIM_CCMR1_OC1FE << SHIFT_TAB_OCxx[iChannel]));
 8004ebe:	68bb      	ldr	r3, [r7, #8]
 8004ec0:	681a      	ldr	r2, [r3, #0]
 8004ec2:	7bfb      	ldrb	r3, [r7, #15]
 8004ec4:	4908      	ldr	r1, [pc, #32]	; (8004ee8 <LL_TIM_OC_DisableFast+0x88>)
 8004ec6:	5ccb      	ldrb	r3, [r1, r3]
 8004ec8:	4619      	mov	r1, r3
 8004eca:	2304      	movs	r3, #4
 8004ecc:	408b      	lsls	r3, r1
 8004ece:	43db      	mvns	r3, r3
 8004ed0:	401a      	ands	r2, r3
 8004ed2:	68bb      	ldr	r3, [r7, #8]
 8004ed4:	601a      	str	r2, [r3, #0]

}
 8004ed6:	bf00      	nop
 8004ed8:	3714      	adds	r7, #20
 8004eda:	46bd      	mov	sp, r7
 8004edc:	f85d 7b04 	ldr.w	r7, [sp], #4
 8004ee0:	4770      	bx	lr
 8004ee2:	bf00      	nop
 8004ee4:	08008824 	.word	0x08008824
 8004ee8:	0800882c 	.word	0x0800882c

08004eec <LL_TIM_OC_EnablePreload>:
  *         @arg @ref LL_TIM_CHANNEL_CH3
  *         @arg @ref LL_TIM_CHANNEL_CH4
  * @retval None
  */
__STATIC_INLINE void LL_TIM_OC_EnablePreload(TIM_TypeDef *TIMx, uint32_t Channel)
{
 8004eec:	b480      	push	{r7}
 8004eee:	b085      	sub	sp, #20
 8004ef0:	af00      	add	r7, sp, #0
 8004ef2:	6078      	str	r0, [r7, #4]
 8004ef4:	6039      	str	r1, [r7, #0]
  uint8_t iChannel = TIM_GET_CHANNEL_INDEX(Channel);
 8004ef6:	683b      	ldr	r3, [r7, #0]
 8004ef8:	2b01      	cmp	r3, #1
 8004efa:	d01c      	beq.n	8004f36 <LL_TIM_OC_EnablePreload+0x4a>
 8004efc:	683b      	ldr	r3, [r7, #0]
 8004efe:	2b04      	cmp	r3, #4
 8004f00:	d017      	beq.n	8004f32 <LL_TIM_OC_EnablePreload+0x46>
 8004f02:	683b      	ldr	r3, [r7, #0]
 8004f04:	2b10      	cmp	r3, #16
 8004f06:	d012      	beq.n	8004f2e <LL_TIM_OC_EnablePreload+0x42>
 8004f08:	683b      	ldr	r3, [r7, #0]
 8004f0a:	2b40      	cmp	r3, #64	; 0x40
 8004f0c:	d00d      	beq.n	8004f2a <LL_TIM_OC_EnablePreload+0x3e>
 8004f0e:	683b      	ldr	r3, [r7, #0]
 8004f10:	f5b3 7f80 	cmp.w	r3, #256	; 0x100
 8004f14:	d007      	beq.n	8004f26 <LL_TIM_OC_EnablePreload+0x3a>
 8004f16:	683b      	ldr	r3, [r7, #0]
 8004f18:	f5b3 6f80 	cmp.w	r3, #1024	; 0x400
 8004f1c:	d101      	bne.n	8004f22 <LL_TIM_OC_EnablePreload+0x36>
 8004f1e:	2305      	movs	r3, #5
 8004f20:	e00a      	b.n	8004f38 <LL_TIM_OC_EnablePreload+0x4c>
 8004f22:	2306      	movs	r3, #6
 8004f24:	e008      	b.n	8004f38 <LL_TIM_OC_EnablePreload+0x4c>
 8004f26:	2304      	movs	r3, #4
 8004f28:	e006      	b.n	8004f38 <LL_TIM_OC_EnablePreload+0x4c>
 8004f2a:	2303      	movs	r3, #3
 8004f2c:	e004      	b.n	8004f38 <LL_TIM_OC_EnablePreload+0x4c>
 8004f2e:	2302      	movs	r3, #2
 8004f30:	e002      	b.n	8004f38 <LL_TIM_OC_EnablePreload+0x4c>
 8004f32:	2301      	movs	r3, #1
 8004f34:	e000      	b.n	8004f38 <LL_TIM_OC_EnablePreload+0x4c>
 8004f36:	2300      	movs	r3, #0
 8004f38:	73fb      	strb	r3, [r7, #15]
  __IO uint32_t *pReg = (__IO uint32_t *)((uint32_t)((uint32_t)(&TIMx->CCMR1) + OFFSET_TAB_CCMRx[iChannel]));
 8004f3a:	687b      	ldr	r3, [r7, #4]
 8004f3c:	3318      	adds	r3, #24
 8004f3e:	4619      	mov	r1, r3
 8004f40:	7bfb      	ldrb	r3, [r7, #15]
 8004f42:	4a0a      	ldr	r2, [pc, #40]	; (8004f6c <LL_TIM_OC_EnablePreload+0x80>)
 8004f44:	5cd3      	ldrb	r3, [r2, r3]
 8004f46:	440b      	add	r3, r1
 8004f48:	60bb      	str	r3, [r7, #8]
  SET_BIT(*pReg, (TIM_CCMR1_OC1PE << SHIFT_TAB_OCxx[iChannel]));
 8004f4a:	68bb      	ldr	r3, [r7, #8]
 8004f4c:	681a      	ldr	r2, [r3, #0]
 8004f4e:	7bfb      	ldrb	r3, [r7, #15]
 8004f50:	4907      	ldr	r1, [pc, #28]	; (8004f70 <LL_TIM_OC_EnablePreload+0x84>)
 8004f52:	5ccb      	ldrb	r3, [r1, r3]
 8004f54:	4619      	mov	r1, r3
 8004f56:	2308      	movs	r3, #8
 8004f58:	408b      	lsls	r3, r1
 8004f5a:	431a      	orrs	r2, r3
 8004f5c:	68bb      	ldr	r3, [r7, #8]
 8004f5e:	601a      	str	r2, [r3, #0]
}
 8004f60:	bf00      	nop
 8004f62:	3714      	adds	r7, #20
 8004f64:	46bd      	mov	sp, r7
 8004f66:	f85d 7b04 	ldr.w	r7, [sp], #4
 8004f6a:	4770      	bx	lr
 8004f6c:	08008824 	.word	0x08008824
 8004f70:	0800882c 	.word	0x0800882c

08004f74 <LL_TIM_SetClockSource>:
  *         @arg @ref LL_TIM_CLOCKSOURCE_EXT_MODE1
  *         @arg @ref LL_TIM_CLOCKSOURCE_EXT_MODE2
  * @retval None
  */
__STATIC_INLINE void LL_TIM_SetClockSource(TIM_TypeDef *TIMx, uint32_t ClockSource)
{
 8004f74:	b480      	push	{r7}
 8004f76:	b083      	sub	sp, #12
 8004f78:	af00      	add	r7, sp, #0
 8004f7a:	6078      	str	r0, [r7, #4]
 8004f7c:	6039      	str	r1, [r7, #0]
  MODIFY_REG(TIMx->SMCR, TIM_SMCR_SMS | TIM_SMCR_ECE, ClockSource);
 8004f7e:	687b      	ldr	r3, [r7, #4]
 8004f80:	689b      	ldr	r3, [r3, #8]
 8004f82:	f423 4380 	bic.w	r3, r3, #16384	; 0x4000
 8004f86:	f023 0307 	bic.w	r3, r3, #7
 8004f8a:	683a      	ldr	r2, [r7, #0]
 8004f8c:	431a      	orrs	r2, r3
 8004f8e:	687b      	ldr	r3, [r7, #4]
 8004f90:	609a      	str	r2, [r3, #8]
}
 8004f92:	bf00      	nop
 8004f94:	370c      	adds	r7, #12
 8004f96:	46bd      	mov	sp, r7
 8004f98:	f85d 7b04 	ldr.w	r7, [sp], #4
 8004f9c:	4770      	bx	lr

08004f9e <LL_TIM_SetTriggerOutput>:
  *         @arg @ref LL_TIM_TRGO_OC3REF
  *         @arg @ref LL_TIM_TRGO_OC4REF
  * @retval None
  */
__STATIC_INLINE void LL_TIM_SetTriggerOutput(TIM_TypeDef *TIMx, uint32_t TimerSynchronization)
{
 8004f9e:	b480      	push	{r7}
 8004fa0:	b083      	sub	sp, #12
 8004fa2:	af00      	add	r7, sp, #0
 8004fa4:	6078      	str	r0, [r7, #4]
 8004fa6:	6039      	str	r1, [r7, #0]
  MODIFY_REG(TIMx->CR2, TIM_CR2_MMS, TimerSynchronization);
 8004fa8:	687b      	ldr	r3, [r7, #4]
 8004faa:	685b      	ldr	r3, [r3, #4]
 8004fac:	f023 0270 	bic.w	r2, r3, #112	; 0x70
 8004fb0:	683b      	ldr	r3, [r7, #0]
 8004fb2:	431a      	orrs	r2, r3
 8004fb4:	687b      	ldr	r3, [r7, #4]
 8004fb6:	605a      	str	r2, [r3, #4]
}
 8004fb8:	bf00      	nop
 8004fba:	370c      	adds	r7, #12
 8004fbc:	46bd      	mov	sp, r7
 8004fbe:	f85d 7b04 	ldr.w	r7, [sp], #4
 8004fc2:	4770      	bx	lr

08004fc4 <LL_TIM_DisableMasterSlaveMode>:
  * @rmtoll SMCR         MSM           LL_TIM_DisableMasterSlaveMode
  * @param  TIMx Timer instance
  * @retval None
  */
__STATIC_INLINE void LL_TIM_DisableMasterSlaveMode(TIM_TypeDef *TIMx)
{
 8004fc4:	b480      	push	{r7}
 8004fc6:	b083      	sub	sp, #12
 8004fc8:	af00      	add	r7, sp, #0
 8004fca:	6078      	str	r0, [r7, #4]
  CLEAR_BIT(TIMx->SMCR, TIM_SMCR_MSM);
 8004fcc:	687b      	ldr	r3, [r7, #4]
 8004fce:	689b      	ldr	r3, [r3, #8]
 8004fd0:	f023 0280 	bic.w	r2, r3, #128	; 0x80
 8004fd4:	687b      	ldr	r3, [r7, #4]
 8004fd6:	609a      	str	r2, [r3, #8]
}
 8004fd8:	bf00      	nop
 8004fda:	370c      	adds	r7, #12
 8004fdc:	46bd      	mov	sp, r7
 8004fde:	f85d 7b04 	ldr.w	r7, [sp], #4
 8004fe2:	4770      	bx	lr

08004fe4 <LL_TIM_EnableDMAReq_CC2>:
  * @rmtoll DIER         CC2DE         LL_TIM_EnableDMAReq_CC2
  * @param  TIMx Timer instance
  * @retval None
  */
__STATIC_INLINE void LL_TIM_EnableDMAReq_CC2(TIM_TypeDef *TIMx)
{
 8004fe4:	b480      	push	{r7}
 8004fe6:	b083      	sub	sp, #12
 8004fe8:	af00      	add	r7, sp, #0
 8004fea:	6078      	str	r0, [r7, #4]
  SET_BIT(TIMx->DIER, TIM_DIER_CC2DE);
 8004fec:	687b      	ldr	r3, [r7, #4]
 8004fee:	68db      	ldr	r3, [r3, #12]
 8004ff0:	f443 6280 	orr.w	r2, r3, #1024	; 0x400
 8004ff4:	687b      	ldr	r3, [r7, #4]
 8004ff6:	60da      	str	r2, [r3, #12]
}
 8004ff8:	bf00      	nop
 8004ffa:	370c      	adds	r7, #12
 8004ffc:	46bd      	mov	sp, r7
 8004ffe:	f85d 7b04 	ldr.w	r7, [sp], #4
 8005002:	4770      	bx	lr

08005004 <LL_USART_Enable>:
  * @rmtoll CR1          UE            LL_USART_Enable
  * @param  USARTx USART Instance
  * @retval None
  */
__STATIC_INLINE void LL_USART_Enable(USART_TypeDef *USARTx)
{
 8005004:	b480      	push	{r7}
 8005006:	b083      	sub	sp, #12
 8005008:	af00      	add	r7, sp, #0
 800500a:	6078      	str	r0, [r7, #4]
  SET_BIT(USARTx->CR1, USART_CR1_UE);
 800500c:	687b      	ldr	r3, [r7, #4]
 800500e:	68db      	ldr	r3, [r3, #12]
 8005010:	f443 5200 	orr.w	r2, r3, #8192	; 0x2000
 8005014:	687b      	ldr	r3, [r7, #4]
 8005016:	60da      	str	r2, [r3, #12]
}
 8005018:	bf00      	nop
 800501a:	370c      	adds	r7, #12
 800501c:	46bd      	mov	sp, r7
 800501e:	f85d 7b04 	ldr.w	r7, [sp], #4
 8005022:	4770      	bx	lr

08005024 <LL_USART_ConfigAsyncMode>:
  *         CR3          HDSEL         LL_USART_ConfigAsyncMode
  * @param  USARTx USART Instance
  * @retval None
  */
__STATIC_INLINE void LL_USART_ConfigAsyncMode(USART_TypeDef *USARTx)
{
 8005024:	b480      	push	{r7}
 8005026:	b083      	sub	sp, #12
 8005028:	af00      	add	r7, sp, #0
 800502a:	6078      	str	r0, [r7, #4]
  /* In Asynchronous mode, the following bits must be kept cleared:
  - LINEN, CLKEN bits in the USART_CR2 register,
  - SCEN, IREN and HDSEL bits in the USART_CR3 register.*/
  CLEAR_BIT(USARTx->CR2, (USART_CR2_LINEN | USART_CR2_CLKEN));
 800502c:	687b      	ldr	r3, [r7, #4]
 800502e:	691b      	ldr	r3, [r3, #16]
 8005030:	f423 4290 	bic.w	r2, r3, #18432	; 0x4800
 8005034:	687b      	ldr	r3, [r7, #4]
 8005036:	611a      	str	r2, [r3, #16]
  CLEAR_BIT(USARTx->CR3, (USART_CR3_SCEN | USART_CR3_IREN | USART_CR3_HDSEL));
 8005038:	687b      	ldr	r3, [r7, #4]
 800503a:	695b      	ldr	r3, [r3, #20]
 800503c:	f023 022a 	bic.w	r2, r3, #42	; 0x2a
 8005040:	687b      	ldr	r3, [r7, #4]
 8005042:	615a      	str	r2, [r3, #20]
}
 8005044:	bf00      	nop
 8005046:	370c      	adds	r7, #12
 8005048:	46bd      	mov	sp, r7
 800504a:	f85d 7b04 	ldr.w	r7, [sp], #4
 800504e:	4770      	bx	lr

08005050 <LL_USART_IsActiveFlag_TXE>:
  * @rmtoll SR           TXE           LL_USART_IsActiveFlag_TXE
  * @param  USARTx USART Instance
  * @retval State of bit (1 or 0).
  */
__STATIC_INLINE uint32_t LL_USART_IsActiveFlag_TXE(USART_TypeDef *USARTx)
{
 8005050:	b480      	push	{r7}
 8005052:	b083      	sub	sp, #12
 8005054:	af00      	add	r7, sp, #0
 8005056:	6078      	str	r0, [r7, #4]
  return (READ_BIT(USARTx->SR, USART_SR_TXE) == (USART_SR_TXE));
 8005058:	687b      	ldr	r3, [r7, #4]
 800505a:	681b      	ldr	r3, [r3, #0]
 800505c:	f003 0380 	and.w	r3, r3, #128	; 0x80
 8005060:	2b80      	cmp	r3, #128	; 0x80
 8005062:	bf0c      	ite	eq
 8005064:	2301      	moveq	r3, #1
 8005066:	2300      	movne	r3, #0
 8005068:	b2db      	uxtb	r3, r3
}
 800506a:	4618      	mov	r0, r3
 800506c:	370c      	adds	r7, #12
 800506e:	46bd      	mov	sp, r7
 8005070:	f85d 7b04 	ldr.w	r7, [sp], #4
 8005074:	4770      	bx	lr

08005076 <LL_USART_EnableIT_RXNE>:
  * @rmtoll CR1          RXNEIE        LL_USART_EnableIT_RXNE
  * @param  USARTx USART Instance
  * @retval None
  */
__STATIC_INLINE void LL_USART_EnableIT_RXNE(USART_TypeDef *USARTx)
{
 8005076:	b480      	push	{r7}
 8005078:	b089      	sub	sp, #36	; 0x24
 800507a:	af00      	add	r7, sp, #0
 800507c:	6078      	str	r0, [r7, #4]
  ATOMIC_SET_BIT(USARTx->CR1, USART_CR1_RXNEIE);
 800507e:	687b      	ldr	r3, [r7, #4]
 8005080:	330c      	adds	r3, #12
 8005082:	60fb      	str	r3, [r7, #12]
 */
__STATIC_FORCEINLINE uint32_t __LDREXW(volatile uint32_t *addr)
{
    uint32_t result;

   __ASM volatile ("ldrex %0, %1" : "=r" (result) : "Q" (*addr) );
 8005084:	68fb      	ldr	r3, [r7, #12]
 8005086:	e853 3f00 	ldrex	r3, [r3]
 800508a:	60bb      	str	r3, [r7, #8]
   return(result);
 800508c:	68bb      	ldr	r3, [r7, #8]
 800508e:	f043 0320 	orr.w	r3, r3, #32
 8005092:	61fb      	str	r3, [r7, #28]
 8005094:	687b      	ldr	r3, [r7, #4]
 8005096:	330c      	adds	r3, #12
 8005098:	69fa      	ldr	r2, [r7, #28]
 800509a:	61ba      	str	r2, [r7, #24]
 800509c:	617b      	str	r3, [r7, #20]
 */
__STATIC_FORCEINLINE uint32_t __STREXW(uint32_t value, volatile uint32_t *addr)
{
   uint32_t result;

   __ASM volatile ("strex %0, %2, %1" : "=&r" (result), "=Q" (*addr) : "r" (value) );
 800509e:	6979      	ldr	r1, [r7, #20]
 80050a0:	69ba      	ldr	r2, [r7, #24]
 80050a2:	e841 2300 	strex	r3, r2, [r1]
 80050a6:	613b      	str	r3, [r7, #16]
   return(result);
 80050a8:	693b      	ldr	r3, [r7, #16]
 80050aa:	2b00      	cmp	r3, #0
 80050ac:	d1e7      	bne.n	800507e <LL_USART_EnableIT_RXNE+0x8>
}
 80050ae:	bf00      	nop
 80050b0:	bf00      	nop
 80050b2:	3724      	adds	r7, #36	; 0x24
 80050b4:	46bd      	mov	sp, r7
 80050b6:	f85d 7b04 	ldr.w	r7, [sp], #4
 80050ba:	4770      	bx	lr

080050bc <LL_USART_EnableIT_TC>:
  * @rmtoll CR1          TCIE          LL_USART_EnableIT_TC
  * @param  USARTx USART Instance
  * @retval None
  */
__STATIC_INLINE void LL_USART_EnableIT_TC(USART_TypeDef *USARTx)
{
 80050bc:	b480      	push	{r7}
 80050be:	b089      	sub	sp, #36	; 0x24
 80050c0:	af00      	add	r7, sp, #0
 80050c2:	6078      	str	r0, [r7, #4]
  ATOMIC_SET_BIT(USARTx->CR1, USART_CR1_TCIE);
 80050c4:	687b      	ldr	r3, [r7, #4]
 80050c6:	330c      	adds	r3, #12
 80050c8:	60fb      	str	r3, [r7, #12]
   __ASM volatile ("ldrex %0, %1" : "=r" (result) : "Q" (*addr) );
 80050ca:	68fb      	ldr	r3, [r7, #12]
 80050cc:	e853 3f00 	ldrex	r3, [r3]
 80050d0:	60bb      	str	r3, [r7, #8]
   return(result);
 80050d2:	68bb      	ldr	r3, [r7, #8]
 80050d4:	f043 0340 	orr.w	r3, r3, #64	; 0x40
 80050d8:	61fb      	str	r3, [r7, #28]
 80050da:	687b      	ldr	r3, [r7, #4]
 80050dc:	330c      	adds	r3, #12
 80050de:	69fa      	ldr	r2, [r7, #28]
 80050e0:	61ba      	str	r2, [r7, #24]
 80050e2:	617b      	str	r3, [r7, #20]
   __ASM volatile ("strex %0, %2, %1" : "=&r" (result), "=Q" (*addr) : "r" (value) );
 80050e4:	6979      	ldr	r1, [r7, #20]
 80050e6:	69ba      	ldr	r2, [r7, #24]
 80050e8:	e841 2300 	strex	r3, r2, [r1]
 80050ec:	613b      	str	r3, [r7, #16]
   return(result);
 80050ee:	693b      	ldr	r3, [r7, #16]
 80050f0:	2b00      	cmp	r3, #0
 80050f2:	d1e7      	bne.n	80050c4 <LL_USART_EnableIT_TC+0x8>
}
 80050f4:	bf00      	nop
 80050f6:	bf00      	nop
 80050f8:	3724      	adds	r7, #36	; 0x24
 80050fa:	46bd      	mov	sp, r7
 80050fc:	f85d 7b04 	ldr.w	r7, [sp], #4
 8005100:	4770      	bx	lr

08005102 <LL_USART_TransmitData8>:
  * @param  USARTx USART Instance
  * @param  Value between Min_Data=0x00 and Max_Data=0xFF
  * @retval None
  */
__STATIC_INLINE void LL_USART_TransmitData8(USART_TypeDef *USARTx, uint8_t Value)
{
 8005102:	b480      	push	{r7}
 8005104:	b083      	sub	sp, #12
 8005106:	af00      	add	r7, sp, #0
 8005108:	6078      	str	r0, [r7, #4]
 800510a:	460b      	mov	r3, r1
 800510c:	70fb      	strb	r3, [r7, #3]
  USARTx->DR = Value;
 800510e:	78fa      	ldrb	r2, [r7, #3]
 8005110:	687b      	ldr	r3, [r7, #4]
 8005112:	605a      	str	r2, [r3, #4]
}
 8005114:	bf00      	nop
 8005116:	370c      	adds	r7, #12
 8005118:	46bd      	mov	sp, r7
 800511a:	f85d 7b04 	ldr.w	r7, [sp], #4
 800511e:	4770      	bx	lr

08005120 <LL_GPIO_IsInputPinSet>:
  *         @arg @ref LL_GPIO_PIN_15
  *         @arg @ref LL_GPIO_PIN_ALL
  * @retval State of bit (1 or 0).
  */
__STATIC_INLINE uint32_t LL_GPIO_IsInputPinSet(GPIO_TypeDef *GPIOx, uint32_t PinMask)
{
 8005120:	b480      	push	{r7}
 8005122:	b083      	sub	sp, #12
 8005124:	af00      	add	r7, sp, #0
 8005126:	6078      	str	r0, [r7, #4]
 8005128:	6039      	str	r1, [r7, #0]
  return (READ_BIT(GPIOx->IDR, PinMask) == (PinMask));
 800512a:	687b      	ldr	r3, [r7, #4]
 800512c:	691a      	ldr	r2, [r3, #16]
 800512e:	683b      	ldr	r3, [r7, #0]
 8005130:	4013      	ands	r3, r2
 8005132:	683a      	ldr	r2, [r7, #0]
 8005134:	429a      	cmp	r2, r3
 8005136:	bf0c      	ite	eq
 8005138:	2301      	moveq	r3, #1
 800513a:	2300      	movne	r3, #0
 800513c:	b2db      	uxtb	r3, r3
}
 800513e:	4618      	mov	r0, r3
 8005140:	370c      	adds	r7, #12
 8005142:	46bd      	mov	sp, r7
 8005144:	f85d 7b04 	ldr.w	r7, [sp], #4
 8005148:	4770      	bx	lr

0800514a <LL_GPIO_SetOutputPin>:
  *         @arg @ref LL_GPIO_PIN_15
  *         @arg @ref LL_GPIO_PIN_ALL
  * @retval None
  */
__STATIC_INLINE void LL_GPIO_SetOutputPin(GPIO_TypeDef *GPIOx, uint32_t PinMask)
{
 800514a:	b480      	push	{r7}
 800514c:	b083      	sub	sp, #12
 800514e:	af00      	add	r7, sp, #0
 8005150:	6078      	str	r0, [r7, #4]
 8005152:	6039      	str	r1, [r7, #0]
  WRITE_REG(GPIOx->BSRR, PinMask);
 8005154:	687b      	ldr	r3, [r7, #4]
 8005156:	683a      	ldr	r2, [r7, #0]
 8005158:	619a      	str	r2, [r3, #24]
}
 800515a:	bf00      	nop
 800515c:	370c      	adds	r7, #12
 800515e:	46bd      	mov	sp, r7
 8005160:	f85d 7b04 	ldr.w	r7, [sp], #4
 8005164:	4770      	bx	lr

08005166 <LL_GPIO_ResetOutputPin>:
  *         @arg @ref LL_GPIO_PIN_15
  *         @arg @ref LL_GPIO_PIN_ALL
  * @retval None
  */
__STATIC_INLINE void LL_GPIO_ResetOutputPin(GPIO_TypeDef *GPIOx, uint32_t PinMask)
{
 8005166:	b480      	push	{r7}
 8005168:	b083      	sub	sp, #12
 800516a:	af00      	add	r7, sp, #0
 800516c:	6078      	str	r0, [r7, #4]
 800516e:	6039      	str	r1, [r7, #0]
  WRITE_REG(GPIOx->BSRR, (PinMask << 16));
 8005170:	683b      	ldr	r3, [r7, #0]
 8005172:	041a      	lsls	r2, r3, #16
 8005174:	687b      	ldr	r3, [r7, #4]
 8005176:	619a      	str	r2, [r3, #24]
}
 8005178:	bf00      	nop
 800517a:	370c      	adds	r7, #12
 800517c:	46bd      	mov	sp, r7
 800517e:	f85d 7b04 	ldr.w	r7, [sp], #4
 8005182:	4770      	bx	lr

08005184 <LL_GPIO_TogglePin>:
  *         @arg @ref LL_GPIO_PIN_15
  *         @arg @ref LL_GPIO_PIN_ALL
  * @retval None
  */
__STATIC_INLINE void LL_GPIO_TogglePin(GPIO_TypeDef *GPIOx, uint32_t PinMask)
{
 8005184:	b480      	push	{r7}
 8005186:	b085      	sub	sp, #20
 8005188:	af00      	add	r7, sp, #0
 800518a:	6078      	str	r0, [r7, #4]
 800518c:	6039      	str	r1, [r7, #0]
  uint32_t odr = READ_REG(GPIOx->ODR);
 800518e:	687b      	ldr	r3, [r7, #4]
 8005190:	695b      	ldr	r3, [r3, #20]
 8005192:	60fb      	str	r3, [r7, #12]
  WRITE_REG(GPIOx->BSRR, ((odr & PinMask) << 16u) | (~odr & PinMask));
 8005194:	68fa      	ldr	r2, [r7, #12]
 8005196:	683b      	ldr	r3, [r7, #0]
 8005198:	4013      	ands	r3, r2
 800519a:	041a      	lsls	r2, r3, #16
 800519c:	68fb      	ldr	r3, [r7, #12]
 800519e:	43d9      	mvns	r1, r3
 80051a0:	683b      	ldr	r3, [r7, #0]
 80051a2:	400b      	ands	r3, r1
 80051a4:	431a      	orrs	r2, r3
 80051a6:	687b      	ldr	r3, [r7, #4]
 80051a8:	619a      	str	r2, [r3, #24]
}
 80051aa:	bf00      	nop
 80051ac:	3714      	adds	r7, #20
 80051ae:	46bd      	mov	sp, r7
 80051b0:	f85d 7b04 	ldr.w	r7, [sp], #4
 80051b4:	4770      	bx	lr
	...

080051b8 <led_fill_led_pwm_data>:
 * \brief           Prepares data from memory for PWM output for timer
 * \note            Memory is in format R,G,B, while PWM must be configured in G,R,B[,W]
 * \param[in]       ledx: LED index to set the color
 * \param[out]      ptr: Output array with at least LED_CFG_RAW_BYTES_PER_LED-words of memory
 */
static uint8_t led_fill_led_pwm_data(uint8_t ledx, uint32_t* ptr) {
 80051b8:	b480      	push	{r7}
 80051ba:	b085      	sub	sp, #20
 80051bc:	af00      	add	r7, sp, #0
 80051be:	4603      	mov	r3, r0
 80051c0:	6039      	str	r1, [r7, #0]
 80051c2:	71fb      	strb	r3, [r7, #7]
    uint8_t i;

    if (ledx < NR_OF_LEDS) {
 80051c4:	79fb      	ldrb	r3, [r7, #7]
 80051c6:	2b3d      	cmp	r3, #61	; 0x3d
 80051c8:	d872      	bhi.n	80052b0 <led_fill_led_pwm_data+0xf8>
        for (i = 0; i < 8; i++) {
 80051ca:	2300      	movs	r3, #0
 80051cc:	73fb      	strb	r3, [r7, #15]
 80051ce:	e06a      	b.n	80052a6 <led_fill_led_pwm_data+0xee>
            ptr[i] =        (led[ledx] & (1 << (15 - i))) ? (2 * TIM2->ARR / 3) : (TIM2->ARR / 3);
 80051d0:	79fb      	ldrb	r3, [r7, #7]
 80051d2:	4a3b      	ldr	r2, [pc, #236]	; (80052c0 <led_fill_led_pwm_data+0x108>)
 80051d4:	f852 3023 	ldr.w	r3, [r2, r3, lsl #2]
 80051d8:	7bfa      	ldrb	r2, [r7, #15]
 80051da:	f1c2 020f 	rsb	r2, r2, #15
 80051de:	2101      	movs	r1, #1
 80051e0:	fa01 f202 	lsl.w	r2, r1, r2
 80051e4:	4013      	ands	r3, r2
 80051e6:	2b00      	cmp	r3, #0
 80051e8:	d008      	beq.n	80051fc <led_fill_led_pwm_data+0x44>
 80051ea:	f04f 4380 	mov.w	r3, #1073741824	; 0x40000000
 80051ee:	6adb      	ldr	r3, [r3, #44]	; 0x2c
 80051f0:	005b      	lsls	r3, r3, #1
 80051f2:	4a34      	ldr	r2, [pc, #208]	; (80052c4 <led_fill_led_pwm_data+0x10c>)
 80051f4:	fba2 2303 	umull	r2, r3, r2, r3
 80051f8:	085b      	lsrs	r3, r3, #1
 80051fa:	e006      	b.n	800520a <led_fill_led_pwm_data+0x52>
 80051fc:	f04f 4380 	mov.w	r3, #1073741824	; 0x40000000
 8005200:	6adb      	ldr	r3, [r3, #44]	; 0x2c
 8005202:	4a30      	ldr	r2, [pc, #192]	; (80052c4 <led_fill_led_pwm_data+0x10c>)
 8005204:	fba2 2303 	umull	r2, r3, r2, r3
 8005208:	085b      	lsrs	r3, r3, #1
 800520a:	7bfa      	ldrb	r2, [r7, #15]
 800520c:	0092      	lsls	r2, r2, #2
 800520e:	6839      	ldr	r1, [r7, #0]
 8005210:	440a      	add	r2, r1
 8005212:	6013      	str	r3, [r2, #0]
            ptr[8 + i] =    (led[ledx] & (1 << (23 - i))) ? (2 * TIM2->ARR / 3) : (TIM2->ARR / 3);
 8005214:	79fb      	ldrb	r3, [r7, #7]
 8005216:	4a2a      	ldr	r2, [pc, #168]	; (80052c0 <led_fill_led_pwm_data+0x108>)
 8005218:	f852 3023 	ldr.w	r3, [r2, r3, lsl #2]
 800521c:	7bfa      	ldrb	r2, [r7, #15]
 800521e:	f1c2 0217 	rsb	r2, r2, #23
 8005222:	2101      	movs	r1, #1
 8005224:	fa01 f202 	lsl.w	r2, r1, r2
 8005228:	4013      	ands	r3, r2
 800522a:	2b00      	cmp	r3, #0
 800522c:	d008      	beq.n	8005240 <led_fill_led_pwm_data+0x88>
 800522e:	f04f 4380 	mov.w	r3, #1073741824	; 0x40000000
 8005232:	6adb      	ldr	r3, [r3, #44]	; 0x2c
 8005234:	005b      	lsls	r3, r3, #1
 8005236:	4a23      	ldr	r2, [pc, #140]	; (80052c4 <led_fill_led_pwm_data+0x10c>)
 8005238:	fba2 2303 	umull	r2, r3, r2, r3
 800523c:	085b      	lsrs	r3, r3, #1
 800523e:	e006      	b.n	800524e <led_fill_led_pwm_data+0x96>
 8005240:	f04f 4380 	mov.w	r3, #1073741824	; 0x40000000
 8005244:	6adb      	ldr	r3, [r3, #44]	; 0x2c
 8005246:	4a1f      	ldr	r2, [pc, #124]	; (80052c4 <led_fill_led_pwm_data+0x10c>)
 8005248:	fba2 2303 	umull	r2, r3, r2, r3
 800524c:	085b      	lsrs	r3, r3, #1
 800524e:	7bfa      	ldrb	r2, [r7, #15]
 8005250:	3208      	adds	r2, #8
 8005252:	0092      	lsls	r2, r2, #2
 8005254:	6839      	ldr	r1, [r7, #0]
 8005256:	440a      	add	r2, r1
 8005258:	6013      	str	r3, [r2, #0]
            ptr[16 + i] =   (led[ledx] & (1 << (7 - i))) ? (2 * TIM2->ARR / 3) : (TIM2->ARR / 3);
 800525a:	79fb      	ldrb	r3, [r7, #7]
 800525c:	4a18      	ldr	r2, [pc, #96]	; (80052c0 <led_fill_led_pwm_data+0x108>)
 800525e:	f852 3023 	ldr.w	r3, [r2, r3, lsl #2]
 8005262:	7bfa      	ldrb	r2, [r7, #15]
 8005264:	f1c2 0207 	rsb	r2, r2, #7
 8005268:	2101      	movs	r1, #1
 800526a:	fa01 f202 	lsl.w	r2, r1, r2
 800526e:	4013      	ands	r3, r2
 8005270:	2b00      	cmp	r3, #0
 8005272:	d008      	beq.n	8005286 <led_fill_led_pwm_data+0xce>
 8005274:	f04f 4380 	mov.w	r3, #1073741824	; 0x40000000
 8005278:	6adb      	ldr	r3, [r3, #44]	; 0x2c
 800527a:	005b      	lsls	r3, r3, #1
 800527c:	4a11      	ldr	r2, [pc, #68]	; (80052c4 <led_fill_led_pwm_data+0x10c>)
 800527e:	fba2 2303 	umull	r2, r3, r2, r3
 8005282:	085b      	lsrs	r3, r3, #1
 8005284:	e006      	b.n	8005294 <led_fill_led_pwm_data+0xdc>
 8005286:	f04f 4380 	mov.w	r3, #1073741824	; 0x40000000
 800528a:	6adb      	ldr	r3, [r3, #44]	; 0x2c
 800528c:	4a0d      	ldr	r2, [pc, #52]	; (80052c4 <led_fill_led_pwm_data+0x10c>)
 800528e:	fba2 2303 	umull	r2, r3, r2, r3
 8005292:	085b      	lsrs	r3, r3, #1
 8005294:	7bfa      	ldrb	r2, [r7, #15]
 8005296:	3210      	adds	r2, #16
 8005298:	0092      	lsls	r2, r2, #2
 800529a:	6839      	ldr	r1, [r7, #0]
 800529c:	440a      	add	r2, r1
 800529e:	6013      	str	r3, [r2, #0]
        for (i = 0; i < 8; i++) {
 80052a0:	7bfb      	ldrb	r3, [r7, #15]
 80052a2:	3301      	adds	r3, #1
 80052a4:	73fb      	strb	r3, [r7, #15]
 80052a6:	7bfb      	ldrb	r3, [r7, #15]
 80052a8:	2b07      	cmp	r3, #7
 80052aa:	d991      	bls.n	80051d0 <led_fill_led_pwm_data+0x18>
        }
        return 1;
 80052ac:	2301      	movs	r3, #1
 80052ae:	e000      	b.n	80052b2 <led_fill_led_pwm_data+0xfa>
    }
    return 0;
 80052b0:	2300      	movs	r3, #0
}
 80052b2:	4618      	mov	r0, r3
 80052b4:	3714      	adds	r7, #20
 80052b6:	46bd      	mov	sp, r7
 80052b8:	f85d 7b04 	ldr.w	r7, [sp], #4
 80052bc:	4770      	bx	lr
 80052be:	bf00      	nop
 80052c0:	20000100 	.word	0x20000100
 80052c4:	aaaaaaab 	.word	0xaaaaaaab

080052c8 <led_update_sequence>:
 *                      HT is called when first LED_CFG_RAW_BYTES_PER_LED elements are transfered,
 *                      TC is called when second LED_CFG_RAW_BYTES_PER_LED elements are transfered.
 *
 * \note            This function must be called from DMA interrupt
 */
void led_update_sequence(uint8_t tc) {
 80052c8:	b580      	push	{r7, lr}
 80052ca:	b082      	sub	sp, #8
 80052cc:	af00      	add	r7, sp, #0
 80052ce:	4603      	mov	r3, r0
 80052d0:	71fb      	strb	r3, [r7, #7]
    tc = !!tc;                                  /* Convert to 1 or 0 value only */
 80052d2:	79fb      	ldrb	r3, [r7, #7]
 80052d4:	2b00      	cmp	r3, #0
 80052d6:	bf14      	ite	ne
 80052d8:	2301      	movne	r3, #1
 80052da:	2300      	moveq	r3, #0
 80052dc:	b2db      	uxtb	r3, r3
 80052de:	71fb      	strb	r3, [r7, #7]

    if (current_led < NR_OF_LEDS) {
 80052e0:	4b17      	ldr	r3, [pc, #92]	; (8005340 <led_update_sequence+0x78>)
 80052e2:	681b      	ldr	r3, [r3, #0]
 80052e4:	2b3d      	cmp	r3, #61	; 0x3d
 80052e6:	d817      	bhi.n	8005318 <led_update_sequence+0x50>

			current_led++;
 80052e8:	4b15      	ldr	r3, [pc, #84]	; (8005340 <led_update_sequence+0x78>)
 80052ea:	681b      	ldr	r3, [r3, #0]
 80052ec:	3301      	adds	r3, #1
 80052ee:	4a14      	ldr	r2, [pc, #80]	; (8005340 <led_update_sequence+0x78>)
 80052f0:	6013      	str	r3, [r2, #0]
			 *  - Prepare first part of array, because either there is no transfer
			 *      or second part (from HT to TC) is now in process for PWM transfer
			 *
			 * In other case (TC = 1)
			 */
			if (!tc) {
 80052f2:	79fb      	ldrb	r3, [r7, #7]
 80052f4:	2b00      	cmp	r3, #0
 80052f6:	d107      	bne.n	8005308 <led_update_sequence+0x40>
				led_fill_led_pwm_data(current_led, &tmp_led_data[0]);
 80052f8:	4b11      	ldr	r3, [pc, #68]	; (8005340 <led_update_sequence+0x78>)
 80052fa:	681b      	ldr	r3, [r3, #0]
 80052fc:	b2db      	uxtb	r3, r3
 80052fe:	4911      	ldr	r1, [pc, #68]	; (8005344 <led_update_sequence+0x7c>)
 8005300:	4618      	mov	r0, r3
 8005302:	f7ff ff59 	bl	80051b8 <led_fill_led_pwm_data>
	} else if ((!tc && (NR_OF_LEDS & 0x01)) || (tc && !(NR_OF_LEDS & 0x01))) {
		LL_TIM_CC_DisableChannel(TIM2, LL_TIM_CHANNEL_CH2); /* Disable channel */
		LL_TIM_DisableCounter(TIM2);
		LL_DMA_DisableStream(DMA1, LL_DMA_STREAM_6);
	}
}
 8005306:	e017      	b.n	8005338 <led_update_sequence+0x70>
				led_fill_led_pwm_data(current_led, &tmp_led_data[3*8]);
 8005308:	4b0d      	ldr	r3, [pc, #52]	; (8005340 <led_update_sequence+0x78>)
 800530a:	681b      	ldr	r3, [r3, #0]
 800530c:	b2db      	uxtb	r3, r3
 800530e:	490e      	ldr	r1, [pc, #56]	; (8005348 <led_update_sequence+0x80>)
 8005310:	4618      	mov	r0, r3
 8005312:	f7ff ff51 	bl	80051b8 <led_fill_led_pwm_data>
}
 8005316:	e00f      	b.n	8005338 <led_update_sequence+0x70>
	} else if ((!tc && (NR_OF_LEDS & 0x01)) || (tc && !(NR_OF_LEDS & 0x01))) {
 8005318:	79fb      	ldrb	r3, [r7, #7]
 800531a:	2b00      	cmp	r3, #0
 800531c:	d00c      	beq.n	8005338 <led_update_sequence+0x70>
		LL_TIM_CC_DisableChannel(TIM2, LL_TIM_CHANNEL_CH2); /* Disable channel */
 800531e:	2110      	movs	r1, #16
 8005320:	f04f 4080 	mov.w	r0, #1073741824	; 0x40000000
 8005324:	f7ff fd75 	bl	8004e12 <LL_TIM_CC_DisableChannel>
		LL_TIM_DisableCounter(TIM2);
 8005328:	f04f 4080 	mov.w	r0, #1073741824	; 0x40000000
 800532c:	f7ff fd32 	bl	8004d94 <LL_TIM_DisableCounter>
		LL_DMA_DisableStream(DMA1, LL_DMA_STREAM_6);
 8005330:	2106      	movs	r1, #6
 8005332:	4806      	ldr	r0, [pc, #24]	; (800534c <led_update_sequence+0x84>)
 8005334:	f7ff f9ae 	bl	8004694 <LL_DMA_DisableStream>
}
 8005338:	bf00      	nop
 800533a:	3708      	adds	r7, #8
 800533c:	46bd      	mov	sp, r7
 800533e:	bd80      	pop	{r7, pc}
 8005340:	200000ec 	.word	0x200000ec
 8005344:	2000002c 	.word	0x2000002c
 8005348:	2000008c 	.word	0x2000008c
 800534c:	40026000 	.word	0x40026000

08005350 <handleSerialData>:


void handleSerialData() {
 8005350:	b480      	push	{r7}
 8005352:	af00      	add	r7, sp, #0
	static uint8_t rxLength; /* number of data bytes to be received. addr&length not counted;  */
	static uint8_t rxByteNr;  /* index of received byte (start with 0) */
	static uint8_t rxAddress; /* node to be addressed, read from first byte */
	static uint8_t nodesSending; /* mode when nodes are sending and Pi is quiet */

	if ( (uwTick - lastTick) > 5 ) /* resync if there was no data for longer than 5 ms */
 8005354:	4b51      	ldr	r3, [pc, #324]	; (800549c <handleSerialData+0x14c>)
 8005356:	681a      	ldr	r2, [r3, #0]
 8005358:	4b51      	ldr	r3, [pc, #324]	; (80054a0 <handleSerialData+0x150>)
 800535a:	681b      	ldr	r3, [r3, #0]
 800535c:	1ad3      	subs	r3, r2, r3
 800535e:	2b05      	cmp	r3, #5
 8005360:	d90b      	bls.n	800537a <handleSerialData+0x2a>
	{
		rxLength = 0;
 8005362:	4b50      	ldr	r3, [pc, #320]	; (80054a4 <handleSerialData+0x154>)
 8005364:	2200      	movs	r2, #0
 8005366:	701a      	strb	r2, [r3, #0]
		rxByteNr = 0;
 8005368:	4b4f      	ldr	r3, [pc, #316]	; (80054a8 <handleSerialData+0x158>)
 800536a:	2200      	movs	r2, #0
 800536c:	701a      	strb	r2, [r3, #0]
		rxAddress = 0;
 800536e:	4b4f      	ldr	r3, [pc, #316]	; (80054ac <handleSerialData+0x15c>)
 8005370:	2200      	movs	r2, #0
 8005372:	701a      	strb	r2, [r3, #0]
		nodesSending = 0;
 8005374:	4b4e      	ldr	r3, [pc, #312]	; (80054b0 <handleSerialData+0x160>)
 8005376:	2200      	movs	r2, #0
 8005378:	701a      	strb	r2, [r3, #0]
	}
	lastTick = uwTick;
 800537a:	4b48      	ldr	r3, [pc, #288]	; (800549c <handleSerialData+0x14c>)
 800537c:	681b      	ldr	r3, [r3, #0]
 800537e:	4a48      	ldr	r2, [pc, #288]	; (80054a0 <handleSerialData+0x150>)
 8005380:	6013      	str	r3, [r2, #0]


	if ( nodesSending ) {
 8005382:	4b4b      	ldr	r3, [pc, #300]	; (80054b0 <handleSerialData+0x160>)
 8005384:	781b      	ldrb	r3, [r3, #0]
 8005386:	2b00      	cmp	r3, #0
 8005388:	d01d      	beq.n	80053c6 <handleSerialData+0x76>
		rxByteNr++;
 800538a:	4b47      	ldr	r3, [pc, #284]	; (80054a8 <handleSerialData+0x158>)
 800538c:	781b      	ldrb	r3, [r3, #0]
 800538e:	3301      	adds	r3, #1
 8005390:	b2da      	uxtb	r2, r3
 8005392:	4b45      	ldr	r3, [pc, #276]	; (80054a8 <handleSerialData+0x158>)
 8005394:	701a      	strb	r2, [r3, #0]
		if ( rxByteNr == 2*NODE_ADDRESS ) { /* this node is about to send except if its node 0 */
 8005396:	4b44      	ldr	r3, [pc, #272]	; (80054a8 <handleSerialData+0x158>)
 8005398:	781b      	ldrb	r3, [r3, #0]
 800539a:	2b02      	cmp	r3, #2
 800539c:	d108      	bne.n	80053b0 <handleSerialData+0x60>
			nodeStatus = 1;
 800539e:	4b45      	ldr	r3, [pc, #276]	; (80054b4 <handleSerialData+0x164>)
 80053a0:	2201      	movs	r2, #1
 80053a2:	701a      	strb	r2, [r3, #0]
			rxByteNr += 2;
 80053a4:	4b40      	ldr	r3, [pc, #256]	; (80054a8 <handleSerialData+0x158>)
 80053a6:	781b      	ldrb	r3, [r3, #0]
 80053a8:	3302      	adds	r3, #2
 80053aa:	b2da      	uxtb	r2, r3
 80053ac:	4b3e      	ldr	r3, [pc, #248]	; (80054a8 <handleSerialData+0x158>)
 80053ae:	701a      	strb	r2, [r3, #0]
		}
		if ( rxByteNr == 2*NR_OF_NODES ) { /* all nodes finished sending */
 80053b0:	4b3d      	ldr	r3, [pc, #244]	; (80054a8 <handleSerialData+0x158>)
 80053b2:	781b      	ldrb	r3, [r3, #0]
 80053b4:	2b06      	cmp	r3, #6
 80053b6:	d16c      	bne.n	8005492 <handleSerialData+0x142>
			nodesSending = 0;
 80053b8:	4b3d      	ldr	r3, [pc, #244]	; (80054b0 <handleSerialData+0x160>)
 80053ba:	2200      	movs	r2, #0
 80053bc:	701a      	strb	r2, [r3, #0]
			rxByteNr = 0;
 80053be:	4b3a      	ldr	r3, [pc, #232]	; (80054a8 <handleSerialData+0x158>)
 80053c0:	2200      	movs	r2, #0
 80053c2:	701a      	strb	r2, [r3, #0]
				rxByteNr++;
			}
		}
	}

}
 80053c4:	e065      	b.n	8005492 <handleSerialData+0x142>
		if ( rxByteNr == 0 ) {
 80053c6:	4b38      	ldr	r3, [pc, #224]	; (80054a8 <handleSerialData+0x158>)
 80053c8:	781b      	ldrb	r3, [r3, #0]
 80053ca:	2b00      	cmp	r3, #0
 80053cc:	d13f      	bne.n	800544e <handleSerialData+0xfe>
			rxByteNr++;
 80053ce:	4b36      	ldr	r3, [pc, #216]	; (80054a8 <handleSerialData+0x158>)
 80053d0:	781b      	ldrb	r3, [r3, #0]
 80053d2:	3301      	adds	r3, #1
 80053d4:	b2da      	uxtb	r2, r3
 80053d6:	4b34      	ldr	r3, [pc, #208]	; (80054a8 <handleSerialData+0x158>)
 80053d8:	701a      	strb	r2, [r3, #0]
			rxLength = currentRx & 0xf; /* get length */
 80053da:	4b37      	ldr	r3, [pc, #220]	; (80054b8 <handleSerialData+0x168>)
 80053dc:	781b      	ldrb	r3, [r3, #0]
 80053de:	f003 030f 	and.w	r3, r3, #15
 80053e2:	b2da      	uxtb	r2, r3
 80053e4:	4b2f      	ldr	r3, [pc, #188]	; (80054a4 <handleSerialData+0x154>)
 80053e6:	701a      	strb	r2, [r3, #0]
			rxAddress = currentRx>>4;  /* get address */
 80053e8:	4b33      	ldr	r3, [pc, #204]	; (80054b8 <handleSerialData+0x168>)
 80053ea:	781b      	ldrb	r3, [r3, #0]
 80053ec:	091b      	lsrs	r3, r3, #4
 80053ee:	b2da      	uxtb	r2, r3
 80053f0:	4b2e      	ldr	r3, [pc, #184]	; (80054ac <handleSerialData+0x15c>)
 80053f2:	701a      	strb	r2, [r3, #0]
			if ( rxLength == 0xf ) /* Software update */
 80053f4:	4b2b      	ldr	r3, [pc, #172]	; (80054a4 <handleSerialData+0x154>)
 80053f6:	781b      	ldrb	r3, [r3, #0]
 80053f8:	2b0f      	cmp	r3, #15
 80053fa:	d10d      	bne.n	8005418 <handleSerialData+0xc8>
				rxLength = 16; /* 16 bytes, that it is a multiple of 4 (good for CRC calculation) */
 80053fc:	4b29      	ldr	r3, [pc, #164]	; (80054a4 <handleSerialData+0x154>)
 80053fe:	2210      	movs	r2, #16
 8005400:	701a      	strb	r2, [r3, #0]
				if ( rxAddress == NODE_ADDRESS )
 8005402:	4b2a      	ldr	r3, [pc, #168]	; (80054ac <handleSerialData+0x15c>)
 8005404:	781b      	ldrb	r3, [r3, #0]
 8005406:	2b01      	cmp	r3, #1
 8005408:	d103      	bne.n	8005412 <handleSerialData+0xc2>
					nodeStatus = 2; /* Software update of this node */
 800540a:	4b2a      	ldr	r3, [pc, #168]	; (80054b4 <handleSerialData+0x164>)
 800540c:	2202      	movs	r2, #2
 800540e:	701a      	strb	r2, [r3, #0]
 8005410:	e002      	b.n	8005418 <handleSerialData+0xc8>
					nodeStatus = 3;  /* Software update of other node */
 8005412:	4b28      	ldr	r3, [pc, #160]	; (80054b4 <handleSerialData+0x164>)
 8005414:	2203      	movs	r2, #3
 8005416:	701a      	strb	r2, [r3, #0]
			if ( rxAddress == NODE_ADDRESS ) {
 8005418:	4b24      	ldr	r3, [pc, #144]	; (80054ac <handleSerialData+0x15c>)
 800541a:	781b      	ldrb	r3, [r3, #0]
 800541c:	2b01      	cmp	r3, #1
 800541e:	d103      	bne.n	8005428 <handleSerialData+0xd8>
				rxBuffer[0] = currentRx;
 8005420:	4b25      	ldr	r3, [pc, #148]	; (80054b8 <handleSerialData+0x168>)
 8005422:	781a      	ldrb	r2, [r3, #0]
 8005424:	4b25      	ldr	r3, [pc, #148]	; (80054bc <handleSerialData+0x16c>)
 8005426:	701a      	strb	r2, [r3, #0]
			if ( (rxAddress == 14) && (nodeStatus != 2) && (nodeStatus != 3) ) {
 8005428:	4b20      	ldr	r3, [pc, #128]	; (80054ac <handleSerialData+0x15c>)
 800542a:	781b      	ldrb	r3, [r3, #0]
 800542c:	2b0e      	cmp	r3, #14
 800542e:	d130      	bne.n	8005492 <handleSerialData+0x142>
 8005430:	4b20      	ldr	r3, [pc, #128]	; (80054b4 <handleSerialData+0x164>)
 8005432:	781b      	ldrb	r3, [r3, #0]
 8005434:	2b02      	cmp	r3, #2
 8005436:	d02c      	beq.n	8005492 <handleSerialData+0x142>
 8005438:	4b1e      	ldr	r3, [pc, #120]	; (80054b4 <handleSerialData+0x164>)
 800543a:	781b      	ldrb	r3, [r3, #0]
 800543c:	2b03      	cmp	r3, #3
 800543e:	d028      	beq.n	8005492 <handleSerialData+0x142>
					rxByteNr = 0;
 8005440:	4b19      	ldr	r3, [pc, #100]	; (80054a8 <handleSerialData+0x158>)
 8005442:	2200      	movs	r2, #0
 8005444:	701a      	strb	r2, [r3, #0]
					nodesSending = 1; /* more nodes are connected */
 8005446:	4b1a      	ldr	r3, [pc, #104]	; (80054b0 <handleSerialData+0x160>)
 8005448:	2201      	movs	r2, #1
 800544a:	701a      	strb	r2, [r3, #0]
}
 800544c:	e021      	b.n	8005492 <handleSerialData+0x142>
			if ( rxAddress == NODE_ADDRESS ) {
 800544e:	4b17      	ldr	r3, [pc, #92]	; (80054ac <handleSerialData+0x15c>)
 8005450:	781b      	ldrb	r3, [r3, #0]
 8005452:	2b01      	cmp	r3, #1
 8005454:	d106      	bne.n	8005464 <handleSerialData+0x114>
				rxBuffer[rxByteNr] = currentRx;
 8005456:	4b14      	ldr	r3, [pc, #80]	; (80054a8 <handleSerialData+0x158>)
 8005458:	781b      	ldrb	r3, [r3, #0]
 800545a:	461a      	mov	r2, r3
 800545c:	4b16      	ldr	r3, [pc, #88]	; (80054b8 <handleSerialData+0x168>)
 800545e:	7819      	ldrb	r1, [r3, #0]
 8005460:	4b16      	ldr	r3, [pc, #88]	; (80054bc <handleSerialData+0x16c>)
 8005462:	5499      	strb	r1, [r3, r2]
			if (rxByteNr == rxLength) {
 8005464:	4b10      	ldr	r3, [pc, #64]	; (80054a8 <handleSerialData+0x158>)
 8005466:	781a      	ldrb	r2, [r3, #0]
 8005468:	4b0e      	ldr	r3, [pc, #56]	; (80054a4 <handleSerialData+0x154>)
 800546a:	781b      	ldrb	r3, [r3, #0]
 800546c:	429a      	cmp	r2, r3
 800546e:	d10a      	bne.n	8005486 <handleSerialData+0x136>
				rxByteNr = 0;
 8005470:	4b0d      	ldr	r3, [pc, #52]	; (80054a8 <handleSerialData+0x158>)
 8005472:	2200      	movs	r2, #0
 8005474:	701a      	strb	r2, [r3, #0]
				if ( rxAddress == NODE_ADDRESS ) {
 8005476:	4b0d      	ldr	r3, [pc, #52]	; (80054ac <handleSerialData+0x15c>)
 8005478:	781b      	ldrb	r3, [r3, #0]
 800547a:	2b01      	cmp	r3, #1
 800547c:	d109      	bne.n	8005492 <handleSerialData+0x142>
					rxBufferUpdated = 1;
 800547e:	4b10      	ldr	r3, [pc, #64]	; (80054c0 <handleSerialData+0x170>)
 8005480:	2201      	movs	r2, #1
 8005482:	701a      	strb	r2, [r3, #0]
}
 8005484:	e005      	b.n	8005492 <handleSerialData+0x142>
				rxByteNr++;
 8005486:	4b08      	ldr	r3, [pc, #32]	; (80054a8 <handleSerialData+0x158>)
 8005488:	781b      	ldrb	r3, [r3, #0]
 800548a:	3301      	adds	r3, #1
 800548c:	b2da      	uxtb	r2, r3
 800548e:	4b06      	ldr	r3, [pc, #24]	; (80054a8 <handleSerialData+0x158>)
 8005490:	701a      	strb	r2, [r3, #0]
}
 8005492:	bf00      	nop
 8005494:	46bd      	mov	sp, r7
 8005496:	f85d 7b04 	ldr.w	r7, [sp], #4
 800549a:	4770      	bx	lr
 800549c:	2000020c 	.word	0x2000020c
 80054a0:	200000f0 	.word	0x200000f0
 80054a4:	200000f4 	.word	0x200000f4
 80054a8:	200000f5 	.word	0x200000f5
 80054ac:	200000f6 	.word	0x200000f6
 80054b0:	200000f7 	.word	0x200000f7
 80054b4:	20000209 	.word	0x20000209
 80054b8:	20000029 	.word	0x20000029
 80054bc:	200001f8 	.word	0x200001f8
 80054c0:	2000020a 	.word	0x2000020a

080054c4 <main>:
/**
  * @brief  The application entry point.
  * @retval int
  */
int main(void)
{
 80054c4:	b590      	push	{r4, r7, lr}
 80054c6:	b095      	sub	sp, #84	; 0x54
 80054c8:	af00      	add	r7, sp, #0
  __ASM volatile ("cpsid i" : : : "memory");
 80054ca:	b672      	cpsid	i
}
 80054cc:	bf00      	nop
	/* to be started form bootloader, see also
	 * https://embetronicx.com/tutorials/microcontrollers/stm32/bootloader/simple-stm32-bootloader-implementation-bootloader-tutorial/
	 * edit system_stm32f4xx.c as well to enter offset and #define USER_VECT_TAB_ADDRESS
	 * and edit linker script STM32F401CCUX_FLASH.ld */
	__disable_irq();
	SCB->VTOR = 0x8004000;
 80054ce:	4bb9      	ldr	r3, [pc, #740]	; (80057b4 <main+0x2f0>)
 80054d0:	4ab9      	ldr	r2, [pc, #740]	; (80057b8 <main+0x2f4>)
 80054d2:	609a      	str	r2, [r3, #8]
  __ASM volatile ("dsb 0xF":::"memory");
 80054d4:	f3bf 8f4f 	dsb	sy
}
 80054d8:	bf00      	nop
  __ASM volatile ("cpsie i" : : : "memory");
 80054da:	b662      	cpsie	i
}
 80054dc:	bf00      	nop
  /* USER CODE END 1 */

  /* MCU Configuration--------------------------------------------------------*/

  /* Reset of all peripherals, Initializes the Flash interface and the Systick. */
  HAL_Init();
 80054de:	f001 fe25 	bl	800712c <HAL_Init>

  /* USER CODE BEGIN Init */
  rxBufferUpdated = 0;
 80054e2:	4bb6      	ldr	r3, [pc, #728]	; (80057bc <main+0x2f8>)
 80054e4:	2200      	movs	r2, #0
 80054e6:	701a      	strb	r2, [r3, #0]

  nodeStatus = 0;
 80054e8:	4bb5      	ldr	r3, [pc, #724]	; (80057c0 <main+0x2fc>)
 80054ea:	2200      	movs	r2, #0
 80054ec:	701a      	strb	r2, [r3, #0]
  for (uint8_t bb = 0; bb < 17; bb++)
 80054ee:	2300      	movs	r3, #0
 80054f0:	f887 304f 	strb.w	r3, [r7, #79]	; 0x4f
 80054f4:	e009      	b.n	800550a <main+0x46>
  {
	  rxBuffer[bb] = 0;
 80054f6:	f897 304f 	ldrb.w	r3, [r7, #79]	; 0x4f
 80054fa:	4ab2      	ldr	r2, [pc, #712]	; (80057c4 <main+0x300>)
 80054fc:	2100      	movs	r1, #0
 80054fe:	54d1      	strb	r1, [r2, r3]
  for (uint8_t bb = 0; bb < 17; bb++)
 8005500:	f897 304f 	ldrb.w	r3, [r7, #79]	; 0x4f
 8005504:	3301      	adds	r3, #1
 8005506:	f887 304f 	strb.w	r3, [r7, #79]	; 0x4f
 800550a:	f897 304f 	ldrb.w	r3, [r7, #79]	; 0x4f
 800550e:	2b10      	cmp	r3, #16
 8005510:	d9f1      	bls.n	80054f6 <main+0x32>
  }

  uint8_t txSwitchesByte1 = 0; /* all switches off, switches are low-active */
 8005512:	2300      	movs	r3, #0
 8005514:	f887 304e 	strb.w	r3, [r7, #78]	; 0x4e
  uint8_t txSwitchesByte2 = 0;
 8005518:	2300      	movs	r3, #0
 800551a:	f887 304d 	strb.w	r3, [r7, #77]	; 0x4d
  uint8_t prevTxSwitchByte1 = 0;
 800551e:	2300      	movs	r3, #0
 8005520:	f887 304c 	strb.w	r3, [r7, #76]	; 0x4c
  uint8_t prevTxSwitchByte2 = 0;
 8005524:	2300      	movs	r3, #0
 8005526:	f887 304b 	strb.w	r3, [r7, #75]	; 0x4b
  uint8_t txByte1_transmitted = 0;
 800552a:	2300      	movs	r3, #0
 800552c:	f887 304a 	strb.w	r3, [r7, #74]	; 0x4a
  uint32_t stReload;
  uint32_t stNow, stOld;
  uint32_t stTicks = 0;
 8005530:	2300      	movs	r3, #0
 8005532:	643b      	str	r3, [r7, #64]	; 0x40
  uint32_t slingPulse = 0;
 8005534:	2300      	movs	r3, #0
 8005536:	63fb      	str	r3, [r7, #60]	; 0x3c
  uint32_t bumprightPulse = 0;
 8005538:	2300      	movs	r3, #0
 800553a:	63bb      	str	r3, [r7, #56]	; 0x38
  uint32_t bumpmidPulse = 0;
 800553c:	2300      	movs	r3, #0
 800553e:	637b      	str	r3, [r7, #52]	; 0x34
  uint32_t bumpleftPulse = 0;
 8005540:	2300      	movs	r3, #0
 8005542:	633b      	str	r3, [r7, #48]	; 0x30
  uint32_t kickbackPulse = 0;
 8005544:	2300      	movs	r3, #0
 8005546:	62fb      	str	r3, [r7, #44]	; 0x2c
  uint32_t kickbackGrace = 0;
 8005548:	2300      	movs	r3, #0
 800554a:	62bb      	str	r3, [r7, #40]	; 0x28
  uint32_t flipperPulse = 0;
 800554c:	2300      	movs	r3, #0
 800554e:	627b      	str	r3, [r7, #36]	; 0x24
  uint32_t readyToSendCounter = 0;
 8005550:	2300      	movs	r3, #0
 8005552:	623b      	str	r3, [r7, #32]
  uint32_t packetWatchDog = 0;
 8005554:	2300      	movs	r3, #0
 8005556:	61fb      	str	r3, [r7, #28]

  /* USER CODE END Init */

  /* Configure the system clock */
  SystemClock_Config();
 8005558:	f001 f82e 	bl	80065b8 <SystemClock_Config>
  /* USER CODE BEGIN SysInit */

  /* USER CODE END SysInit */

  /* Initialize all configured peripherals */
  MX_GPIO_Init();
 800555c:	f001 fbd4 	bl	8006d08 <MX_GPIO_Init>
  MX_DMA_Init();
 8005560:	f001 fbba 	bl	8006cd8 <MX_DMA_Init>
  MX_TIM1_Init();
 8005564:	f001 f888 	bl	8006678 <MX_TIM1_Init>
  MX_TIM2_Init();
 8005568:	f001 f920 	bl	80067ac <MX_TIM2_Init>
  MX_TIM3_Init();
 800556c:	f001 f9e6 	bl	800693c <MX_TIM3_Init>
  MX_TIM4_Init();
 8005570:	f001 fa9e 	bl	8006ab0 <MX_TIM4_Init>
  MX_USART1_UART_Init();
 8005574:	f001 fb4a 	bl	8006c0c <MX_USART1_UART_Init>
  MX_CRC_Init();
 8005578:	f001 f86a 	bl	8006650 <MX_CRC_Init>
  /* USER CODE BEGIN 2 */

  /* All outputs off */
  LL_TIM_CC_DisableChannel (TIM3, LL_TIM_CHANNEL_CH1);
 800557c:	2101      	movs	r1, #1
 800557e:	4892      	ldr	r0, [pc, #584]	; (80057c8 <main+0x304>)
 8005580:	f7ff fc47 	bl	8004e12 <LL_TIM_CC_DisableChannel>
  LL_TIM_CC_DisableChannel (TIM3, LL_TIM_CHANNEL_CH2);
 8005584:	2110      	movs	r1, #16
 8005586:	4890      	ldr	r0, [pc, #576]	; (80057c8 <main+0x304>)
 8005588:	f7ff fc43 	bl	8004e12 <LL_TIM_CC_DisableChannel>
  LL_TIM_CC_DisableChannel (TIM3, LL_TIM_CHANNEL_CH3);
 800558c:	f44f 7180 	mov.w	r1, #256	; 0x100
 8005590:	488d      	ldr	r0, [pc, #564]	; (80057c8 <main+0x304>)
 8005592:	f7ff fc3e 	bl	8004e12 <LL_TIM_CC_DisableChannel>
  LL_TIM_CC_DisableChannel (TIM3, LL_TIM_CHANNEL_CH4);
 8005596:	f44f 5180 	mov.w	r1, #4096	; 0x1000
 800559a:	488b      	ldr	r0, [pc, #556]	; (80057c8 <main+0x304>)
 800559c:	f7ff fc39 	bl	8004e12 <LL_TIM_CC_DisableChannel>
  LL_TIM_CC_DisableChannel (TIM4, LL_TIM_CHANNEL_CH1);
 80055a0:	2101      	movs	r1, #1
 80055a2:	488a      	ldr	r0, [pc, #552]	; (80057cc <main+0x308>)
 80055a4:	f7ff fc35 	bl	8004e12 <LL_TIM_CC_DisableChannel>
  LL_TIM_CC_DisableChannel (TIM4, LL_TIM_CHANNEL_CH2);
 80055a8:	2110      	movs	r1, #16
 80055aa:	4888      	ldr	r0, [pc, #544]	; (80057cc <main+0x308>)
 80055ac:	f7ff fc31 	bl	8004e12 <LL_TIM_CC_DisableChannel>
  LL_TIM_CC_DisableChannel (TIM4, LL_TIM_CHANNEL_CH3);
 80055b0:	f44f 7180 	mov.w	r1, #256	; 0x100
 80055b4:	4885      	ldr	r0, [pc, #532]	; (80057cc <main+0x308>)
 80055b6:	f7ff fc2c 	bl	8004e12 <LL_TIM_CC_DisableChannel>
  LL_TIM_CC_DisableChannel (TIM4, LL_TIM_CHANNEL_CH4);
 80055ba:	f44f 5180 	mov.w	r1, #4096	; 0x1000
 80055be:	4883      	ldr	r0, [pc, #524]	; (80057cc <main+0x308>)
 80055c0:	f7ff fc27 	bl	8004e12 <LL_TIM_CC_DisableChannel>
  LL_TIM_EnableCounter(TIM3);
 80055c4:	4880      	ldr	r0, [pc, #512]	; (80057c8 <main+0x304>)
 80055c6:	f7ff fbd5 	bl	8004d74 <LL_TIM_EnableCounter>
  LL_TIM_EnableCounter(TIM4);
 80055ca:	4880      	ldr	r0, [pc, #512]	; (80057cc <main+0x308>)
 80055cc:	f7ff fbd2 	bl	8004d74 <LL_TIM_EnableCounter>

  stOld = SysTick->VAL;
 80055d0:	4b7f      	ldr	r3, [pc, #508]	; (80057d0 <main+0x30c>)
 80055d2:	689b      	ldr	r3, [r3, #8]
 80055d4:	647b      	str	r3, [r7, #68]	; 0x44
  stReload = SysTick->LOAD;
 80055d6:	4b7e      	ldr	r3, [pc, #504]	; (80057d0 <main+0x30c>)
 80055d8:	685b      	ldr	r3, [r3, #4]
 80055da:	60bb      	str	r3, [r7, #8]
  /* Infinite loop */
  /* USER CODE BEGIN WHILE */
  while (1)
  {
		/* count systicks. Only works that easy as the while loop is shorter than 1 ms!! Ohterwise make a systick interrupt */
	    stNow = SysTick->VAL;
 80055dc:	4b7c      	ldr	r3, [pc, #496]	; (80057d0 <main+0x30c>)
 80055de:	689b      	ldr	r3, [r3, #8]
 80055e0:	607b      	str	r3, [r7, #4]
		if( stNow != stOld )
 80055e2:	687a      	ldr	r2, [r7, #4]
 80055e4:	6c7b      	ldr	r3, [r7, #68]	; 0x44
 80055e6:	429a      	cmp	r2, r3
 80055e8:	d010      	beq.n	800560c <main+0x148>
		{
			if ( stNow < stOld )
 80055ea:	687a      	ldr	r2, [r7, #4]
 80055ec:	6c7b      	ldr	r3, [r7, #68]	; 0x44
 80055ee:	429a      	cmp	r2, r3
 80055f0:	d204      	bcs.n	80055fc <main+0x138>
			{
				stTicks = (stOld - stNow);
 80055f2:	6c7a      	ldr	r2, [r7, #68]	; 0x44
 80055f4:	687b      	ldr	r3, [r7, #4]
 80055f6:	1ad3      	subs	r3, r2, r3
 80055f8:	643b      	str	r3, [r7, #64]	; 0x40
 80055fa:	e005      	b.n	8005608 <main+0x144>
			}
			else
			{
				stTicks = (stReload - stNow + stOld);
 80055fc:	68ba      	ldr	r2, [r7, #8]
 80055fe:	687b      	ldr	r3, [r7, #4]
 8005600:	1ad3      	subs	r3, r2, r3
 8005602:	6c7a      	ldr	r2, [r7, #68]	; 0x44
 8005604:	4413      	add	r3, r2
 8005606:	643b      	str	r3, [r7, #64]	; 0x40
			}
			stOld = stNow;
 8005608:	687b      	ldr	r3, [r7, #4]
 800560a:	647b      	str	r3, [r7, #68]	; 0x44
		}


		if(dataArrived)
 800560c:	4b71      	ldr	r3, [pc, #452]	; (80057d4 <main+0x310>)
 800560e:	781b      	ldrb	r3, [r3, #0]
 8005610:	2b00      	cmp	r3, #0
 8005612:	d004      	beq.n	800561e <main+0x15a>
		{
			dataArrived = 0;
 8005614:	4b6f      	ldr	r3, [pc, #444]	; (80057d4 <main+0x310>)
 8005616:	2200      	movs	r2, #0
 8005618:	701a      	strb	r2, [r3, #0]
			handleSerialData();
 800561a:	f7ff fe99 	bl	8005350 <handleSerialData>
		}


		/* ---------- SW update  ----------- */

		if ( nodeStatus == 3 ) /* Software update of other node */
 800561e:	4b68      	ldr	r3, [pc, #416]	; (80057c0 <main+0x2fc>)
 8005620:	781b      	ldrb	r3, [r3, #0]
 8005622:	2b03      	cmp	r3, #3
 8005624:	d143      	bne.n	80056ae <main+0x1ea>
		{
			  NVIC_DisableIRQ(USART1_IRQn);
 8005626:	2025      	movs	r0, #37	; 0x25
 8005628:	f7fe ff7c 	bl	8004524 <__NVIC_DisableIRQ>
			  /* All outputs off */
			  LL_TIM_CC_DisableChannel (TIM3, LL_TIM_CHANNEL_CH1);
 800562c:	2101      	movs	r1, #1
 800562e:	4866      	ldr	r0, [pc, #408]	; (80057c8 <main+0x304>)
 8005630:	f7ff fbef 	bl	8004e12 <LL_TIM_CC_DisableChannel>
			  LL_TIM_CC_DisableChannel (TIM3, LL_TIM_CHANNEL_CH2);
 8005634:	2110      	movs	r1, #16
 8005636:	4864      	ldr	r0, [pc, #400]	; (80057c8 <main+0x304>)
 8005638:	f7ff fbeb 	bl	8004e12 <LL_TIM_CC_DisableChannel>
			  LL_TIM_CC_DisableChannel (TIM3, LL_TIM_CHANNEL_CH3);
 800563c:	f44f 7180 	mov.w	r1, #256	; 0x100
 8005640:	4861      	ldr	r0, [pc, #388]	; (80057c8 <main+0x304>)
 8005642:	f7ff fbe6 	bl	8004e12 <LL_TIM_CC_DisableChannel>
			  LL_TIM_CC_DisableChannel (TIM3, LL_TIM_CHANNEL_CH4);
 8005646:	f44f 5180 	mov.w	r1, #4096	; 0x1000
 800564a:	485f      	ldr	r0, [pc, #380]	; (80057c8 <main+0x304>)
 800564c:	f7ff fbe1 	bl	8004e12 <LL_TIM_CC_DisableChannel>
			  LL_TIM_CC_DisableChannel (TIM4, LL_TIM_CHANNEL_CH1);
 8005650:	2101      	movs	r1, #1
 8005652:	485e      	ldr	r0, [pc, #376]	; (80057cc <main+0x308>)
 8005654:	f7ff fbdd 	bl	8004e12 <LL_TIM_CC_DisableChannel>
			  LL_TIM_CC_DisableChannel (TIM4, LL_TIM_CHANNEL_CH2);
 8005658:	2110      	movs	r1, #16
 800565a:	485c      	ldr	r0, [pc, #368]	; (80057cc <main+0x308>)
 800565c:	f7ff fbd9 	bl	8004e12 <LL_TIM_CC_DisableChannel>
			  LL_TIM_CC_DisableChannel (TIM4, LL_TIM_CHANNEL_CH3);
 8005660:	f44f 7180 	mov.w	r1, #256	; 0x100
 8005664:	4859      	ldr	r0, [pc, #356]	; (80057cc <main+0x308>)
 8005666:	f7ff fbd4 	bl	8004e12 <LL_TIM_CC_DisableChannel>
			  LL_TIM_CC_DisableChannel (TIM4, LL_TIM_CHANNEL_CH4);
 800566a:	f44f 5180 	mov.w	r1, #4096	; 0x1000
 800566e:	4857      	ldr	r0, [pc, #348]	; (80057cc <main+0x308>)
 8005670:	f7ff fbcf 	bl	8004e12 <LL_TIM_CC_DisableChannel>
			  LL_TIM_EnableCounter(TIM3);
 8005674:	4854      	ldr	r0, [pc, #336]	; (80057c8 <main+0x304>)
 8005676:	f7ff fb7d 	bl	8004d74 <LL_TIM_EnableCounter>
			  LL_TIM_EnableCounter(TIM4);
 800567a:	4854      	ldr	r0, [pc, #336]	; (80057cc <main+0x308>)
 800567c:	f7ff fb7a 	bl	8004d74 <LL_TIM_EnableCounter>
			  txSwitchesByte1 = 0; /* all switches off */
 8005680:	2300      	movs	r3, #0
 8005682:	f887 304e 	strb.w	r3, [r7, #78]	; 0x4e
			  txSwitchesByte2 = 0;
 8005686:	2300      	movs	r3, #0
 8005688:	f887 304d 	strb.w	r3, [r7, #77]	; 0x4d
			  prevTxSwitchByte1 = 0;
 800568c:	2300      	movs	r3, #0
 800568e:	f887 304c 	strb.w	r3, [r7, #76]	; 0x4c
			  prevTxSwitchByte2 = 0;
 8005692:	2300      	movs	r3, #0
 8005694:	f887 304b 	strb.w	r3, [r7, #75]	; 0x4b
			  LL_GPIO_ResetOutputPin(BlueLED_GPIO_Port, BlueLED_Pin);
 8005698:	f44f 5100 	mov.w	r1, #8192	; 0x2000
 800569c:	484e      	ldr	r0, [pc, #312]	; (80057d8 <main+0x314>)
 800569e:	f7ff fd62 	bl	8005166 <LL_GPIO_ResetOutputPin>

	  		  HAL_Delay(20000);
 80056a2:	f644 6020 	movw	r0, #20000	; 0x4e20
 80056a6:	f001 fdb3 	bl	8007210 <HAL_Delay>
			  NVIC_SystemReset();
 80056aa:	f7fe ffbd 	bl	8004628 <__NVIC_SystemReset>
		}

		/* write new code to flash and reset */
		if (rxBufferUpdated && (nodeStatus == 2) ) /* Software update */
 80056ae:	4b43      	ldr	r3, [pc, #268]	; (80057bc <main+0x2f8>)
 80056b0:	781b      	ldrb	r3, [r3, #0]
 80056b2:	2b00      	cmp	r3, #0
 80056b4:	d056      	beq.n	8005764 <main+0x2a0>
 80056b6:	4b42      	ldr	r3, [pc, #264]	; (80057c0 <main+0x2fc>)
 80056b8:	781b      	ldrb	r3, [r3, #0]
 80056ba:	2b02      	cmp	r3, #2
 80056bc:	d152      	bne.n	8005764 <main+0x2a0>
		{
			uint8_t ww = 0;
 80056be:	2300      	movs	r3, #0
 80056c0:	76fb      	strb	r3, [r7, #27]
			uint32_t loopcounter = 0; /* timer */
 80056c2:	2300      	movs	r3, #0
 80056c4:	617b      	str	r3, [r7, #20]
			uint8_t blbl = 0; /* blink blink - so oft wird geblinkt */
 80056c6:	2300      	movs	r3, #0
 80056c8:	74fb      	strb	r3, [r7, #19]
			uint32_t writeAddress = 0x08020000; /* begin of sector 5 */
 80056ca:	4b44      	ldr	r3, [pc, #272]	; (80057dc <main+0x318>)
 80056cc:	60fb      	str	r3, [r7, #12]
			HAL_FLASH_Unlock();
 80056ce:	f001 ff19 	bl	8007504 <HAL_FLASH_Unlock>

			while (1)
			{
				if(dataArrived)
 80056d2:	4b40      	ldr	r3, [pc, #256]	; (80057d4 <main+0x310>)
 80056d4:	781b      	ldrb	r3, [r3, #0]
 80056d6:	2b00      	cmp	r3, #0
 80056d8:	d004      	beq.n	80056e4 <main+0x220>
				{
					dataArrived = 0;
 80056da:	4b3e      	ldr	r3, [pc, #248]	; (80057d4 <main+0x310>)
 80056dc:	2200      	movs	r2, #0
 80056de:	701a      	strb	r2, [r3, #0]
					handleSerialData();
 80056e0:	f7ff fe36 	bl	8005350 <handleSerialData>
				}

				if (rxBufferUpdated && (nodeStatus == 2) )
 80056e4:	4b35      	ldr	r3, [pc, #212]	; (80057bc <main+0x2f8>)
 80056e6:	781b      	ldrb	r3, [r3, #0]
 80056e8:	2b00      	cmp	r3, #0
 80056ea:	d025      	beq.n	8005738 <main+0x274>
 80056ec:	4b34      	ldr	r3, [pc, #208]	; (80057c0 <main+0x2fc>)
 80056ee:	781b      	ldrb	r3, [r3, #0]
 80056f0:	2b02      	cmp	r3, #2
 80056f2:	d121      	bne.n	8005738 <main+0x274>
				{
					rxBufferUpdated = 0;
 80056f4:	4b31      	ldr	r3, [pc, #196]	; (80057bc <main+0x2f8>)
 80056f6:	2200      	movs	r2, #0
 80056f8:	701a      	strb	r2, [r3, #0]
					loopcounter = 0;
 80056fa:	2300      	movs	r3, #0
 80056fc:	617b      	str	r3, [r7, #20]
					LL_GPIO_TogglePin (GPIOC, LL_GPIO_PIN_13);
 80056fe:	f44f 5100 	mov.w	r1, #8192	; 0x2000
 8005702:	4835      	ldr	r0, [pc, #212]	; (80057d8 <main+0x314>)
 8005704:	f7ff fd3e 	bl	8005184 <LL_GPIO_TogglePin>
					for (ww = 0; ww < 16; ww++)
 8005708:	2300      	movs	r3, #0
 800570a:	76fb      	strb	r3, [r7, #27]
 800570c:	e011      	b.n	8005732 <main+0x26e>
					{
						HAL_FLASH_Program(FLASH_TYPEPROGRAM_BYTE, writeAddress, ((uint8_t *)(rxBuffer+1))[ww] );
 800570e:	7efb      	ldrb	r3, [r7, #27]
 8005710:	3301      	adds	r3, #1
 8005712:	4a2c      	ldr	r2, [pc, #176]	; (80057c4 <main+0x300>)
 8005714:	4413      	add	r3, r2
 8005716:	781b      	ldrb	r3, [r3, #0]
 8005718:	b2da      	uxtb	r2, r3
 800571a:	f04f 0300 	mov.w	r3, #0
 800571e:	68f9      	ldr	r1, [r7, #12]
 8005720:	2000      	movs	r0, #0
 8005722:	f001 fe9b 	bl	800745c <HAL_FLASH_Program>
						writeAddress++;
 8005726:	68fb      	ldr	r3, [r7, #12]
 8005728:	3301      	adds	r3, #1
 800572a:	60fb      	str	r3, [r7, #12]
					for (ww = 0; ww < 16; ww++)
 800572c:	7efb      	ldrb	r3, [r7, #27]
 800572e:	3301      	adds	r3, #1
 8005730:	76fb      	strb	r3, [r7, #27]
 8005732:	7efb      	ldrb	r3, [r7, #27]
 8005734:	2b0f      	cmp	r3, #15
 8005736:	d9ea      	bls.n	800570e <main+0x24a>
					}
				}
				loopcounter++;
 8005738:	697b      	ldr	r3, [r7, #20]
 800573a:	3301      	adds	r3, #1
 800573c:	617b      	str	r3, [r7, #20]
				if ( loopcounter > 3000000 ) /* ganz grob eine Sekunde */
 800573e:	697b      	ldr	r3, [r7, #20]
 8005740:	4a27      	ldr	r2, [pc, #156]	; (80057e0 <main+0x31c>)
 8005742:	4293      	cmp	r3, r2
 8005744:	d909      	bls.n	800575a <main+0x296>
				{
					LL_GPIO_TogglePin (GPIOC, LL_GPIO_PIN_13);
 8005746:	f44f 5100 	mov.w	r1, #8192	; 0x2000
 800574a:	4823      	ldr	r0, [pc, #140]	; (80057d8 <main+0x314>)
 800574c:	f7ff fd1a 	bl	8005184 <LL_GPIO_TogglePin>
					loopcounter = 0;
 8005750:	2300      	movs	r3, #0
 8005752:	617b      	str	r3, [r7, #20]
					blbl++;
 8005754:	7cfb      	ldrb	r3, [r7, #19]
 8005756:	3301      	adds	r3, #1
 8005758:	74fb      	strb	r3, [r7, #19]
				}
				if (blbl == 6) NVIC_SystemReset();
 800575a:	7cfb      	ldrb	r3, [r7, #19]
 800575c:	2b06      	cmp	r3, #6
 800575e:	d1b8      	bne.n	80056d2 <main+0x20e>
 8005760:	f7fe ff62 	bl	8004628 <__NVIC_SystemReset>
			}
		}
		/* ---------- SW update end ----------- */


		if (rxBufferUpdated) {
 8005764:	4b15      	ldr	r3, [pc, #84]	; (80057bc <main+0x2f8>)
 8005766:	781b      	ldrb	r3, [r3, #0]
 8005768:	2b00      	cmp	r3, #0
 800576a:	f000 84b2 	beq.w	80060d2 <main+0xc0e>
		  LL_GPIO_TogglePin (GPIOC, LL_GPIO_PIN_13);
 800576e:	f44f 5100 	mov.w	r1, #8192	; 0x2000
 8005772:	4819      	ldr	r0, [pc, #100]	; (80057d8 <main+0x314>)
 8005774:	f7ff fd06 	bl	8005184 <LL_GPIO_TogglePin>
		  rxBufferUpdated = 0;
 8005778:	4b10      	ldr	r3, [pc, #64]	; (80057bc <main+0x2f8>)
 800577a:	2200      	movs	r2, #0
 800577c:	701a      	strb	r2, [r3, #0]
		  packetWatchDog = 0;
 800577e:	2300      	movs	r3, #0
 8005780:	61fb      	str	r3, [r7, #28]

		  led[0] = ((rxBuffer[2]>>7)&1) ? BLUE : BLACK;
 8005782:	4b10      	ldr	r3, [pc, #64]	; (80057c4 <main+0x300>)
 8005784:	789b      	ldrb	r3, [r3, #2]
 8005786:	09db      	lsrs	r3, r3, #7
 8005788:	b2db      	uxtb	r3, r3
 800578a:	f003 0301 	and.w	r3, r3, #1
 800578e:	2b00      	cmp	r3, #0
 8005790:	d001      	beq.n	8005796 <main+0x2d2>
 8005792:	23ff      	movs	r3, #255	; 0xff
 8005794:	e000      	b.n	8005798 <main+0x2d4>
 8005796:	2300      	movs	r3, #0
 8005798:	4a12      	ldr	r2, [pc, #72]	; (80057e4 <main+0x320>)
 800579a:	6013      	str	r3, [r2, #0]
		  led[1] = ((rxBuffer[2]>>6)&1) ? RED : BLACK;
 800579c:	4b09      	ldr	r3, [pc, #36]	; (80057c4 <main+0x300>)
 800579e:	789b      	ldrb	r3, [r3, #2]
 80057a0:	099b      	lsrs	r3, r3, #6
 80057a2:	b2db      	uxtb	r3, r3
 80057a4:	f003 0301 	and.w	r3, r3, #1
 80057a8:	2b00      	cmp	r3, #0
 80057aa:	d01d      	beq.n	80057e8 <main+0x324>
 80057ac:	f44f 037f 	mov.w	r3, #16711680	; 0xff0000
 80057b0:	e01b      	b.n	80057ea <main+0x326>
 80057b2:	bf00      	nop
 80057b4:	e000ed00 	.word	0xe000ed00
 80057b8:	08004000 	.word	0x08004000
 80057bc:	2000020a 	.word	0x2000020a
 80057c0:	20000209 	.word	0x20000209
 80057c4:	200001f8 	.word	0x200001f8
 80057c8:	40000400 	.word	0x40000400
 80057cc:	40000800 	.word	0x40000800
 80057d0:	e000e010 	.word	0xe000e010
 80057d4:	20000028 	.word	0x20000028
 80057d8:	40020800 	.word	0x40020800
 80057dc:	08020000 	.word	0x08020000
 80057e0:	002dc6c0 	.word	0x002dc6c0
 80057e4:	20000100 	.word	0x20000100
 80057e8:	2300      	movs	r3, #0
 80057ea:	4aa2      	ldr	r2, [pc, #648]	; (8005a74 <main+0x5b0>)
 80057ec:	6053      	str	r3, [r2, #4]
		  led[2] = ((rxBuffer[2]>>5)&1) ? ORANGE : BLACK;
 80057ee:	4ba2      	ldr	r3, [pc, #648]	; (8005a78 <main+0x5b4>)
 80057f0:	789b      	ldrb	r3, [r3, #2]
 80057f2:	095b      	lsrs	r3, r3, #5
 80057f4:	b2db      	uxtb	r3, r3
 80057f6:	f003 0301 	and.w	r3, r3, #1
 80057fa:	2b00      	cmp	r3, #0
 80057fc:	d001      	beq.n	8005802 <main+0x33e>
 80057fe:	4b9f      	ldr	r3, [pc, #636]	; (8005a7c <main+0x5b8>)
 8005800:	e000      	b.n	8005804 <main+0x340>
 8005802:	2300      	movs	r3, #0
 8005804:	4a9b      	ldr	r2, [pc, #620]	; (8005a74 <main+0x5b0>)
 8005806:	6093      	str	r3, [r2, #8]
		  led[3] = ((rxBuffer[2]>>4)&1) ? RED : BLACK;
 8005808:	4b9b      	ldr	r3, [pc, #620]	; (8005a78 <main+0x5b4>)
 800580a:	789b      	ldrb	r3, [r3, #2]
 800580c:	091b      	lsrs	r3, r3, #4
 800580e:	b2db      	uxtb	r3, r3
 8005810:	f003 0301 	and.w	r3, r3, #1
 8005814:	2b00      	cmp	r3, #0
 8005816:	d002      	beq.n	800581e <main+0x35a>
 8005818:	f44f 037f 	mov.w	r3, #16711680	; 0xff0000
 800581c:	e000      	b.n	8005820 <main+0x35c>
 800581e:	2300      	movs	r3, #0
 8005820:	4a94      	ldr	r2, [pc, #592]	; (8005a74 <main+0x5b0>)
 8005822:	60d3      	str	r3, [r2, #12]
		  led[4] = ((rxBuffer[2]>>3)&1) ? RED : BLACK;
 8005824:	4b94      	ldr	r3, [pc, #592]	; (8005a78 <main+0x5b4>)
 8005826:	789b      	ldrb	r3, [r3, #2]
 8005828:	08db      	lsrs	r3, r3, #3
 800582a:	b2db      	uxtb	r3, r3
 800582c:	f003 0301 	and.w	r3, r3, #1
 8005830:	2b00      	cmp	r3, #0
 8005832:	d002      	beq.n	800583a <main+0x376>
 8005834:	f44f 037f 	mov.w	r3, #16711680	; 0xff0000
 8005838:	e000      	b.n	800583c <main+0x378>
 800583a:	2300      	movs	r3, #0
 800583c:	4a8d      	ldr	r2, [pc, #564]	; (8005a74 <main+0x5b0>)
 800583e:	6113      	str	r3, [r2, #16]
		  led[5] = ((rxBuffer[2]>>2)&1) ? WHITE : BLACK;
 8005840:	4b8d      	ldr	r3, [pc, #564]	; (8005a78 <main+0x5b4>)
 8005842:	789b      	ldrb	r3, [r3, #2]
 8005844:	089b      	lsrs	r3, r3, #2
 8005846:	b2db      	uxtb	r3, r3
 8005848:	f003 0301 	and.w	r3, r3, #1
 800584c:	2b00      	cmp	r3, #0
 800584e:	d002      	beq.n	8005856 <main+0x392>
 8005850:	f06f 437f 	mvn.w	r3, #4278190080	; 0xff000000
 8005854:	e000      	b.n	8005858 <main+0x394>
 8005856:	2300      	movs	r3, #0
 8005858:	4a86      	ldr	r2, [pc, #536]	; (8005a74 <main+0x5b0>)
 800585a:	6153      	str	r3, [r2, #20]
		  led[6] = ((rxBuffer[2]>>1)&1) ? WHITE : BLACK;
 800585c:	4b86      	ldr	r3, [pc, #536]	; (8005a78 <main+0x5b4>)
 800585e:	789b      	ldrb	r3, [r3, #2]
 8005860:	085b      	lsrs	r3, r3, #1
 8005862:	b2db      	uxtb	r3, r3
 8005864:	f003 0301 	and.w	r3, r3, #1
 8005868:	2b00      	cmp	r3, #0
 800586a:	d002      	beq.n	8005872 <main+0x3ae>
 800586c:	f06f 437f 	mvn.w	r3, #4278190080	; 0xff000000
 8005870:	e000      	b.n	8005874 <main+0x3b0>
 8005872:	2300      	movs	r3, #0
 8005874:	4a7f      	ldr	r2, [pc, #508]	; (8005a74 <main+0x5b0>)
 8005876:	6193      	str	r3, [r2, #24]
		  led[7] = ((rxBuffer[2]>>0)&1) ? RED : BLACK;
 8005878:	4b7f      	ldr	r3, [pc, #508]	; (8005a78 <main+0x5b4>)
 800587a:	789b      	ldrb	r3, [r3, #2]
 800587c:	f003 0301 	and.w	r3, r3, #1
 8005880:	2b00      	cmp	r3, #0
 8005882:	d002      	beq.n	800588a <main+0x3c6>
 8005884:	f44f 037f 	mov.w	r3, #16711680	; 0xff0000
 8005888:	e000      	b.n	800588c <main+0x3c8>
 800588a:	2300      	movs	r3, #0
 800588c:	4a79      	ldr	r2, [pc, #484]	; (8005a74 <main+0x5b0>)
 800588e:	61d3      	str	r3, [r2, #28]

		  led[8] = ((rxBuffer[3]>>7)&1) ? RED : BLACK;
 8005890:	4b79      	ldr	r3, [pc, #484]	; (8005a78 <main+0x5b4>)
 8005892:	78db      	ldrb	r3, [r3, #3]
 8005894:	09db      	lsrs	r3, r3, #7
 8005896:	b2db      	uxtb	r3, r3
 8005898:	f003 0301 	and.w	r3, r3, #1
 800589c:	2b00      	cmp	r3, #0
 800589e:	d002      	beq.n	80058a6 <main+0x3e2>
 80058a0:	f44f 037f 	mov.w	r3, #16711680	; 0xff0000
 80058a4:	e000      	b.n	80058a8 <main+0x3e4>
 80058a6:	2300      	movs	r3, #0
 80058a8:	4a72      	ldr	r2, [pc, #456]	; (8005a74 <main+0x5b0>)
 80058aa:	6213      	str	r3, [r2, #32]
		  led[9] = ((rxBuffer[3]>>6)&1) ? RED : BLACK;
 80058ac:	4b72      	ldr	r3, [pc, #456]	; (8005a78 <main+0x5b4>)
 80058ae:	78db      	ldrb	r3, [r3, #3]
 80058b0:	099b      	lsrs	r3, r3, #6
 80058b2:	b2db      	uxtb	r3, r3
 80058b4:	f003 0301 	and.w	r3, r3, #1
 80058b8:	2b00      	cmp	r3, #0
 80058ba:	d002      	beq.n	80058c2 <main+0x3fe>
 80058bc:	f44f 037f 	mov.w	r3, #16711680	; 0xff0000
 80058c0:	e000      	b.n	80058c4 <main+0x400>
 80058c2:	2300      	movs	r3, #0
 80058c4:	4a6b      	ldr	r2, [pc, #428]	; (8005a74 <main+0x5b0>)
 80058c6:	6253      	str	r3, [r2, #36]	; 0x24
		  led[10] = ((rxBuffer[3]>>5)&1) ? RED : BLACK;
 80058c8:	4b6b      	ldr	r3, [pc, #428]	; (8005a78 <main+0x5b4>)
 80058ca:	78db      	ldrb	r3, [r3, #3]
 80058cc:	095b      	lsrs	r3, r3, #5
 80058ce:	b2db      	uxtb	r3, r3
 80058d0:	f003 0301 	and.w	r3, r3, #1
 80058d4:	2b00      	cmp	r3, #0
 80058d6:	d002      	beq.n	80058de <main+0x41a>
 80058d8:	f44f 037f 	mov.w	r3, #16711680	; 0xff0000
 80058dc:	e000      	b.n	80058e0 <main+0x41c>
 80058de:	2300      	movs	r3, #0
 80058e0:	4a64      	ldr	r2, [pc, #400]	; (8005a74 <main+0x5b0>)
 80058e2:	6293      	str	r3, [r2, #40]	; 0x28
		  led[11] = ((rxBuffer[3]>>4)&1) ? ORANGE : BLACK;
 80058e4:	4b64      	ldr	r3, [pc, #400]	; (8005a78 <main+0x5b4>)
 80058e6:	78db      	ldrb	r3, [r3, #3]
 80058e8:	091b      	lsrs	r3, r3, #4
 80058ea:	b2db      	uxtb	r3, r3
 80058ec:	f003 0301 	and.w	r3, r3, #1
 80058f0:	2b00      	cmp	r3, #0
 80058f2:	d001      	beq.n	80058f8 <main+0x434>
 80058f4:	4b61      	ldr	r3, [pc, #388]	; (8005a7c <main+0x5b8>)
 80058f6:	e000      	b.n	80058fa <main+0x436>
 80058f8:	2300      	movs	r3, #0
 80058fa:	4a5e      	ldr	r2, [pc, #376]	; (8005a74 <main+0x5b0>)
 80058fc:	62d3      	str	r3, [r2, #44]	; 0x2c
		  led[12] = ((rxBuffer[3]>>3)&1) ? RED : BLACK;
 80058fe:	4b5e      	ldr	r3, [pc, #376]	; (8005a78 <main+0x5b4>)
 8005900:	78db      	ldrb	r3, [r3, #3]
 8005902:	08db      	lsrs	r3, r3, #3
 8005904:	b2db      	uxtb	r3, r3
 8005906:	f003 0301 	and.w	r3, r3, #1
 800590a:	2b00      	cmp	r3, #0
 800590c:	d002      	beq.n	8005914 <main+0x450>
 800590e:	f44f 037f 	mov.w	r3, #16711680	; 0xff0000
 8005912:	e000      	b.n	8005916 <main+0x452>
 8005914:	2300      	movs	r3, #0
 8005916:	4a57      	ldr	r2, [pc, #348]	; (8005a74 <main+0x5b0>)
 8005918:	6313      	str	r3, [r2, #48]	; 0x30
		  led[13] = ((rxBuffer[3]>>2)&1) ? ORANGE : BLACK;
 800591a:	4b57      	ldr	r3, [pc, #348]	; (8005a78 <main+0x5b4>)
 800591c:	78db      	ldrb	r3, [r3, #3]
 800591e:	089b      	lsrs	r3, r3, #2
 8005920:	b2db      	uxtb	r3, r3
 8005922:	f003 0301 	and.w	r3, r3, #1
 8005926:	2b00      	cmp	r3, #0
 8005928:	d001      	beq.n	800592e <main+0x46a>
 800592a:	4b54      	ldr	r3, [pc, #336]	; (8005a7c <main+0x5b8>)
 800592c:	e000      	b.n	8005930 <main+0x46c>
 800592e:	2300      	movs	r3, #0
 8005930:	4a50      	ldr	r2, [pc, #320]	; (8005a74 <main+0x5b0>)
 8005932:	6353      	str	r3, [r2, #52]	; 0x34
		  led[14] = ((rxBuffer[3]>>1)&1) ? ORANGE : BLACK;
 8005934:	4b50      	ldr	r3, [pc, #320]	; (8005a78 <main+0x5b4>)
 8005936:	78db      	ldrb	r3, [r3, #3]
 8005938:	085b      	lsrs	r3, r3, #1
 800593a:	b2db      	uxtb	r3, r3
 800593c:	f003 0301 	and.w	r3, r3, #1
 8005940:	2b00      	cmp	r3, #0
 8005942:	d001      	beq.n	8005948 <main+0x484>
 8005944:	4b4d      	ldr	r3, [pc, #308]	; (8005a7c <main+0x5b8>)
 8005946:	e000      	b.n	800594a <main+0x486>
 8005948:	2300      	movs	r3, #0
 800594a:	4a4a      	ldr	r2, [pc, #296]	; (8005a74 <main+0x5b0>)
 800594c:	6393      	str	r3, [r2, #56]	; 0x38
		  led[15] = ((rxBuffer[3]>>0)&1) ? RED : BLACK;
 800594e:	4b4a      	ldr	r3, [pc, #296]	; (8005a78 <main+0x5b4>)
 8005950:	78db      	ldrb	r3, [r3, #3]
 8005952:	f003 0301 	and.w	r3, r3, #1
 8005956:	2b00      	cmp	r3, #0
 8005958:	d002      	beq.n	8005960 <main+0x49c>
 800595a:	f44f 037f 	mov.w	r3, #16711680	; 0xff0000
 800595e:	e000      	b.n	8005962 <main+0x49e>
 8005960:	2300      	movs	r3, #0
 8005962:	4a44      	ldr	r2, [pc, #272]	; (8005a74 <main+0x5b0>)
 8005964:	63d3      	str	r3, [r2, #60]	; 0x3c

		  led[16] = ((rxBuffer[4]>>7)&1) ? RED : BLACK;
 8005966:	4b44      	ldr	r3, [pc, #272]	; (8005a78 <main+0x5b4>)
 8005968:	791b      	ldrb	r3, [r3, #4]
 800596a:	09db      	lsrs	r3, r3, #7
 800596c:	b2db      	uxtb	r3, r3
 800596e:	f003 0301 	and.w	r3, r3, #1
 8005972:	2b00      	cmp	r3, #0
 8005974:	d002      	beq.n	800597c <main+0x4b8>
 8005976:	f44f 037f 	mov.w	r3, #16711680	; 0xff0000
 800597a:	e000      	b.n	800597e <main+0x4ba>
 800597c:	2300      	movs	r3, #0
 800597e:	4a3d      	ldr	r2, [pc, #244]	; (8005a74 <main+0x5b0>)
 8005980:	6413      	str	r3, [r2, #64]	; 0x40
		  led[17] = ((rxBuffer[4]>>6)&1) ? WHITE : BLACK;
 8005982:	4b3d      	ldr	r3, [pc, #244]	; (8005a78 <main+0x5b4>)
 8005984:	791b      	ldrb	r3, [r3, #4]
 8005986:	099b      	lsrs	r3, r3, #6
 8005988:	b2db      	uxtb	r3, r3
 800598a:	f003 0301 	and.w	r3, r3, #1
 800598e:	2b00      	cmp	r3, #0
 8005990:	d002      	beq.n	8005998 <main+0x4d4>
 8005992:	f06f 437f 	mvn.w	r3, #4278190080	; 0xff000000
 8005996:	e000      	b.n	800599a <main+0x4d6>
 8005998:	2300      	movs	r3, #0
 800599a:	4a36      	ldr	r2, [pc, #216]	; (8005a74 <main+0x5b0>)
 800599c:	6453      	str	r3, [r2, #68]	; 0x44
		  led[18] = ((rxBuffer[4]>>5)&1) ? RED : BLACK;
 800599e:	4b36      	ldr	r3, [pc, #216]	; (8005a78 <main+0x5b4>)
 80059a0:	791b      	ldrb	r3, [r3, #4]
 80059a2:	095b      	lsrs	r3, r3, #5
 80059a4:	b2db      	uxtb	r3, r3
 80059a6:	f003 0301 	and.w	r3, r3, #1
 80059aa:	2b00      	cmp	r3, #0
 80059ac:	d002      	beq.n	80059b4 <main+0x4f0>
 80059ae:	f44f 037f 	mov.w	r3, #16711680	; 0xff0000
 80059b2:	e000      	b.n	80059b6 <main+0x4f2>
 80059b4:	2300      	movs	r3, #0
 80059b6:	4a2f      	ldr	r2, [pc, #188]	; (8005a74 <main+0x5b0>)
 80059b8:	6493      	str	r3, [r2, #72]	; 0x48
		  led[19] = ((rxBuffer[4]>>4)&1) ? YELLOW : BLACK;
 80059ba:	4b2f      	ldr	r3, [pc, #188]	; (8005a78 <main+0x5b4>)
 80059bc:	791b      	ldrb	r3, [r3, #4]
 80059be:	091b      	lsrs	r3, r3, #4
 80059c0:	b2db      	uxtb	r3, r3
 80059c2:	f003 0301 	and.w	r3, r3, #1
 80059c6:	2b00      	cmp	r3, #0
 80059c8:	d001      	beq.n	80059ce <main+0x50a>
 80059ca:	4b2d      	ldr	r3, [pc, #180]	; (8005a80 <main+0x5bc>)
 80059cc:	e000      	b.n	80059d0 <main+0x50c>
 80059ce:	2300      	movs	r3, #0
 80059d0:	4a28      	ldr	r2, [pc, #160]	; (8005a74 <main+0x5b0>)
 80059d2:	64d3      	str	r3, [r2, #76]	; 0x4c
		  led[20] = ((rxBuffer[4]>>3)&1) ? RED : BLACK;
 80059d4:	4b28      	ldr	r3, [pc, #160]	; (8005a78 <main+0x5b4>)
 80059d6:	791b      	ldrb	r3, [r3, #4]
 80059d8:	08db      	lsrs	r3, r3, #3
 80059da:	b2db      	uxtb	r3, r3
 80059dc:	f003 0301 	and.w	r3, r3, #1
 80059e0:	2b00      	cmp	r3, #0
 80059e2:	d002      	beq.n	80059ea <main+0x526>
 80059e4:	f44f 037f 	mov.w	r3, #16711680	; 0xff0000
 80059e8:	e000      	b.n	80059ec <main+0x528>
 80059ea:	2300      	movs	r3, #0
 80059ec:	4a21      	ldr	r2, [pc, #132]	; (8005a74 <main+0x5b0>)
 80059ee:	6513      	str	r3, [r2, #80]	; 0x50
		  led[21] = ((rxBuffer[4]>>2)&1) ? RED : BLACK;
 80059f0:	4b21      	ldr	r3, [pc, #132]	; (8005a78 <main+0x5b4>)
 80059f2:	791b      	ldrb	r3, [r3, #4]
 80059f4:	089b      	lsrs	r3, r3, #2
 80059f6:	b2db      	uxtb	r3, r3
 80059f8:	f003 0301 	and.w	r3, r3, #1
 80059fc:	2b00      	cmp	r3, #0
 80059fe:	d002      	beq.n	8005a06 <main+0x542>
 8005a00:	f44f 037f 	mov.w	r3, #16711680	; 0xff0000
 8005a04:	e000      	b.n	8005a08 <main+0x544>
 8005a06:	2300      	movs	r3, #0
 8005a08:	4a1a      	ldr	r2, [pc, #104]	; (8005a74 <main+0x5b0>)
 8005a0a:	6553      	str	r3, [r2, #84]	; 0x54
		  led[22] = ((rxBuffer[4]>>1)&1) ? RED : BLACK;
 8005a0c:	4b1a      	ldr	r3, [pc, #104]	; (8005a78 <main+0x5b4>)
 8005a0e:	791b      	ldrb	r3, [r3, #4]
 8005a10:	085b      	lsrs	r3, r3, #1
 8005a12:	b2db      	uxtb	r3, r3
 8005a14:	f003 0301 	and.w	r3, r3, #1
 8005a18:	2b00      	cmp	r3, #0
 8005a1a:	d002      	beq.n	8005a22 <main+0x55e>
 8005a1c:	f44f 037f 	mov.w	r3, #16711680	; 0xff0000
 8005a20:	e000      	b.n	8005a24 <main+0x560>
 8005a22:	2300      	movs	r3, #0
 8005a24:	4a13      	ldr	r2, [pc, #76]	; (8005a74 <main+0x5b0>)
 8005a26:	6593      	str	r3, [r2, #88]	; 0x58
		  led[23] = ((rxBuffer[4]>>0)&1) ? RED : BLACK;
 8005a28:	4b13      	ldr	r3, [pc, #76]	; (8005a78 <main+0x5b4>)
 8005a2a:	791b      	ldrb	r3, [r3, #4]
 8005a2c:	f003 0301 	and.w	r3, r3, #1
 8005a30:	2b00      	cmp	r3, #0
 8005a32:	d002      	beq.n	8005a3a <main+0x576>
 8005a34:	f44f 037f 	mov.w	r3, #16711680	; 0xff0000
 8005a38:	e000      	b.n	8005a3c <main+0x578>
 8005a3a:	2300      	movs	r3, #0
 8005a3c:	4a0d      	ldr	r2, [pc, #52]	; (8005a74 <main+0x5b0>)
 8005a3e:	65d3      	str	r3, [r2, #92]	; 0x5c

		  led[24] = ((rxBuffer[5]>>7)&1) ? WHITE : BLACK;
 8005a40:	4b0d      	ldr	r3, [pc, #52]	; (8005a78 <main+0x5b4>)
 8005a42:	795b      	ldrb	r3, [r3, #5]
 8005a44:	09db      	lsrs	r3, r3, #7
 8005a46:	b2db      	uxtb	r3, r3
 8005a48:	f003 0301 	and.w	r3, r3, #1
 8005a4c:	2b00      	cmp	r3, #0
 8005a4e:	d002      	beq.n	8005a56 <main+0x592>
 8005a50:	f06f 437f 	mvn.w	r3, #4278190080	; 0xff000000
 8005a54:	e000      	b.n	8005a58 <main+0x594>
 8005a56:	2300      	movs	r3, #0
 8005a58:	4a06      	ldr	r2, [pc, #24]	; (8005a74 <main+0x5b0>)
 8005a5a:	6613      	str	r3, [r2, #96]	; 0x60
		  led[25] = ((rxBuffer[5]>>6)&1) ? RED : BLACK;
 8005a5c:	4b06      	ldr	r3, [pc, #24]	; (8005a78 <main+0x5b4>)
 8005a5e:	795b      	ldrb	r3, [r3, #5]
 8005a60:	099b      	lsrs	r3, r3, #6
 8005a62:	b2db      	uxtb	r3, r3
 8005a64:	f003 0301 	and.w	r3, r3, #1
 8005a68:	2b00      	cmp	r3, #0
 8005a6a:	d00b      	beq.n	8005a84 <main+0x5c0>
 8005a6c:	f44f 037f 	mov.w	r3, #16711680	; 0xff0000
 8005a70:	e009      	b.n	8005a86 <main+0x5c2>
 8005a72:	bf00      	nop
 8005a74:	20000100 	.word	0x20000100
 8005a78:	200001f8 	.word	0x200001f8
 8005a7c:	00ff4000 	.word	0x00ff4000
 8005a80:	00ffff00 	.word	0x00ffff00
 8005a84:	2300      	movs	r3, #0
 8005a86:	4aa9      	ldr	r2, [pc, #676]	; (8005d2c <main+0x868>)
 8005a88:	6653      	str	r3, [r2, #100]	; 0x64
		  led[26] = ((rxBuffer[5]>>5)&1) ? PINK : BLACK;
 8005a8a:	4ba9      	ldr	r3, [pc, #676]	; (8005d30 <main+0x86c>)
 8005a8c:	795b      	ldrb	r3, [r3, #5]
 8005a8e:	095b      	lsrs	r3, r3, #5
 8005a90:	b2db      	uxtb	r3, r3
 8005a92:	f003 0301 	and.w	r3, r3, #1
 8005a96:	2b00      	cmp	r3, #0
 8005a98:	d001      	beq.n	8005a9e <main+0x5da>
 8005a9a:	4ba6      	ldr	r3, [pc, #664]	; (8005d34 <main+0x870>)
 8005a9c:	e000      	b.n	8005aa0 <main+0x5dc>
 8005a9e:	2300      	movs	r3, #0
 8005aa0:	4aa2      	ldr	r2, [pc, #648]	; (8005d2c <main+0x868>)
 8005aa2:	6693      	str	r3, [r2, #104]	; 0x68
		  led[27] = ((rxBuffer[5]>>4)&1) ? WHITE : BLACK;
 8005aa4:	4ba2      	ldr	r3, [pc, #648]	; (8005d30 <main+0x86c>)
 8005aa6:	795b      	ldrb	r3, [r3, #5]
 8005aa8:	091b      	lsrs	r3, r3, #4
 8005aaa:	b2db      	uxtb	r3, r3
 8005aac:	f003 0301 	and.w	r3, r3, #1
 8005ab0:	2b00      	cmp	r3, #0
 8005ab2:	d002      	beq.n	8005aba <main+0x5f6>
 8005ab4:	f06f 437f 	mvn.w	r3, #4278190080	; 0xff000000
 8005ab8:	e000      	b.n	8005abc <main+0x5f8>
 8005aba:	2300      	movs	r3, #0
 8005abc:	4a9b      	ldr	r2, [pc, #620]	; (8005d2c <main+0x868>)
 8005abe:	66d3      	str	r3, [r2, #108]	; 0x6c
		  led[28] = ((rxBuffer[5]>>3)&1) ? WHITE : BLACK;
 8005ac0:	4b9b      	ldr	r3, [pc, #620]	; (8005d30 <main+0x86c>)
 8005ac2:	795b      	ldrb	r3, [r3, #5]
 8005ac4:	08db      	lsrs	r3, r3, #3
 8005ac6:	b2db      	uxtb	r3, r3
 8005ac8:	f003 0301 	and.w	r3, r3, #1
 8005acc:	2b00      	cmp	r3, #0
 8005ace:	d002      	beq.n	8005ad6 <main+0x612>
 8005ad0:	f06f 437f 	mvn.w	r3, #4278190080	; 0xff000000
 8005ad4:	e000      	b.n	8005ad8 <main+0x614>
 8005ad6:	2300      	movs	r3, #0
 8005ad8:	4a94      	ldr	r2, [pc, #592]	; (8005d2c <main+0x868>)
 8005ada:	6713      	str	r3, [r2, #112]	; 0x70
		  led[29] = ((rxBuffer[5]>>2)&1) ? WHITE : BLACK;
 8005adc:	4b94      	ldr	r3, [pc, #592]	; (8005d30 <main+0x86c>)
 8005ade:	795b      	ldrb	r3, [r3, #5]
 8005ae0:	089b      	lsrs	r3, r3, #2
 8005ae2:	b2db      	uxtb	r3, r3
 8005ae4:	f003 0301 	and.w	r3, r3, #1
 8005ae8:	2b00      	cmp	r3, #0
 8005aea:	d002      	beq.n	8005af2 <main+0x62e>
 8005aec:	f06f 437f 	mvn.w	r3, #4278190080	; 0xff000000
 8005af0:	e000      	b.n	8005af4 <main+0x630>
 8005af2:	2300      	movs	r3, #0
 8005af4:	4a8d      	ldr	r2, [pc, #564]	; (8005d2c <main+0x868>)
 8005af6:	6753      	str	r3, [r2, #116]	; 0x74
		  led[30] = ((rxBuffer[5]>>1)&1) ? RED : BLACK;
 8005af8:	4b8d      	ldr	r3, [pc, #564]	; (8005d30 <main+0x86c>)
 8005afa:	795b      	ldrb	r3, [r3, #5]
 8005afc:	085b      	lsrs	r3, r3, #1
 8005afe:	b2db      	uxtb	r3, r3
 8005b00:	f003 0301 	and.w	r3, r3, #1
 8005b04:	2b00      	cmp	r3, #0
 8005b06:	d002      	beq.n	8005b0e <main+0x64a>
 8005b08:	f44f 037f 	mov.w	r3, #16711680	; 0xff0000
 8005b0c:	e000      	b.n	8005b10 <main+0x64c>
 8005b0e:	2300      	movs	r3, #0
 8005b10:	4a86      	ldr	r2, [pc, #536]	; (8005d2c <main+0x868>)
 8005b12:	6793      	str	r3, [r2, #120]	; 0x78
/*		  led[31] = ((rxBuffer[5]>>0)&1) ? WHITE : BLACK;*/
		  if ((rxBuffer[5]>>0)&1) led[31] = WHITE;
 8005b14:	4b86      	ldr	r3, [pc, #536]	; (8005d30 <main+0x86c>)
 8005b16:	795b      	ldrb	r3, [r3, #5]
 8005b18:	f003 0301 	and.w	r3, r3, #1
 8005b1c:	2b00      	cmp	r3, #0
 8005b1e:	d004      	beq.n	8005b2a <main+0x666>
 8005b20:	4b82      	ldr	r3, [pc, #520]	; (8005d2c <main+0x868>)
 8005b22:	f06f 427f 	mvn.w	r2, #4278190080	; 0xff000000
 8005b26:	67da      	str	r2, [r3, #124]	; 0x7c
 8005b28:	e028      	b.n	8005b7c <main+0x6b8>
		  else if ((rxBuffer[9]>>7)&1) led[31] = RED;
 8005b2a:	4b81      	ldr	r3, [pc, #516]	; (8005d30 <main+0x86c>)
 8005b2c:	7a5b      	ldrb	r3, [r3, #9]
 8005b2e:	09db      	lsrs	r3, r3, #7
 8005b30:	b2db      	uxtb	r3, r3
 8005b32:	f003 0301 	and.w	r3, r3, #1
 8005b36:	2b00      	cmp	r3, #0
 8005b38:	d004      	beq.n	8005b44 <main+0x680>
 8005b3a:	4b7c      	ldr	r3, [pc, #496]	; (8005d2c <main+0x868>)
 8005b3c:	f44f 027f 	mov.w	r2, #16711680	; 0xff0000
 8005b40:	67da      	str	r2, [r3, #124]	; 0x7c
 8005b42:	e01b      	b.n	8005b7c <main+0x6b8>
		  else if ((rxBuffer[9]>>6)&1) led[31] = YELLOW;
 8005b44:	4b7a      	ldr	r3, [pc, #488]	; (8005d30 <main+0x86c>)
 8005b46:	7a5b      	ldrb	r3, [r3, #9]
 8005b48:	099b      	lsrs	r3, r3, #6
 8005b4a:	b2db      	uxtb	r3, r3
 8005b4c:	f003 0301 	and.w	r3, r3, #1
 8005b50:	2b00      	cmp	r3, #0
 8005b52:	d003      	beq.n	8005b5c <main+0x698>
 8005b54:	4b75      	ldr	r3, [pc, #468]	; (8005d2c <main+0x868>)
 8005b56:	4a78      	ldr	r2, [pc, #480]	; (8005d38 <main+0x874>)
 8005b58:	67da      	str	r2, [r3, #124]	; 0x7c
 8005b5a:	e00f      	b.n	8005b7c <main+0x6b8>
		  else if ((rxBuffer[9]>>5)&1) led[31] = GREEN;
 8005b5c:	4b74      	ldr	r3, [pc, #464]	; (8005d30 <main+0x86c>)
 8005b5e:	7a5b      	ldrb	r3, [r3, #9]
 8005b60:	095b      	lsrs	r3, r3, #5
 8005b62:	b2db      	uxtb	r3, r3
 8005b64:	f003 0301 	and.w	r3, r3, #1
 8005b68:	2b00      	cmp	r3, #0
 8005b6a:	d004      	beq.n	8005b76 <main+0x6b2>
 8005b6c:	4b6f      	ldr	r3, [pc, #444]	; (8005d2c <main+0x868>)
 8005b6e:	f44f 427f 	mov.w	r2, #65280	; 0xff00
 8005b72:	67da      	str	r2, [r3, #124]	; 0x7c
 8005b74:	e002      	b.n	8005b7c <main+0x6b8>
		  else led[31] = BLACK;
 8005b76:	4b6d      	ldr	r3, [pc, #436]	; (8005d2c <main+0x868>)
 8005b78:	2200      	movs	r2, #0
 8005b7a:	67da      	str	r2, [r3, #124]	; 0x7c

/*		  led[32] = ((rxBuffer[6]>>7)&1) ? WHITE : BLACK;*/
		  if ((rxBuffer[6]>>7)&1) led[32] = WHITE;
 8005b7c:	4b6c      	ldr	r3, [pc, #432]	; (8005d30 <main+0x86c>)
 8005b7e:	799b      	ldrb	r3, [r3, #6]
 8005b80:	09db      	lsrs	r3, r3, #7
 8005b82:	b2db      	uxtb	r3, r3
 8005b84:	f003 0301 	and.w	r3, r3, #1
 8005b88:	2b00      	cmp	r3, #0
 8005b8a:	d005      	beq.n	8005b98 <main+0x6d4>
 8005b8c:	4b67      	ldr	r3, [pc, #412]	; (8005d2c <main+0x868>)
 8005b8e:	f06f 427f 	mvn.w	r2, #4278190080	; 0xff000000
 8005b92:	f8c3 2080 	str.w	r2, [r3, #128]	; 0x80
 8005b96:	e02c      	b.n	8005bf2 <main+0x72e>
		  else if ((rxBuffer[8]>>5)&1) led[32] = RED;
 8005b98:	4b65      	ldr	r3, [pc, #404]	; (8005d30 <main+0x86c>)
 8005b9a:	7a1b      	ldrb	r3, [r3, #8]
 8005b9c:	095b      	lsrs	r3, r3, #5
 8005b9e:	b2db      	uxtb	r3, r3
 8005ba0:	f003 0301 	and.w	r3, r3, #1
 8005ba4:	2b00      	cmp	r3, #0
 8005ba6:	d005      	beq.n	8005bb4 <main+0x6f0>
 8005ba8:	4b60      	ldr	r3, [pc, #384]	; (8005d2c <main+0x868>)
 8005baa:	f44f 027f 	mov.w	r2, #16711680	; 0xff0000
 8005bae:	f8c3 2080 	str.w	r2, [r3, #128]	; 0x80
 8005bb2:	e01e      	b.n	8005bf2 <main+0x72e>
		  else if ((rxBuffer[8]>>4)&1) led[32] = YELLOW;
 8005bb4:	4b5e      	ldr	r3, [pc, #376]	; (8005d30 <main+0x86c>)
 8005bb6:	7a1b      	ldrb	r3, [r3, #8]
 8005bb8:	091b      	lsrs	r3, r3, #4
 8005bba:	b2db      	uxtb	r3, r3
 8005bbc:	f003 0301 	and.w	r3, r3, #1
 8005bc0:	2b00      	cmp	r3, #0
 8005bc2:	d004      	beq.n	8005bce <main+0x70a>
 8005bc4:	4b59      	ldr	r3, [pc, #356]	; (8005d2c <main+0x868>)
 8005bc6:	4a5c      	ldr	r2, [pc, #368]	; (8005d38 <main+0x874>)
 8005bc8:	f8c3 2080 	str.w	r2, [r3, #128]	; 0x80
 8005bcc:	e011      	b.n	8005bf2 <main+0x72e>
		  else if ((rxBuffer[8]>>3)&1) led[32] = GREEN;
 8005bce:	4b58      	ldr	r3, [pc, #352]	; (8005d30 <main+0x86c>)
 8005bd0:	7a1b      	ldrb	r3, [r3, #8]
 8005bd2:	08db      	lsrs	r3, r3, #3
 8005bd4:	b2db      	uxtb	r3, r3
 8005bd6:	f003 0301 	and.w	r3, r3, #1
 8005bda:	2b00      	cmp	r3, #0
 8005bdc:	d005      	beq.n	8005bea <main+0x726>
 8005bde:	4b53      	ldr	r3, [pc, #332]	; (8005d2c <main+0x868>)
 8005be0:	f44f 427f 	mov.w	r2, #65280	; 0xff00
 8005be4:	f8c3 2080 	str.w	r2, [r3, #128]	; 0x80
 8005be8:	e003      	b.n	8005bf2 <main+0x72e>
		  else led[32] = BLACK;
 8005bea:	4b50      	ldr	r3, [pc, #320]	; (8005d2c <main+0x868>)
 8005bec:	2200      	movs	r2, #0
 8005bee:	f8c3 2080 	str.w	r2, [r3, #128]	; 0x80
		  led[33] = ((rxBuffer[6]>>6)&1) ? RED : BLACK;
 8005bf2:	4b4f      	ldr	r3, [pc, #316]	; (8005d30 <main+0x86c>)
 8005bf4:	799b      	ldrb	r3, [r3, #6]
 8005bf6:	099b      	lsrs	r3, r3, #6
 8005bf8:	b2db      	uxtb	r3, r3
 8005bfa:	f003 0301 	and.w	r3, r3, #1
 8005bfe:	2b00      	cmp	r3, #0
 8005c00:	d002      	beq.n	8005c08 <main+0x744>
 8005c02:	f44f 037f 	mov.w	r3, #16711680	; 0xff0000
 8005c06:	e000      	b.n	8005c0a <main+0x746>
 8005c08:	2300      	movs	r3, #0
 8005c0a:	4a48      	ldr	r2, [pc, #288]	; (8005d2c <main+0x868>)
 8005c0c:	f8c2 3084 	str.w	r3, [r2, #132]	; 0x84
		  led[34] = ((rxBuffer[6]>>5)&1) ? RED : BLACK;
 8005c10:	4b47      	ldr	r3, [pc, #284]	; (8005d30 <main+0x86c>)
 8005c12:	799b      	ldrb	r3, [r3, #6]
 8005c14:	095b      	lsrs	r3, r3, #5
 8005c16:	b2db      	uxtb	r3, r3
 8005c18:	f003 0301 	and.w	r3, r3, #1
 8005c1c:	2b00      	cmp	r3, #0
 8005c1e:	d002      	beq.n	8005c26 <main+0x762>
 8005c20:	f44f 037f 	mov.w	r3, #16711680	; 0xff0000
 8005c24:	e000      	b.n	8005c28 <main+0x764>
 8005c26:	2300      	movs	r3, #0
 8005c28:	4a40      	ldr	r2, [pc, #256]	; (8005d2c <main+0x868>)
 8005c2a:	f8c2 3088 	str.w	r3, [r2, #136]	; 0x88
		  led[35] = ((rxBuffer[6]>>4)&1) ? RED : BLACK;
 8005c2e:	4b40      	ldr	r3, [pc, #256]	; (8005d30 <main+0x86c>)
 8005c30:	799b      	ldrb	r3, [r3, #6]
 8005c32:	091b      	lsrs	r3, r3, #4
 8005c34:	b2db      	uxtb	r3, r3
 8005c36:	f003 0301 	and.w	r3, r3, #1
 8005c3a:	2b00      	cmp	r3, #0
 8005c3c:	d002      	beq.n	8005c44 <main+0x780>
 8005c3e:	f44f 037f 	mov.w	r3, #16711680	; 0xff0000
 8005c42:	e000      	b.n	8005c46 <main+0x782>
 8005c44:	2300      	movs	r3, #0
 8005c46:	4a39      	ldr	r2, [pc, #228]	; (8005d2c <main+0x868>)
 8005c48:	f8c2 308c 	str.w	r3, [r2, #140]	; 0x8c
		  led[36] = ((rxBuffer[6]>>3)&1) ? RED : BLACK;
 8005c4c:	4b38      	ldr	r3, [pc, #224]	; (8005d30 <main+0x86c>)
 8005c4e:	799b      	ldrb	r3, [r3, #6]
 8005c50:	08db      	lsrs	r3, r3, #3
 8005c52:	b2db      	uxtb	r3, r3
 8005c54:	f003 0301 	and.w	r3, r3, #1
 8005c58:	2b00      	cmp	r3, #0
 8005c5a:	d002      	beq.n	8005c62 <main+0x79e>
 8005c5c:	f44f 037f 	mov.w	r3, #16711680	; 0xff0000
 8005c60:	e000      	b.n	8005c64 <main+0x7a0>
 8005c62:	2300      	movs	r3, #0
 8005c64:	4a31      	ldr	r2, [pc, #196]	; (8005d2c <main+0x868>)
 8005c66:	f8c2 3090 	str.w	r3, [r2, #144]	; 0x90
		  led[37] = ((rxBuffer[6]>>2)&1) ? WHITE : BLACK;
 8005c6a:	4b31      	ldr	r3, [pc, #196]	; (8005d30 <main+0x86c>)
 8005c6c:	799b      	ldrb	r3, [r3, #6]
 8005c6e:	089b      	lsrs	r3, r3, #2
 8005c70:	b2db      	uxtb	r3, r3
 8005c72:	f003 0301 	and.w	r3, r3, #1
 8005c76:	2b00      	cmp	r3, #0
 8005c78:	d002      	beq.n	8005c80 <main+0x7bc>
 8005c7a:	f06f 437f 	mvn.w	r3, #4278190080	; 0xff000000
 8005c7e:	e000      	b.n	8005c82 <main+0x7be>
 8005c80:	2300      	movs	r3, #0
 8005c82:	4a2a      	ldr	r2, [pc, #168]	; (8005d2c <main+0x868>)
 8005c84:	f8c2 3094 	str.w	r3, [r2, #148]	; 0x94
		  led[38] = ((rxBuffer[6]>>1)&1) ? WHITE : BLACK;
 8005c88:	4b29      	ldr	r3, [pc, #164]	; (8005d30 <main+0x86c>)
 8005c8a:	799b      	ldrb	r3, [r3, #6]
 8005c8c:	085b      	lsrs	r3, r3, #1
 8005c8e:	b2db      	uxtb	r3, r3
 8005c90:	f003 0301 	and.w	r3, r3, #1
 8005c94:	2b00      	cmp	r3, #0
 8005c96:	d002      	beq.n	8005c9e <main+0x7da>
 8005c98:	f06f 437f 	mvn.w	r3, #4278190080	; 0xff000000
 8005c9c:	e000      	b.n	8005ca0 <main+0x7dc>
 8005c9e:	2300      	movs	r3, #0
 8005ca0:	4a22      	ldr	r2, [pc, #136]	; (8005d2c <main+0x868>)
 8005ca2:	f8c2 3098 	str.w	r3, [r2, #152]	; 0x98
		  led[39] = ((rxBuffer[6]>>0)&1) ? WHITE : BLACK;
 8005ca6:	4b22      	ldr	r3, [pc, #136]	; (8005d30 <main+0x86c>)
 8005ca8:	799b      	ldrb	r3, [r3, #6]
 8005caa:	f003 0301 	and.w	r3, r3, #1
 8005cae:	2b00      	cmp	r3, #0
 8005cb0:	d002      	beq.n	8005cb8 <main+0x7f4>
 8005cb2:	f06f 437f 	mvn.w	r3, #4278190080	; 0xff000000
 8005cb6:	e000      	b.n	8005cba <main+0x7f6>
 8005cb8:	2300      	movs	r3, #0
 8005cba:	4a1c      	ldr	r2, [pc, #112]	; (8005d2c <main+0x868>)
 8005cbc:	f8c2 309c 	str.w	r3, [r2, #156]	; 0x9c

		  led[40] = ((rxBuffer[7]>>7)&1) ? ORANGE : BLACK;
 8005cc0:	4b1b      	ldr	r3, [pc, #108]	; (8005d30 <main+0x86c>)
 8005cc2:	79db      	ldrb	r3, [r3, #7]
 8005cc4:	09db      	lsrs	r3, r3, #7
 8005cc6:	b2db      	uxtb	r3, r3
 8005cc8:	f003 0301 	and.w	r3, r3, #1
 8005ccc:	2b00      	cmp	r3, #0
 8005cce:	d001      	beq.n	8005cd4 <main+0x810>
 8005cd0:	4b1a      	ldr	r3, [pc, #104]	; (8005d3c <main+0x878>)
 8005cd2:	e000      	b.n	8005cd6 <main+0x812>
 8005cd4:	2300      	movs	r3, #0
 8005cd6:	4a15      	ldr	r2, [pc, #84]	; (8005d2c <main+0x868>)
 8005cd8:	f8c2 30a0 	str.w	r3, [r2, #160]	; 0xa0
		  led[41] = ((rxBuffer[7]>>6)&1) ? WHITE : BLACK;
 8005cdc:	4b14      	ldr	r3, [pc, #80]	; (8005d30 <main+0x86c>)
 8005cde:	79db      	ldrb	r3, [r3, #7]
 8005ce0:	099b      	lsrs	r3, r3, #6
 8005ce2:	b2db      	uxtb	r3, r3
 8005ce4:	f003 0301 	and.w	r3, r3, #1
 8005ce8:	2b00      	cmp	r3, #0
 8005cea:	d002      	beq.n	8005cf2 <main+0x82e>
 8005cec:	f06f 437f 	mvn.w	r3, #4278190080	; 0xff000000
 8005cf0:	e000      	b.n	8005cf4 <main+0x830>
 8005cf2:	2300      	movs	r3, #0
 8005cf4:	4a0d      	ldr	r2, [pc, #52]	; (8005d2c <main+0x868>)
 8005cf6:	f8c2 30a4 	str.w	r3, [r2, #164]	; 0xa4
		  led[42] = ((rxBuffer[7]>>5)&1) ? ORANGE : BLACK;
 8005cfa:	4b0d      	ldr	r3, [pc, #52]	; (8005d30 <main+0x86c>)
 8005cfc:	79db      	ldrb	r3, [r3, #7]
 8005cfe:	095b      	lsrs	r3, r3, #5
 8005d00:	b2db      	uxtb	r3, r3
 8005d02:	f003 0301 	and.w	r3, r3, #1
 8005d06:	2b00      	cmp	r3, #0
 8005d08:	d001      	beq.n	8005d0e <main+0x84a>
 8005d0a:	4b0c      	ldr	r3, [pc, #48]	; (8005d3c <main+0x878>)
 8005d0c:	e000      	b.n	8005d10 <main+0x84c>
 8005d0e:	2300      	movs	r3, #0
 8005d10:	4a06      	ldr	r2, [pc, #24]	; (8005d2c <main+0x868>)
 8005d12:	f8c2 30a8 	str.w	r3, [r2, #168]	; 0xa8
		  led[43] = ((rxBuffer[7]>>4)&1) ? ORANGE : BLACK;
 8005d16:	4b06      	ldr	r3, [pc, #24]	; (8005d30 <main+0x86c>)
 8005d18:	79db      	ldrb	r3, [r3, #7]
 8005d1a:	091b      	lsrs	r3, r3, #4
 8005d1c:	b2db      	uxtb	r3, r3
 8005d1e:	f003 0301 	and.w	r3, r3, #1
 8005d22:	2b00      	cmp	r3, #0
 8005d24:	d00c      	beq.n	8005d40 <main+0x87c>
 8005d26:	4b05      	ldr	r3, [pc, #20]	; (8005d3c <main+0x878>)
 8005d28:	e00b      	b.n	8005d42 <main+0x87e>
 8005d2a:	bf00      	nop
 8005d2c:	20000100 	.word	0x20000100
 8005d30:	200001f8 	.word	0x200001f8
 8005d34:	00ff44cc 	.word	0x00ff44cc
 8005d38:	00ffff00 	.word	0x00ffff00
 8005d3c:	00ff4000 	.word	0x00ff4000
 8005d40:	2300      	movs	r3, #0
 8005d42:	4aac      	ldr	r2, [pc, #688]	; (8005ff4 <main+0xb30>)
 8005d44:	f8c2 30ac 	str.w	r3, [r2, #172]	; 0xac
		  led[44] = ((rxBuffer[7]>>3)&1) ? ORANGE : BLACK;
 8005d48:	4bab      	ldr	r3, [pc, #684]	; (8005ff8 <main+0xb34>)
 8005d4a:	79db      	ldrb	r3, [r3, #7]
 8005d4c:	08db      	lsrs	r3, r3, #3
 8005d4e:	b2db      	uxtb	r3, r3
 8005d50:	f003 0301 	and.w	r3, r3, #1
 8005d54:	2b00      	cmp	r3, #0
 8005d56:	d001      	beq.n	8005d5c <main+0x898>
 8005d58:	4ba8      	ldr	r3, [pc, #672]	; (8005ffc <main+0xb38>)
 8005d5a:	e000      	b.n	8005d5e <main+0x89a>
 8005d5c:	2300      	movs	r3, #0
 8005d5e:	4aa5      	ldr	r2, [pc, #660]	; (8005ff4 <main+0xb30>)
 8005d60:	f8c2 30b0 	str.w	r3, [r2, #176]	; 0xb0
		  led[45] = ((rxBuffer[7]>>2)&1) ? WHITE : BLACK;
 8005d64:	4ba4      	ldr	r3, [pc, #656]	; (8005ff8 <main+0xb34>)
 8005d66:	79db      	ldrb	r3, [r3, #7]
 8005d68:	089b      	lsrs	r3, r3, #2
 8005d6a:	b2db      	uxtb	r3, r3
 8005d6c:	f003 0301 	and.w	r3, r3, #1
 8005d70:	2b00      	cmp	r3, #0
 8005d72:	d002      	beq.n	8005d7a <main+0x8b6>
 8005d74:	f06f 437f 	mvn.w	r3, #4278190080	; 0xff000000
 8005d78:	e000      	b.n	8005d7c <main+0x8b8>
 8005d7a:	2300      	movs	r3, #0
 8005d7c:	4a9d      	ldr	r2, [pc, #628]	; (8005ff4 <main+0xb30>)
 8005d7e:	f8c2 30b4 	str.w	r3, [r2, #180]	; 0xb4
		  led[46] = ((rxBuffer[7]>>1)&1) ? WHITE : BLACK;
 8005d82:	4b9d      	ldr	r3, [pc, #628]	; (8005ff8 <main+0xb34>)
 8005d84:	79db      	ldrb	r3, [r3, #7]
 8005d86:	085b      	lsrs	r3, r3, #1
 8005d88:	b2db      	uxtb	r3, r3
 8005d8a:	f003 0301 	and.w	r3, r3, #1
 8005d8e:	2b00      	cmp	r3, #0
 8005d90:	d002      	beq.n	8005d98 <main+0x8d4>
 8005d92:	f06f 437f 	mvn.w	r3, #4278190080	; 0xff000000
 8005d96:	e000      	b.n	8005d9a <main+0x8d6>
 8005d98:	2300      	movs	r3, #0
 8005d9a:	4a96      	ldr	r2, [pc, #600]	; (8005ff4 <main+0xb30>)
 8005d9c:	f8c2 30b8 	str.w	r3, [r2, #184]	; 0xb8
		  led[47] = ((rxBuffer[7]>>0)&1) ? ORANGE : BLACK;
 8005da0:	4b95      	ldr	r3, [pc, #596]	; (8005ff8 <main+0xb34>)
 8005da2:	79db      	ldrb	r3, [r3, #7]
 8005da4:	f003 0301 	and.w	r3, r3, #1
 8005da8:	2b00      	cmp	r3, #0
 8005daa:	d001      	beq.n	8005db0 <main+0x8ec>
 8005dac:	4b93      	ldr	r3, [pc, #588]	; (8005ffc <main+0xb38>)
 8005dae:	e000      	b.n	8005db2 <main+0x8ee>
 8005db0:	2300      	movs	r3, #0
 8005db2:	4a90      	ldr	r2, [pc, #576]	; (8005ff4 <main+0xb30>)
 8005db4:	f8c2 30bc 	str.w	r3, [r2, #188]	; 0xbc

/*		  led[48] = ((rxBuffer[8]>>7)&1) ? WHITE : BLACK;*/
		  if ((rxBuffer[8]>>7)&1) led[48] = WHITE;
 8005db8:	4b8f      	ldr	r3, [pc, #572]	; (8005ff8 <main+0xb34>)
 8005dba:	7a1b      	ldrb	r3, [r3, #8]
 8005dbc:	09db      	lsrs	r3, r3, #7
 8005dbe:	b2db      	uxtb	r3, r3
 8005dc0:	f003 0301 	and.w	r3, r3, #1
 8005dc4:	2b00      	cmp	r3, #0
 8005dc6:	d005      	beq.n	8005dd4 <main+0x910>
 8005dc8:	4b8a      	ldr	r3, [pc, #552]	; (8005ff4 <main+0xb30>)
 8005dca:	f06f 427f 	mvn.w	r2, #4278190080	; 0xff000000
 8005dce:	f8c3 20c0 	str.w	r2, [r3, #192]	; 0xc0
 8005dd2:	e02c      	b.n	8005e2e <main+0x96a>
		  else if ((rxBuffer[9]>>4)&1) led[48] = RED;
 8005dd4:	4b88      	ldr	r3, [pc, #544]	; (8005ff8 <main+0xb34>)
 8005dd6:	7a5b      	ldrb	r3, [r3, #9]
 8005dd8:	091b      	lsrs	r3, r3, #4
 8005dda:	b2db      	uxtb	r3, r3
 8005ddc:	f003 0301 	and.w	r3, r3, #1
 8005de0:	2b00      	cmp	r3, #0
 8005de2:	d005      	beq.n	8005df0 <main+0x92c>
 8005de4:	4b83      	ldr	r3, [pc, #524]	; (8005ff4 <main+0xb30>)
 8005de6:	f44f 027f 	mov.w	r2, #16711680	; 0xff0000
 8005dea:	f8c3 20c0 	str.w	r2, [r3, #192]	; 0xc0
 8005dee:	e01e      	b.n	8005e2e <main+0x96a>
		  else if ((rxBuffer[9]>>3)&1) led[48] = YELLOW;
 8005df0:	4b81      	ldr	r3, [pc, #516]	; (8005ff8 <main+0xb34>)
 8005df2:	7a5b      	ldrb	r3, [r3, #9]
 8005df4:	08db      	lsrs	r3, r3, #3
 8005df6:	b2db      	uxtb	r3, r3
 8005df8:	f003 0301 	and.w	r3, r3, #1
 8005dfc:	2b00      	cmp	r3, #0
 8005dfe:	d004      	beq.n	8005e0a <main+0x946>
 8005e00:	4b7c      	ldr	r3, [pc, #496]	; (8005ff4 <main+0xb30>)
 8005e02:	4a7f      	ldr	r2, [pc, #508]	; (8006000 <main+0xb3c>)
 8005e04:	f8c3 20c0 	str.w	r2, [r3, #192]	; 0xc0
 8005e08:	e011      	b.n	8005e2e <main+0x96a>
		  else if ((rxBuffer[9]>>2)&1) led[48] = GREEN;
 8005e0a:	4b7b      	ldr	r3, [pc, #492]	; (8005ff8 <main+0xb34>)
 8005e0c:	7a5b      	ldrb	r3, [r3, #9]
 8005e0e:	089b      	lsrs	r3, r3, #2
 8005e10:	b2db      	uxtb	r3, r3
 8005e12:	f003 0301 	and.w	r3, r3, #1
 8005e16:	2b00      	cmp	r3, #0
 8005e18:	d005      	beq.n	8005e26 <main+0x962>
 8005e1a:	4b76      	ldr	r3, [pc, #472]	; (8005ff4 <main+0xb30>)
 8005e1c:	f44f 427f 	mov.w	r2, #65280	; 0xff00
 8005e20:	f8c3 20c0 	str.w	r2, [r3, #192]	; 0xc0
 8005e24:	e003      	b.n	8005e2e <main+0x96a>
		  else led[48] = BLACK;
 8005e26:	4b73      	ldr	r3, [pc, #460]	; (8005ff4 <main+0xb30>)
 8005e28:	2200      	movs	r2, #0
 8005e2a:	f8c3 20c0 	str.w	r2, [r3, #192]	; 0xc0
/*		  led[49] = ((rxBuffer[8]>>6)&1) ? WHITE : BLACK;*/
		  if ((rxBuffer[8]>>6)&1) led[49] = WHITE;
 8005e2e:	4b72      	ldr	r3, [pc, #456]	; (8005ff8 <main+0xb34>)
 8005e30:	7a1b      	ldrb	r3, [r3, #8]
 8005e32:	099b      	lsrs	r3, r3, #6
 8005e34:	b2db      	uxtb	r3, r3
 8005e36:	f003 0301 	and.w	r3, r3, #1
 8005e3a:	2b00      	cmp	r3, #0
 8005e3c:	d005      	beq.n	8005e4a <main+0x986>
 8005e3e:	4b6d      	ldr	r3, [pc, #436]	; (8005ff4 <main+0xb30>)
 8005e40:	f06f 427f 	mvn.w	r2, #4278190080	; 0xff000000
 8005e44:	f8c3 20c4 	str.w	r2, [r3, #196]	; 0xc4
 8005e48:	e02a      	b.n	8005ea0 <main+0x9dc>
		  else if ((rxBuffer[8]>>2)&1) led[49] = RED;
 8005e4a:	4b6b      	ldr	r3, [pc, #428]	; (8005ff8 <main+0xb34>)
 8005e4c:	7a1b      	ldrb	r3, [r3, #8]
 8005e4e:	089b      	lsrs	r3, r3, #2
 8005e50:	b2db      	uxtb	r3, r3
 8005e52:	f003 0301 	and.w	r3, r3, #1
 8005e56:	2b00      	cmp	r3, #0
 8005e58:	d005      	beq.n	8005e66 <main+0x9a2>
 8005e5a:	4b66      	ldr	r3, [pc, #408]	; (8005ff4 <main+0xb30>)
 8005e5c:	f44f 027f 	mov.w	r2, #16711680	; 0xff0000
 8005e60:	f8c3 20c4 	str.w	r2, [r3, #196]	; 0xc4
 8005e64:	e01c      	b.n	8005ea0 <main+0x9dc>
		  else if ((rxBuffer[8]>>1)&1) led[49] = YELLOW;
 8005e66:	4b64      	ldr	r3, [pc, #400]	; (8005ff8 <main+0xb34>)
 8005e68:	7a1b      	ldrb	r3, [r3, #8]
 8005e6a:	085b      	lsrs	r3, r3, #1
 8005e6c:	b2db      	uxtb	r3, r3
 8005e6e:	f003 0301 	and.w	r3, r3, #1
 8005e72:	2b00      	cmp	r3, #0
 8005e74:	d004      	beq.n	8005e80 <main+0x9bc>
 8005e76:	4b5f      	ldr	r3, [pc, #380]	; (8005ff4 <main+0xb30>)
 8005e78:	4a61      	ldr	r2, [pc, #388]	; (8006000 <main+0xb3c>)
 8005e7a:	f8c3 20c4 	str.w	r2, [r3, #196]	; 0xc4
 8005e7e:	e00f      	b.n	8005ea0 <main+0x9dc>
		  else if ((rxBuffer[8]>>0)&1) led[49] = GREEN;
 8005e80:	4b5d      	ldr	r3, [pc, #372]	; (8005ff8 <main+0xb34>)
 8005e82:	7a1b      	ldrb	r3, [r3, #8]
 8005e84:	f003 0301 	and.w	r3, r3, #1
 8005e88:	2b00      	cmp	r3, #0
 8005e8a:	d005      	beq.n	8005e98 <main+0x9d4>
 8005e8c:	4b59      	ldr	r3, [pc, #356]	; (8005ff4 <main+0xb30>)
 8005e8e:	f44f 427f 	mov.w	r2, #65280	; 0xff00
 8005e92:	f8c3 20c4 	str.w	r2, [r3, #196]	; 0xc4
 8005e96:	e003      	b.n	8005ea0 <main+0x9dc>
		  else led[49] = BLACK;
 8005e98:	4b56      	ldr	r3, [pc, #344]	; (8005ff4 <main+0xb30>)
 8005e9a:	2200      	movs	r2, #0
 8005e9c:	f8c3 20c4 	str.w	r2, [r3, #196]	; 0xc4
		  led[50] = ((rxBuffer[8]>>5)&1) ? RED : BLACK;  /* Dummy LED */
 8005ea0:	4b55      	ldr	r3, [pc, #340]	; (8005ff8 <main+0xb34>)
 8005ea2:	7a1b      	ldrb	r3, [r3, #8]
 8005ea4:	095b      	lsrs	r3, r3, #5
 8005ea6:	b2db      	uxtb	r3, r3
 8005ea8:	f003 0301 	and.w	r3, r3, #1
 8005eac:	2b00      	cmp	r3, #0
 8005eae:	d002      	beq.n	8005eb6 <main+0x9f2>
 8005eb0:	f44f 037f 	mov.w	r3, #16711680	; 0xff0000
 8005eb4:	e000      	b.n	8005eb8 <main+0x9f4>
 8005eb6:	2300      	movs	r3, #0
 8005eb8:	4a4e      	ldr	r2, [pc, #312]	; (8005ff4 <main+0xb30>)
 8005eba:	f8c2 30c8 	str.w	r3, [r2, #200]	; 0xc8
		  led[51] = ((rxBuffer[8]>>4)&1) ? YELLOW : BLACK;  /* Dummy LED */
 8005ebe:	4b4e      	ldr	r3, [pc, #312]	; (8005ff8 <main+0xb34>)
 8005ec0:	7a1b      	ldrb	r3, [r3, #8]
 8005ec2:	091b      	lsrs	r3, r3, #4
 8005ec4:	b2db      	uxtb	r3, r3
 8005ec6:	f003 0301 	and.w	r3, r3, #1
 8005eca:	2b00      	cmp	r3, #0
 8005ecc:	d001      	beq.n	8005ed2 <main+0xa0e>
 8005ece:	4b4c      	ldr	r3, [pc, #304]	; (8006000 <main+0xb3c>)
 8005ed0:	e000      	b.n	8005ed4 <main+0xa10>
 8005ed2:	2300      	movs	r3, #0
 8005ed4:	4a47      	ldr	r2, [pc, #284]	; (8005ff4 <main+0xb30>)
 8005ed6:	f8c2 30cc 	str.w	r3, [r2, #204]	; 0xcc
		  led[52] = ((rxBuffer[8]>>3)&1) ? GREEN : BLACK;  /* Dummy LED */
 8005eda:	4b47      	ldr	r3, [pc, #284]	; (8005ff8 <main+0xb34>)
 8005edc:	7a1b      	ldrb	r3, [r3, #8]
 8005ede:	08db      	lsrs	r3, r3, #3
 8005ee0:	b2db      	uxtb	r3, r3
 8005ee2:	f003 0301 	and.w	r3, r3, #1
 8005ee6:	2b00      	cmp	r3, #0
 8005ee8:	d002      	beq.n	8005ef0 <main+0xa2c>
 8005eea:	f44f 437f 	mov.w	r3, #65280	; 0xff00
 8005eee:	e000      	b.n	8005ef2 <main+0xa2e>
 8005ef0:	2300      	movs	r3, #0
 8005ef2:	4a40      	ldr	r2, [pc, #256]	; (8005ff4 <main+0xb30>)
 8005ef4:	f8c2 30d0 	str.w	r3, [r2, #208]	; 0xd0
		  led[53] = ((rxBuffer[8]>>2)&1) ? RED : BLACK;  /* Dummy LED */
 8005ef8:	4b3f      	ldr	r3, [pc, #252]	; (8005ff8 <main+0xb34>)
 8005efa:	7a1b      	ldrb	r3, [r3, #8]
 8005efc:	089b      	lsrs	r3, r3, #2
 8005efe:	b2db      	uxtb	r3, r3
 8005f00:	f003 0301 	and.w	r3, r3, #1
 8005f04:	2b00      	cmp	r3, #0
 8005f06:	d002      	beq.n	8005f0e <main+0xa4a>
 8005f08:	f44f 037f 	mov.w	r3, #16711680	; 0xff0000
 8005f0c:	e000      	b.n	8005f10 <main+0xa4c>
 8005f0e:	2300      	movs	r3, #0
 8005f10:	4a38      	ldr	r2, [pc, #224]	; (8005ff4 <main+0xb30>)
 8005f12:	f8c2 30d4 	str.w	r3, [r2, #212]	; 0xd4
		  led[54] = ((rxBuffer[8]>>1)&1) ? YELLOW : BLACK;  /* Dummy LED */
 8005f16:	4b38      	ldr	r3, [pc, #224]	; (8005ff8 <main+0xb34>)
 8005f18:	7a1b      	ldrb	r3, [r3, #8]
 8005f1a:	085b      	lsrs	r3, r3, #1
 8005f1c:	b2db      	uxtb	r3, r3
 8005f1e:	f003 0301 	and.w	r3, r3, #1
 8005f22:	2b00      	cmp	r3, #0
 8005f24:	d001      	beq.n	8005f2a <main+0xa66>
 8005f26:	4b36      	ldr	r3, [pc, #216]	; (8006000 <main+0xb3c>)
 8005f28:	e000      	b.n	8005f2c <main+0xa68>
 8005f2a:	2300      	movs	r3, #0
 8005f2c:	4a31      	ldr	r2, [pc, #196]	; (8005ff4 <main+0xb30>)
 8005f2e:	f8c2 30d8 	str.w	r3, [r2, #216]	; 0xd8
		  led[55] = ((rxBuffer[8]>>0)&1) ? GREEN : BLACK;  /* Dummy LED */
 8005f32:	4b31      	ldr	r3, [pc, #196]	; (8005ff8 <main+0xb34>)
 8005f34:	7a1b      	ldrb	r3, [r3, #8]
 8005f36:	f003 0301 	and.w	r3, r3, #1
 8005f3a:	2b00      	cmp	r3, #0
 8005f3c:	d002      	beq.n	8005f44 <main+0xa80>
 8005f3e:	f44f 437f 	mov.w	r3, #65280	; 0xff00
 8005f42:	e000      	b.n	8005f46 <main+0xa82>
 8005f44:	2300      	movs	r3, #0
 8005f46:	4a2b      	ldr	r2, [pc, #172]	; (8005ff4 <main+0xb30>)
 8005f48:	f8c2 30dc 	str.w	r3, [r2, #220]	; 0xdc

		  led[56] = ((rxBuffer[9]>>7)&1) ? RED : BLACK;  /* Dummy LED */
 8005f4c:	4b2a      	ldr	r3, [pc, #168]	; (8005ff8 <main+0xb34>)
 8005f4e:	7a5b      	ldrb	r3, [r3, #9]
 8005f50:	09db      	lsrs	r3, r3, #7
 8005f52:	b2db      	uxtb	r3, r3
 8005f54:	f003 0301 	and.w	r3, r3, #1
 8005f58:	2b00      	cmp	r3, #0
 8005f5a:	d002      	beq.n	8005f62 <main+0xa9e>
 8005f5c:	f44f 037f 	mov.w	r3, #16711680	; 0xff0000
 8005f60:	e000      	b.n	8005f64 <main+0xaa0>
 8005f62:	2300      	movs	r3, #0
 8005f64:	4a23      	ldr	r2, [pc, #140]	; (8005ff4 <main+0xb30>)
 8005f66:	f8c2 30e0 	str.w	r3, [r2, #224]	; 0xe0
		  led[57] = ((rxBuffer[9]>>6)&1) ? YELLOW : BLACK;  /* Dummy LED */
 8005f6a:	4b23      	ldr	r3, [pc, #140]	; (8005ff8 <main+0xb34>)
 8005f6c:	7a5b      	ldrb	r3, [r3, #9]
 8005f6e:	099b      	lsrs	r3, r3, #6
 8005f70:	b2db      	uxtb	r3, r3
 8005f72:	f003 0301 	and.w	r3, r3, #1
 8005f76:	2b00      	cmp	r3, #0
 8005f78:	d001      	beq.n	8005f7e <main+0xaba>
 8005f7a:	4b21      	ldr	r3, [pc, #132]	; (8006000 <main+0xb3c>)
 8005f7c:	e000      	b.n	8005f80 <main+0xabc>
 8005f7e:	2300      	movs	r3, #0
 8005f80:	4a1c      	ldr	r2, [pc, #112]	; (8005ff4 <main+0xb30>)
 8005f82:	f8c2 30e4 	str.w	r3, [r2, #228]	; 0xe4
		  led[58] = ((rxBuffer[9]>>5)&1) ? GREEN : BLACK;  /* Dummy LED */
 8005f86:	4b1c      	ldr	r3, [pc, #112]	; (8005ff8 <main+0xb34>)
 8005f88:	7a5b      	ldrb	r3, [r3, #9]
 8005f8a:	095b      	lsrs	r3, r3, #5
 8005f8c:	b2db      	uxtb	r3, r3
 8005f8e:	f003 0301 	and.w	r3, r3, #1
 8005f92:	2b00      	cmp	r3, #0
 8005f94:	d002      	beq.n	8005f9c <main+0xad8>
 8005f96:	f44f 437f 	mov.w	r3, #65280	; 0xff00
 8005f9a:	e000      	b.n	8005f9e <main+0xada>
 8005f9c:	2300      	movs	r3, #0
 8005f9e:	4a15      	ldr	r2, [pc, #84]	; (8005ff4 <main+0xb30>)
 8005fa0:	f8c2 30e8 	str.w	r3, [r2, #232]	; 0xe8
		  led[59] = ((rxBuffer[9]>>4)&1) ? RED : BLACK;  /* Dummy LED */
 8005fa4:	4b14      	ldr	r3, [pc, #80]	; (8005ff8 <main+0xb34>)
 8005fa6:	7a5b      	ldrb	r3, [r3, #9]
 8005fa8:	091b      	lsrs	r3, r3, #4
 8005faa:	b2db      	uxtb	r3, r3
 8005fac:	f003 0301 	and.w	r3, r3, #1
 8005fb0:	2b00      	cmp	r3, #0
 8005fb2:	d002      	beq.n	8005fba <main+0xaf6>
 8005fb4:	f44f 037f 	mov.w	r3, #16711680	; 0xff0000
 8005fb8:	e000      	b.n	8005fbc <main+0xaf8>
 8005fba:	2300      	movs	r3, #0
 8005fbc:	4a0d      	ldr	r2, [pc, #52]	; (8005ff4 <main+0xb30>)
 8005fbe:	f8c2 30ec 	str.w	r3, [r2, #236]	; 0xec
		  led[60] = ((rxBuffer[9]>>3)&1) ? YELLOW : BLACK;  /* Dummy LED */
 8005fc2:	4b0d      	ldr	r3, [pc, #52]	; (8005ff8 <main+0xb34>)
 8005fc4:	7a5b      	ldrb	r3, [r3, #9]
 8005fc6:	08db      	lsrs	r3, r3, #3
 8005fc8:	b2db      	uxtb	r3, r3
 8005fca:	f003 0301 	and.w	r3, r3, #1
 8005fce:	2b00      	cmp	r3, #0
 8005fd0:	d001      	beq.n	8005fd6 <main+0xb12>
 8005fd2:	4b0b      	ldr	r3, [pc, #44]	; (8006000 <main+0xb3c>)
 8005fd4:	e000      	b.n	8005fd8 <main+0xb14>
 8005fd6:	2300      	movs	r3, #0
 8005fd8:	4a06      	ldr	r2, [pc, #24]	; (8005ff4 <main+0xb30>)
 8005fda:	f8c2 30f0 	str.w	r3, [r2, #240]	; 0xf0
		  led[61] = ((rxBuffer[9]>>2)&1) ? GREEN : BLACK;  /* Dummy LED */
 8005fde:	4b06      	ldr	r3, [pc, #24]	; (8005ff8 <main+0xb34>)
 8005fe0:	7a5b      	ldrb	r3, [r3, #9]
 8005fe2:	089b      	lsrs	r3, r3, #2
 8005fe4:	b2db      	uxtb	r3, r3
 8005fe6:	f003 0301 	and.w	r3, r3, #1
 8005fea:	2b00      	cmp	r3, #0
 8005fec:	d00a      	beq.n	8006004 <main+0xb40>
 8005fee:	f44f 437f 	mov.w	r3, #65280	; 0xff00
 8005ff2:	e008      	b.n	8006006 <main+0xb42>
 8005ff4:	20000100 	.word	0x20000100
 8005ff8:	200001f8 	.word	0x200001f8
 8005ffc:	00ff4000 	.word	0x00ff4000
 8006000:	00ffff00 	.word	0x00ffff00
 8006004:	2300      	movs	r3, #0
 8006006:	4a7e      	ldr	r2, [pc, #504]	; (8006200 <main+0xd3c>)
 8006008:	f8c2 30f4 	str.w	r3, [r2, #244]	; 0xf4

		  current_led = 0;
 800600c:	4b7d      	ldr	r3, [pc, #500]	; (8006204 <main+0xd40>)
 800600e:	2200      	movs	r2, #0
 8006010:	601a      	str	r2, [r3, #0]
		  led_fill_led_pwm_data(current_led, &tmp_led_data[0]); /* first LED */
 8006012:	4b7c      	ldr	r3, [pc, #496]	; (8006204 <main+0xd40>)
 8006014:	681b      	ldr	r3, [r3, #0]
 8006016:	b2db      	uxtb	r3, r3
 8006018:	497b      	ldr	r1, [pc, #492]	; (8006208 <main+0xd44>)
 800601a:	4618      	mov	r0, r3
 800601c:	f7ff f8cc 	bl	80051b8 <led_fill_led_pwm_data>
		  current_led++;
 8006020:	4b78      	ldr	r3, [pc, #480]	; (8006204 <main+0xd40>)
 8006022:	681b      	ldr	r3, [r3, #0]
 8006024:	3301      	adds	r3, #1
 8006026:	4a77      	ldr	r2, [pc, #476]	; (8006204 <main+0xd40>)
 8006028:	6013      	str	r3, [r2, #0]
		  led_fill_led_pwm_data(current_led, &tmp_led_data[3*8]); /* second LED */
 800602a:	4b76      	ldr	r3, [pc, #472]	; (8006204 <main+0xd40>)
 800602c:	681b      	ldr	r3, [r3, #0]
 800602e:	b2db      	uxtb	r3, r3
 8006030:	4976      	ldr	r1, [pc, #472]	; (800620c <main+0xd48>)
 8006032:	4618      	mov	r0, r3
 8006034:	f7ff f8c0 	bl	80051b8 <led_fill_led_pwm_data>

	      LL_DMA_ClearFlag_TC6(DMA1);
 8006038:	4875      	ldr	r0, [pc, #468]	; (8006210 <main+0xd4c>)
 800603a:	f7fe fced 	bl	8004a18 <LL_DMA_ClearFlag_TC6>
	      LL_DMA_ClearFlag_HT6(DMA1);
 800603e:	4874      	ldr	r0, [pc, #464]	; (8006210 <main+0xd4c>)
 8006040:	f7fe fcdc 	bl	80049fc <LL_DMA_ClearFlag_HT6>
	      LL_DMA_EnableStream(DMA1, LL_DMA_STREAM_6);
 8006044:	2106      	movs	r1, #6
 8006046:	4872      	ldr	r0, [pc, #456]	; (8006210 <main+0xd4c>)
 8006048:	f7fe fb04 	bl	8004654 <LL_DMA_EnableStream>
	      LL_TIM_SetCounter (TIM2, 0);
 800604c:	2100      	movs	r1, #0
 800604e:	f04f 4080 	mov.w	r0, #1073741824	; 0x40000000
 8006052:	f7fe febf 	bl	8004dd4 <LL_TIM_SetCounter>
	      LL_TIM_EnableCounter(TIM2);
 8006056:	f04f 4080 	mov.w	r0, #1073741824	; 0x40000000
 800605a:	f7fe fe8b 	bl	8004d74 <LL_TIM_EnableCounter>
	      LL_TIM_CC_EnableChannel(TIM2, LL_TIM_CHANNEL_CH2);
 800605e:	2110      	movs	r1, #16
 8006060:	f04f 4080 	mov.w	r0, #1073741824	; 0x40000000
 8006064:	f7fe fec4 	bl	8004df0 <LL_TIM_CC_EnableChannel>
			/* OB8 */
			/* OB8 -> left flipper controlled by flipper button. Pi only enables flipper generally (e.g. not tilt)
			((rxBuffer[1]>>7)&1) ?
				LL_TIM_CC_EnableChannel (TIM4, LL_TIM_CHANNEL_CH3) : LL_TIM_CC_EnableChannel (TIM4, LL_TIM_CHANNEL_CH3);*/
			/* OB9 */
			((rxBuffer[1]>>6)&1) ?
 8006068:	4b6a      	ldr	r3, [pc, #424]	; (8006214 <main+0xd50>)
 800606a:	785b      	ldrb	r3, [r3, #1]
 800606c:	099b      	lsrs	r3, r3, #6
 800606e:	b2db      	uxtb	r3, r3
 8006070:	f003 0301 	and.w	r3, r3, #1
				LL_TIM_CC_EnableChannel (TIM4, LL_TIM_CHANNEL_CH4) : LL_TIM_CC_DisableChannel (TIM4, LL_TIM_CHANNEL_CH4);
 8006074:	2b00      	cmp	r3, #0
 8006076:	d005      	beq.n	8006084 <main+0xbc0>
 8006078:	f44f 5180 	mov.w	r1, #4096	; 0x1000
 800607c:	4866      	ldr	r0, [pc, #408]	; (8006218 <main+0xd54>)
 800607e:	f7fe feb7 	bl	8004df0 <LL_TIM_CC_EnableChannel>
 8006082:	e004      	b.n	800608e <main+0xbca>
 8006084:	f44f 5180 	mov.w	r1, #4096	; 0x1000
 8006088:	4863      	ldr	r0, [pc, #396]	; (8006218 <main+0xd54>)
 800608a:	f7fe fec2 	bl	8004e12 <LL_TIM_CC_DisableChannel>
			/* OB1 */
			/* OB1 -> left sling shot controlled by switch -> see later in code. Pi only enables sling generally */
			/*((rxBuffer[1]>>5)&1) ?
				LL_TIM_CC_EnableChannel (TIM3, LL_TIM_CHANNEL_CH4) : LL_TIM_CC_DisableChannel (TIM3, LL_TIM_CHANNEL_CH4);*/
			/* OB6 */
			((rxBuffer[1]>>4)&1) ?
 800608e:	4b61      	ldr	r3, [pc, #388]	; (8006214 <main+0xd50>)
 8006090:	785b      	ldrb	r3, [r3, #1]
 8006092:	091b      	lsrs	r3, r3, #4
 8006094:	b2db      	uxtb	r3, r3
 8006096:	f003 0301 	and.w	r3, r3, #1
				LL_TIM_CC_EnableChannel (TIM4, LL_TIM_CHANNEL_CH1) : LL_TIM_CC_DisableChannel (TIM4, LL_TIM_CHANNEL_CH1);
 800609a:	2b00      	cmp	r3, #0
 800609c:	d004      	beq.n	80060a8 <main+0xbe4>
 800609e:	2101      	movs	r1, #1
 80060a0:	485d      	ldr	r0, [pc, #372]	; (8006218 <main+0xd54>)
 80060a2:	f7fe fea5 	bl	8004df0 <LL_TIM_CC_EnableChannel>
 80060a6:	e003      	b.n	80060b0 <main+0xbec>
 80060a8:	2101      	movs	r1, #1
 80060aa:	485b      	ldr	r0, [pc, #364]	; (8006218 <main+0xd54>)
 80060ac:	f7fe feb1 	bl	8004e12 <LL_TIM_CC_DisableChannel>
			/* OB7 */
			((rxBuffer[1]>>3)&1) ?
 80060b0:	4b58      	ldr	r3, [pc, #352]	; (8006214 <main+0xd50>)
 80060b2:	785b      	ldrb	r3, [r3, #1]
 80060b4:	08db      	lsrs	r3, r3, #3
 80060b6:	b2db      	uxtb	r3, r3
 80060b8:	f003 0301 	and.w	r3, r3, #1
				LL_TIM_CC_EnableChannel (TIM4, LL_TIM_CHANNEL_CH2) : LL_TIM_CC_DisableChannel (TIM4, LL_TIM_CHANNEL_CH2);
 80060bc:	2b00      	cmp	r3, #0
 80060be:	d004      	beq.n	80060ca <main+0xc06>
 80060c0:	2110      	movs	r1, #16
 80060c2:	4855      	ldr	r0, [pc, #340]	; (8006218 <main+0xd54>)
 80060c4:	f7fe fe94 	bl	8004df0 <LL_TIM_CC_EnableChannel>
 80060c8:	e003      	b.n	80060d2 <main+0xc0e>
 80060ca:	2110      	movs	r1, #16
 80060cc:	4852      	ldr	r0, [pc, #328]	; (8006218 <main+0xd54>)
 80060ce:	f7fe fea0 	bl	8004e12 <LL_TIM_CC_DisableChannel>
		}

	    /* Poll switches and remember if they where activated until they are reset to 0
	     * after sent to Pi */
		txSwitchesByte1 |= (
				LL_GPIO_IsInputPinSet (GPIOA, LL_GPIO_PIN_8)<<7 |
 80060d2:	f44f 7180 	mov.w	r1, #256	; 0x100
 80060d6:	4851      	ldr	r0, [pc, #324]	; (800621c <main+0xd58>)
 80060d8:	f7ff f822 	bl	8005120 <LL_GPIO_IsInputPinSet>
 80060dc:	4603      	mov	r3, r0
 80060de:	01dc      	lsls	r4, r3, #7
				LL_GPIO_IsInputPinSet (GPIOA, LL_GPIO_PIN_5)<<6 |
 80060e0:	2120      	movs	r1, #32
 80060e2:	484e      	ldr	r0, [pc, #312]	; (800621c <main+0xd58>)
 80060e4:	f7ff f81c 	bl	8005120 <LL_GPIO_IsInputPinSet>
 80060e8:	4603      	mov	r3, r0
 80060ea:	019b      	lsls	r3, r3, #6
				LL_GPIO_IsInputPinSet (GPIOA, LL_GPIO_PIN_8)<<7 |
 80060ec:	431c      	orrs	r4, r3
				LL_GPIO_IsInputPinSet (GPIOA, LL_GPIO_PIN_4)<<5 |
 80060ee:	2110      	movs	r1, #16
 80060f0:	484a      	ldr	r0, [pc, #296]	; (800621c <main+0xd58>)
 80060f2:	f7ff f815 	bl	8005120 <LL_GPIO_IsInputPinSet>
 80060f6:	4603      	mov	r3, r0
 80060f8:	015b      	lsls	r3, r3, #5
				LL_GPIO_IsInputPinSet (GPIOA, LL_GPIO_PIN_5)<<6 |
 80060fa:	431c      	orrs	r4, r3
				LL_GPIO_IsInputPinSet (GPIOA, LL_GPIO_PIN_3)<<4 |
 80060fc:	2108      	movs	r1, #8
 80060fe:	4847      	ldr	r0, [pc, #284]	; (800621c <main+0xd58>)
 8006100:	f7ff f80e 	bl	8005120 <LL_GPIO_IsInputPinSet>
 8006104:	4603      	mov	r3, r0
 8006106:	011b      	lsls	r3, r3, #4
				LL_GPIO_IsInputPinSet (GPIOA, LL_GPIO_PIN_4)<<5 |
 8006108:	431c      	orrs	r4, r3
				LL_GPIO_IsInputPinSet (GPIOA, LL_GPIO_PIN_2)<<3 |
 800610a:	2104      	movs	r1, #4
 800610c:	4843      	ldr	r0, [pc, #268]	; (800621c <main+0xd58>)
 800610e:	f7ff f807 	bl	8005120 <LL_GPIO_IsInputPinSet>
 8006112:	4603      	mov	r3, r0
 8006114:	00db      	lsls	r3, r3, #3
				LL_GPIO_IsInputPinSet (GPIOA, LL_GPIO_PIN_3)<<4 |
 8006116:	431c      	orrs	r4, r3
				LL_GPIO_IsInputPinSet (GPIOA, LL_GPIO_PIN_1)<<2 |
 8006118:	2102      	movs	r1, #2
 800611a:	4840      	ldr	r0, [pc, #256]	; (800621c <main+0xd58>)
 800611c:	f7ff f800 	bl	8005120 <LL_GPIO_IsInputPinSet>
 8006120:	4603      	mov	r3, r0
 8006122:	009b      	lsls	r3, r3, #2
				LL_GPIO_IsInputPinSet (GPIOA, LL_GPIO_PIN_2)<<3 |
 8006124:	431c      	orrs	r4, r3
				LL_GPIO_IsInputPinSet (GPIOB, LL_GPIO_PIN_13)<<1 |
 8006126:	f44f 5100 	mov.w	r1, #8192	; 0x2000
 800612a:	483d      	ldr	r0, [pc, #244]	; (8006220 <main+0xd5c>)
 800612c:	f7fe fff8 	bl	8005120 <LL_GPIO_IsInputPinSet>
 8006130:	4603      	mov	r3, r0
 8006132:	005b      	lsls	r3, r3, #1
				LL_GPIO_IsInputPinSet (GPIOA, LL_GPIO_PIN_1)<<2 |
 8006134:	431c      	orrs	r4, r3
				LL_GPIO_IsInputPinSet (GPIOB, LL_GPIO_PIN_12));
 8006136:	f44f 5180 	mov.w	r1, #4096	; 0x1000
 800613a:	4839      	ldr	r0, [pc, #228]	; (8006220 <main+0xd5c>)
 800613c:	f7fe fff0 	bl	8005120 <LL_GPIO_IsInputPinSet>
 8006140:	4603      	mov	r3, r0
				LL_GPIO_IsInputPinSet (GPIOB, LL_GPIO_PIN_13)<<1 |
 8006142:	4323      	orrs	r3, r4
		txSwitchesByte1 |= (
 8006144:	b2da      	uxtb	r2, r3
 8006146:	f897 304e 	ldrb.w	r3, [r7, #78]	; 0x4e
 800614a:	4313      	orrs	r3, r2
 800614c:	f887 304e 	strb.w	r3, [r7, #78]	; 0x4e
		txSwitchesByte2 |= (
				LL_GPIO_IsInputPinSet (GPIOB, LL_GPIO_PIN_10)<<7 |
 8006150:	f44f 6180 	mov.w	r1, #1024	; 0x400
 8006154:	4832      	ldr	r0, [pc, #200]	; (8006220 <main+0xd5c>)
 8006156:	f7fe ffe3 	bl	8005120 <LL_GPIO_IsInputPinSet>
 800615a:	4603      	mov	r3, r0
 800615c:	01dc      	lsls	r4, r3, #7
				LL_GPIO_IsInputPinSet (GPIOB, LL_GPIO_PIN_5)<<6 |
 800615e:	2120      	movs	r1, #32
 8006160:	482f      	ldr	r0, [pc, #188]	; (8006220 <main+0xd5c>)
 8006162:	f7fe ffdd 	bl	8005120 <LL_GPIO_IsInputPinSet>
 8006166:	4603      	mov	r3, r0
 8006168:	019b      	lsls	r3, r3, #6
				LL_GPIO_IsInputPinSet (GPIOB, LL_GPIO_PIN_10)<<7 |
 800616a:	431c      	orrs	r4, r3
				LL_GPIO_IsInputPinSet (GPIOB, LL_GPIO_PIN_4)<<5 |
 800616c:	2110      	movs	r1, #16
 800616e:	482c      	ldr	r0, [pc, #176]	; (8006220 <main+0xd5c>)
 8006170:	f7fe ffd6 	bl	8005120 <LL_GPIO_IsInputPinSet>
 8006174:	4603      	mov	r3, r0
 8006176:	015b      	lsls	r3, r3, #5
				LL_GPIO_IsInputPinSet (GPIOB, LL_GPIO_PIN_5)<<6 |
 8006178:	431c      	orrs	r4, r3
				LL_GPIO_IsInputPinSet (GPIOA, LL_GPIO_PIN_15)<<4 |
 800617a:	f44f 4100 	mov.w	r1, #32768	; 0x8000
 800617e:	4827      	ldr	r0, [pc, #156]	; (800621c <main+0xd58>)
 8006180:	f7fe ffce 	bl	8005120 <LL_GPIO_IsInputPinSet>
 8006184:	4603      	mov	r3, r0
 8006186:	011b      	lsls	r3, r3, #4
				LL_GPIO_IsInputPinSet (GPIOB, LL_GPIO_PIN_4)<<5 |
 8006188:	431c      	orrs	r4, r3
				LL_GPIO_IsInputPinSet (GPIOC, LL_GPIO_PIN_15)<<3 |
 800618a:	f44f 4100 	mov.w	r1, #32768	; 0x8000
 800618e:	4825      	ldr	r0, [pc, #148]	; (8006224 <main+0xd60>)
 8006190:	f7fe ffc6 	bl	8005120 <LL_GPIO_IsInputPinSet>
 8006194:	4603      	mov	r3, r0
 8006196:	00db      	lsls	r3, r3, #3
				LL_GPIO_IsInputPinSet (GPIOA, LL_GPIO_PIN_15)<<4 |
 8006198:	431c      	orrs	r4, r3
				LL_GPIO_IsInputPinSet (GPIOC, LL_GPIO_PIN_14)<<2 |
 800619a:	f44f 4180 	mov.w	r1, #16384	; 0x4000
 800619e:	4821      	ldr	r0, [pc, #132]	; (8006224 <main+0xd60>)
 80061a0:	f7fe ffbe 	bl	8005120 <LL_GPIO_IsInputPinSet>
 80061a4:	4603      	mov	r3, r0
 80061a6:	009b      	lsls	r3, r3, #2
				LL_GPIO_IsInputPinSet (GPIOC, LL_GPIO_PIN_15)<<3 |
 80061a8:	431c      	orrs	r4, r3
				LL_GPIO_IsInputPinSet (GPIOB, LL_GPIO_PIN_15)<<1 |
 80061aa:	f44f 4100 	mov.w	r1, #32768	; 0x8000
 80061ae:	481c      	ldr	r0, [pc, #112]	; (8006220 <main+0xd5c>)
 80061b0:	f7fe ffb6 	bl	8005120 <LL_GPIO_IsInputPinSet>
 80061b4:	4603      	mov	r3, r0
 80061b6:	005b      	lsls	r3, r3, #1
				LL_GPIO_IsInputPinSet (GPIOC, LL_GPIO_PIN_14)<<2 |
 80061b8:	431c      	orrs	r4, r3
				LL_GPIO_IsInputPinSet (GPIOB, LL_GPIO_PIN_14));
 80061ba:	f44f 4180 	mov.w	r1, #16384	; 0x4000
 80061be:	4818      	ldr	r0, [pc, #96]	; (8006220 <main+0xd5c>)
 80061c0:	f7fe ffae 	bl	8005120 <LL_GPIO_IsInputPinSet>
 80061c4:	4603      	mov	r3, r0
				LL_GPIO_IsInputPinSet (GPIOB, LL_GPIO_PIN_15)<<1 |
 80061c6:	4323      	orrs	r3, r4
		txSwitchesByte2 |= (
 80061c8:	b2da      	uxtb	r2, r3
 80061ca:	f897 304d 	ldrb.w	r3, [r7, #77]	; 0x4d
 80061ce:	4313      	orrs	r3, r2
 80061d0:	f887 304d 	strb.w	r3, [r7, #77]	; 0x4d

		/* set fast solenoids (controlled solenoids by stwitch) */

		/* right flipper Button pressed and enabled, don't use
		 * txSwitchesByte1 here (as they stay 1 until transferred to Pi) */
		if ( (LL_GPIO_IsInputPinSet (GPIOC, LL_GPIO_PIN_15)) && ((rxBuffer[1]>>7)&1) )
 80061d4:	f44f 4100 	mov.w	r1, #32768	; 0x8000
 80061d8:	4812      	ldr	r0, [pc, #72]	; (8006224 <main+0xd60>)
 80061da:	f7fe ffa1 	bl	8005120 <LL_GPIO_IsInputPinSet>
 80061de:	4603      	mov	r3, r0
 80061e0:	2b00      	cmp	r3, #0
 80061e2:	d021      	beq.n	8006228 <main+0xd64>
 80061e4:	4b0b      	ldr	r3, [pc, #44]	; (8006214 <main+0xd50>)
 80061e6:	785b      	ldrb	r3, [r3, #1]
 80061e8:	09db      	lsrs	r3, r3, #7
 80061ea:	b2db      	uxtb	r3, r3
 80061ec:	f003 0301 	and.w	r3, r3, #1
 80061f0:	2b00      	cmp	r3, #0
 80061f2:	d019      	beq.n	8006228 <main+0xd64>
		{
			LL_TIM_CC_EnableChannel (TIM4, LL_TIM_CHANNEL_CH3);
 80061f4:	f44f 7180 	mov.w	r1, #256	; 0x100
 80061f8:	4807      	ldr	r0, [pc, #28]	; (8006218 <main+0xd54>)
 80061fa:	f7fe fdf9 	bl	8004df0 <LL_TIM_CC_EnableChannel>
 80061fe:	e01e      	b.n	800623e <main+0xd7a>
 8006200:	20000100 	.word	0x20000100
 8006204:	200000ec 	.word	0x200000ec
 8006208:	2000002c 	.word	0x2000002c
 800620c:	2000008c 	.word	0x2000008c
 8006210:	40026000 	.word	0x40026000
 8006214:	200001f8 	.word	0x200001f8
 8006218:	40000800 	.word	0x40000800
 800621c:	40020000 	.word	0x40020000
 8006220:	40020400 	.word	0x40020400
 8006224:	40020800 	.word	0x40020800
		}
		else
		{
			if (flipperPulse > 420000) /* minimum on time is 5 ms to debounce flipper button (if it bounces the flipper doesn't get full power) */
 8006228:	6a7b      	ldr	r3, [r7, #36]	; 0x24
 800622a:	4ab0      	ldr	r2, [pc, #704]	; (80064ec <main+0x1028>)
 800622c:	4293      	cmp	r3, r2
 800622e:	d906      	bls.n	800623e <main+0xd7a>
			{
				LL_TIM_CC_DisableChannel (TIM4, LL_TIM_CHANNEL_CH3);
 8006230:	f44f 7180 	mov.w	r1, #256	; 0x100
 8006234:	48ae      	ldr	r0, [pc, #696]	; (80064f0 <main+0x102c>)
 8006236:	f7fe fdec 	bl	8004e12 <LL_TIM_CC_DisableChannel>
				flipperPulse = 0;
 800623a:	2300      	movs	r3, #0
 800623c:	627b      	str	r3, [r7, #36]	; 0x24
			}
		}
		if ( LL_TIM_CC_IsEnabledChannel(TIM4, LL_TIM_CHANNEL_CH3) ) flipperPulse += stTicks;
 800623e:	f44f 7180 	mov.w	r1, #256	; 0x100
 8006242:	48ab      	ldr	r0, [pc, #684]	; (80064f0 <main+0x102c>)
 8006244:	f7fe fdf7 	bl	8004e36 <LL_TIM_CC_IsEnabledChannel>
 8006248:	4603      	mov	r3, r0
 800624a:	2b00      	cmp	r3, #0
 800624c:	d003      	beq.n	8006256 <main+0xd92>
 800624e:	6a7a      	ldr	r2, [r7, #36]	; 0x24
 8006250:	6c3b      	ldr	r3, [r7, #64]	; 0x40
 8006252:	4413      	add	r3, r2
 8006254:	627b      	str	r3, [r7, #36]	; 0x24

		/* rising edge of left sling shot switch */
		if ( ((txSwitchesByte2>>1)&1) && !((prevTxSwitchByte2>>1)&1) && ((rxBuffer[1]>>5)&1) && !slingPulse )
 8006256:	f897 304d 	ldrb.w	r3, [r7, #77]	; 0x4d
 800625a:	085b      	lsrs	r3, r3, #1
 800625c:	b2db      	uxtb	r3, r3
 800625e:	f003 0301 	and.w	r3, r3, #1
 8006262:	2b00      	cmp	r3, #0
 8006264:	d019      	beq.n	800629a <main+0xdd6>
 8006266:	f897 304b 	ldrb.w	r3, [r7, #75]	; 0x4b
 800626a:	085b      	lsrs	r3, r3, #1
 800626c:	b2db      	uxtb	r3, r3
 800626e:	f003 0301 	and.w	r3, r3, #1
 8006272:	2b00      	cmp	r3, #0
 8006274:	d111      	bne.n	800629a <main+0xdd6>
 8006276:	4b9f      	ldr	r3, [pc, #636]	; (80064f4 <main+0x1030>)
 8006278:	785b      	ldrb	r3, [r3, #1]
 800627a:	095b      	lsrs	r3, r3, #5
 800627c:	b2db      	uxtb	r3, r3
 800627e:	f003 0301 	and.w	r3, r3, #1
 8006282:	2b00      	cmp	r3, #0
 8006284:	d009      	beq.n	800629a <main+0xdd6>
 8006286:	6bfb      	ldr	r3, [r7, #60]	; 0x3c
 8006288:	2b00      	cmp	r3, #0
 800628a:	d106      	bne.n	800629a <main+0xdd6>
		{
			slingPulse = 1;
 800628c:	2301      	movs	r3, #1
 800628e:	63fb      	str	r3, [r7, #60]	; 0x3c
			LL_TIM_CC_EnableChannel (TIM3, LL_TIM_CHANNEL_CH4);
 8006290:	f44f 5180 	mov.w	r1, #4096	; 0x1000
 8006294:	4898      	ldr	r0, [pc, #608]	; (80064f8 <main+0x1034>)
 8006296:	f7fe fdab 	bl	8004df0 <LL_TIM_CC_EnableChannel>
		}
		if ( slingPulse ) slingPulse += stTicks;
 800629a:	6bfb      	ldr	r3, [r7, #60]	; 0x3c
 800629c:	2b00      	cmp	r3, #0
 800629e:	d003      	beq.n	80062a8 <main+0xde4>
 80062a0:	6bfa      	ldr	r2, [r7, #60]	; 0x3c
 80062a2:	6c3b      	ldr	r3, [r7, #64]	; 0x40
 80062a4:	4413      	add	r3, r2
 80062a6:	63fb      	str	r3, [r7, #60]	; 0x3c
		if ( slingPulse > 3360000 ) LL_TIM_CC_DisableChannel (TIM3, LL_TIM_CHANNEL_CH4); /* 40 ms @ 84 MHz */
 80062a8:	6bfb      	ldr	r3, [r7, #60]	; 0x3c
 80062aa:	4a94      	ldr	r2, [pc, #592]	; (80064fc <main+0x1038>)
 80062ac:	4293      	cmp	r3, r2
 80062ae:	d904      	bls.n	80062ba <main+0xdf6>
 80062b0:	f44f 5180 	mov.w	r1, #4096	; 0x1000
 80062b4:	4890      	ldr	r0, [pc, #576]	; (80064f8 <main+0x1034>)
 80062b6:	f7fe fdac 	bl	8004e12 <LL_TIM_CC_DisableChannel>
		if ( slingPulse > 33600000 ) slingPulse = 0; /* anti bouncing 400 ms @ 84 MHz */
 80062ba:	6bfb      	ldr	r3, [r7, #60]	; 0x3c
 80062bc:	4a90      	ldr	r2, [pc, #576]	; (8006500 <main+0x103c>)
 80062be:	4293      	cmp	r3, r2
 80062c0:	d901      	bls.n	80062c6 <main+0xe02>
 80062c2:	2300      	movs	r3, #0
 80062c4:	63fb      	str	r3, [r7, #60]	; 0x3c

		/* rising edge of right bumper switch */
		if ( ((txSwitchesByte1>>7)&1) && !((prevTxSwitchByte1>>7)&1) && ((rxBuffer[1]>>0)&1) &&!bumprightPulse )
 80062c6:	f897 304e 	ldrb.w	r3, [r7, #78]	; 0x4e
 80062ca:	09db      	lsrs	r3, r3, #7
 80062cc:	b2db      	uxtb	r3, r3
 80062ce:	f003 0301 	and.w	r3, r3, #1
 80062d2:	2b00      	cmp	r3, #0
 80062d4:	d017      	beq.n	8006306 <main+0xe42>
 80062d6:	f897 304c 	ldrb.w	r3, [r7, #76]	; 0x4c
 80062da:	09db      	lsrs	r3, r3, #7
 80062dc:	b2db      	uxtb	r3, r3
 80062de:	f003 0301 	and.w	r3, r3, #1
 80062e2:	2b00      	cmp	r3, #0
 80062e4:	d10f      	bne.n	8006306 <main+0xe42>
 80062e6:	4b83      	ldr	r3, [pc, #524]	; (80064f4 <main+0x1030>)
 80062e8:	785b      	ldrb	r3, [r3, #1]
 80062ea:	f003 0301 	and.w	r3, r3, #1
 80062ee:	2b00      	cmp	r3, #0
 80062f0:	d009      	beq.n	8006306 <main+0xe42>
 80062f2:	6bbb      	ldr	r3, [r7, #56]	; 0x38
 80062f4:	2b00      	cmp	r3, #0
 80062f6:	d106      	bne.n	8006306 <main+0xe42>
		{
			bumprightPulse = 1;
 80062f8:	2301      	movs	r3, #1
 80062fa:	63bb      	str	r3, [r7, #56]	; 0x38
			LL_TIM_CC_EnableChannel (TIM3, LL_TIM_CHANNEL_CH3);
 80062fc:	f44f 7180 	mov.w	r1, #256	; 0x100
 8006300:	487d      	ldr	r0, [pc, #500]	; (80064f8 <main+0x1034>)
 8006302:	f7fe fd75 	bl	8004df0 <LL_TIM_CC_EnableChannel>
		}
		if ( bumprightPulse ) bumprightPulse += stTicks;
 8006306:	6bbb      	ldr	r3, [r7, #56]	; 0x38
 8006308:	2b00      	cmp	r3, #0
 800630a:	d003      	beq.n	8006314 <main+0xe50>
 800630c:	6bba      	ldr	r2, [r7, #56]	; 0x38
 800630e:	6c3b      	ldr	r3, [r7, #64]	; 0x40
 8006310:	4413      	add	r3, r2
 8006312:	63bb      	str	r3, [r7, #56]	; 0x38
		if ( bumprightPulse > 3360000 ) LL_TIM_CC_DisableChannel (TIM3, LL_TIM_CHANNEL_CH3); /* 40 ms @ 84 MHz */
 8006314:	6bbb      	ldr	r3, [r7, #56]	; 0x38
 8006316:	4a79      	ldr	r2, [pc, #484]	; (80064fc <main+0x1038>)
 8006318:	4293      	cmp	r3, r2
 800631a:	d904      	bls.n	8006326 <main+0xe62>
 800631c:	f44f 7180 	mov.w	r1, #256	; 0x100
 8006320:	4875      	ldr	r0, [pc, #468]	; (80064f8 <main+0x1034>)
 8006322:	f7fe fd76 	bl	8004e12 <LL_TIM_CC_DisableChannel>
		if ( bumprightPulse > 33600000 ) bumprightPulse = 0; /* anti bouncing 400 ms @ 84 MHz */
 8006326:	6bbb      	ldr	r3, [r7, #56]	; 0x38
 8006328:	4a75      	ldr	r2, [pc, #468]	; (8006500 <main+0x103c>)
 800632a:	4293      	cmp	r3, r2
 800632c:	d901      	bls.n	8006332 <main+0xe6e>
 800632e:	2300      	movs	r3, #0
 8006330:	63bb      	str	r3, [r7, #56]	; 0x38

		/* rising edge of middle bumper switch */
		if ( ((txSwitchesByte1>>6)&1) && !((prevTxSwitchByte1>>6)&1) && ((rxBuffer[1]>>1)&1) && !bumpmidPulse )
 8006332:	f897 304e 	ldrb.w	r3, [r7, #78]	; 0x4e
 8006336:	099b      	lsrs	r3, r3, #6
 8006338:	b2db      	uxtb	r3, r3
 800633a:	f003 0301 	and.w	r3, r3, #1
 800633e:	2b00      	cmp	r3, #0
 8006340:	d018      	beq.n	8006374 <main+0xeb0>
 8006342:	f897 304c 	ldrb.w	r3, [r7, #76]	; 0x4c
 8006346:	099b      	lsrs	r3, r3, #6
 8006348:	b2db      	uxtb	r3, r3
 800634a:	f003 0301 	and.w	r3, r3, #1
 800634e:	2b00      	cmp	r3, #0
 8006350:	d110      	bne.n	8006374 <main+0xeb0>
 8006352:	4b68      	ldr	r3, [pc, #416]	; (80064f4 <main+0x1030>)
 8006354:	785b      	ldrb	r3, [r3, #1]
 8006356:	085b      	lsrs	r3, r3, #1
 8006358:	b2db      	uxtb	r3, r3
 800635a:	f003 0301 	and.w	r3, r3, #1
 800635e:	2b00      	cmp	r3, #0
 8006360:	d008      	beq.n	8006374 <main+0xeb0>
 8006362:	6b7b      	ldr	r3, [r7, #52]	; 0x34
 8006364:	2b00      	cmp	r3, #0
 8006366:	d105      	bne.n	8006374 <main+0xeb0>
		{
			bumpmidPulse = 1;
 8006368:	2301      	movs	r3, #1
 800636a:	637b      	str	r3, [r7, #52]	; 0x34
			LL_TIM_CC_EnableChannel (TIM3, LL_TIM_CHANNEL_CH2);
 800636c:	2110      	movs	r1, #16
 800636e:	4862      	ldr	r0, [pc, #392]	; (80064f8 <main+0x1034>)
 8006370:	f7fe fd3e 	bl	8004df0 <LL_TIM_CC_EnableChannel>
		}
		if ( bumpmidPulse ) bumpmidPulse += stTicks;
 8006374:	6b7b      	ldr	r3, [r7, #52]	; 0x34
 8006376:	2b00      	cmp	r3, #0
 8006378:	d003      	beq.n	8006382 <main+0xebe>
 800637a:	6b7a      	ldr	r2, [r7, #52]	; 0x34
 800637c:	6c3b      	ldr	r3, [r7, #64]	; 0x40
 800637e:	4413      	add	r3, r2
 8006380:	637b      	str	r3, [r7, #52]	; 0x34
		if ( bumpmidPulse > 3360000 ) LL_TIM_CC_DisableChannel (TIM3, LL_TIM_CHANNEL_CH2); /* 40 ms @ 84 MHz */
 8006382:	6b7b      	ldr	r3, [r7, #52]	; 0x34
 8006384:	4a5d      	ldr	r2, [pc, #372]	; (80064fc <main+0x1038>)
 8006386:	4293      	cmp	r3, r2
 8006388:	d903      	bls.n	8006392 <main+0xece>
 800638a:	2110      	movs	r1, #16
 800638c:	485a      	ldr	r0, [pc, #360]	; (80064f8 <main+0x1034>)
 800638e:	f7fe fd40 	bl	8004e12 <LL_TIM_CC_DisableChannel>
		if ( bumpmidPulse > 33600000 ) bumpmidPulse = 0; /* anti bouncing 400 ms @ 84 MHz */
 8006392:	6b7b      	ldr	r3, [r7, #52]	; 0x34
 8006394:	4a5a      	ldr	r2, [pc, #360]	; (8006500 <main+0x103c>)
 8006396:	4293      	cmp	r3, r2
 8006398:	d901      	bls.n	800639e <main+0xeda>
 800639a:	2300      	movs	r3, #0
 800639c:	637b      	str	r3, [r7, #52]	; 0x34

		/* rising edge of left bumper switch */
		if ( ((txSwitchesByte1>>5)&1) && !((prevTxSwitchByte1>>5)&1) && ((rxBuffer[1]>>2)&1) && !bumpleftPulse )
 800639e:	f897 304e 	ldrb.w	r3, [r7, #78]	; 0x4e
 80063a2:	095b      	lsrs	r3, r3, #5
 80063a4:	b2db      	uxtb	r3, r3
 80063a6:	f003 0301 	and.w	r3, r3, #1
 80063aa:	2b00      	cmp	r3, #0
 80063ac:	d018      	beq.n	80063e0 <main+0xf1c>
 80063ae:	f897 304c 	ldrb.w	r3, [r7, #76]	; 0x4c
 80063b2:	095b      	lsrs	r3, r3, #5
 80063b4:	b2db      	uxtb	r3, r3
 80063b6:	f003 0301 	and.w	r3, r3, #1
 80063ba:	2b00      	cmp	r3, #0
 80063bc:	d110      	bne.n	80063e0 <main+0xf1c>
 80063be:	4b4d      	ldr	r3, [pc, #308]	; (80064f4 <main+0x1030>)
 80063c0:	785b      	ldrb	r3, [r3, #1]
 80063c2:	089b      	lsrs	r3, r3, #2
 80063c4:	b2db      	uxtb	r3, r3
 80063c6:	f003 0301 	and.w	r3, r3, #1
 80063ca:	2b00      	cmp	r3, #0
 80063cc:	d008      	beq.n	80063e0 <main+0xf1c>
 80063ce:	6b3b      	ldr	r3, [r7, #48]	; 0x30
 80063d0:	2b00      	cmp	r3, #0
 80063d2:	d105      	bne.n	80063e0 <main+0xf1c>
		{
			bumpleftPulse = 1;
 80063d4:	2301      	movs	r3, #1
 80063d6:	633b      	str	r3, [r7, #48]	; 0x30
			LL_TIM_CC_EnableChannel (TIM3, LL_TIM_CHANNEL_CH1);
 80063d8:	2101      	movs	r1, #1
 80063da:	4847      	ldr	r0, [pc, #284]	; (80064f8 <main+0x1034>)
 80063dc:	f7fe fd08 	bl	8004df0 <LL_TIM_CC_EnableChannel>
		}
		if ( bumpleftPulse ) bumpleftPulse += stTicks;
 80063e0:	6b3b      	ldr	r3, [r7, #48]	; 0x30
 80063e2:	2b00      	cmp	r3, #0
 80063e4:	d003      	beq.n	80063ee <main+0xf2a>
 80063e6:	6b3a      	ldr	r2, [r7, #48]	; 0x30
 80063e8:	6c3b      	ldr	r3, [r7, #64]	; 0x40
 80063ea:	4413      	add	r3, r2
 80063ec:	633b      	str	r3, [r7, #48]	; 0x30
		if ( bumpleftPulse > 3360000 ) LL_TIM_CC_DisableChannel (TIM3, LL_TIM_CHANNEL_CH1); /* 40 ms @ 84 MHz */
 80063ee:	6b3b      	ldr	r3, [r7, #48]	; 0x30
 80063f0:	4a42      	ldr	r2, [pc, #264]	; (80064fc <main+0x1038>)
 80063f2:	4293      	cmp	r3, r2
 80063f4:	d903      	bls.n	80063fe <main+0xf3a>
 80063f6:	2101      	movs	r1, #1
 80063f8:	483f      	ldr	r0, [pc, #252]	; (80064f8 <main+0x1034>)
 80063fa:	f7fe fd0a 	bl	8004e12 <LL_TIM_CC_DisableChannel>
		if ( bumpleftPulse > 33600000 ) bumpleftPulse = 0; /* anti bouncing 400 ms @ 84 MHz */
 80063fe:	6b3b      	ldr	r3, [r7, #48]	; 0x30
 8006400:	4a3f      	ldr	r2, [pc, #252]	; (8006500 <main+0x103c>)
 8006402:	4293      	cmp	r3, r2
 8006404:	d901      	bls.n	800640a <main+0xf46>
 8006406:	2300      	movs	r3, #0
 8006408:	633b      	str	r3, [r7, #48]	; 0x30

		/* rising edge of kickback switch */
		if ( ((txSwitchesByte2>>2)&1) && !((prevTxSwitchByte2>>2)&1) && (((rxBuffer[1]>>6)&1) | kickbackGrace) && !kickbackPulse )
 800640a:	f897 304d 	ldrb.w	r3, [r7, #77]	; 0x4d
 800640e:	089b      	lsrs	r3, r3, #2
 8006410:	b2db      	uxtb	r3, r3
 8006412:	f003 0301 	and.w	r3, r3, #1
 8006416:	2b00      	cmp	r3, #0
 8006418:	d01d      	beq.n	8006456 <main+0xf92>
 800641a:	f897 304b 	ldrb.w	r3, [r7, #75]	; 0x4b
 800641e:	089b      	lsrs	r3, r3, #2
 8006420:	b2db      	uxtb	r3, r3
 8006422:	f003 0301 	and.w	r3, r3, #1
 8006426:	2b00      	cmp	r3, #0
 8006428:	d115      	bne.n	8006456 <main+0xf92>
 800642a:	4b32      	ldr	r3, [pc, #200]	; (80064f4 <main+0x1030>)
 800642c:	785b      	ldrb	r3, [r3, #1]
 800642e:	099b      	lsrs	r3, r3, #6
 8006430:	b2db      	uxtb	r3, r3
 8006432:	f003 0201 	and.w	r2, r3, #1
 8006436:	6abb      	ldr	r3, [r7, #40]	; 0x28
 8006438:	4313      	orrs	r3, r2
 800643a:	2b00      	cmp	r3, #0
 800643c:	d00b      	beq.n	8006456 <main+0xf92>
 800643e:	6afb      	ldr	r3, [r7, #44]	; 0x2c
 8006440:	2b00      	cmp	r3, #0
 8006442:	d108      	bne.n	8006456 <main+0xf92>
		{
			kickbackPulse = 1;
 8006444:	2301      	movs	r3, #1
 8006446:	62fb      	str	r3, [r7, #44]	; 0x2c
			LL_TIM_CC_EnableChannel (TIM4, LL_TIM_CHANNEL_CH4);
 8006448:	f44f 5180 	mov.w	r1, #4096	; 0x1000
 800644c:	4828      	ldr	r0, [pc, #160]	; (80064f0 <main+0x102c>)
 800644e:	f7fe fccf 	bl	8004df0 <LL_TIM_CC_EnableChannel>
			kickbackGrace = 1;
 8006452:	2301      	movs	r3, #1
 8006454:	62bb      	str	r3, [r7, #40]	; 0x28
		}
		if ( kickbackPulse ) kickbackPulse += stTicks;
 8006456:	6afb      	ldr	r3, [r7, #44]	; 0x2c
 8006458:	2b00      	cmp	r3, #0
 800645a:	d003      	beq.n	8006464 <main+0xfa0>
 800645c:	6afa      	ldr	r2, [r7, #44]	; 0x2c
 800645e:	6c3b      	ldr	r3, [r7, #64]	; 0x40
 8006460:	4413      	add	r3, r2
 8006462:	62fb      	str	r3, [r7, #44]	; 0x2c
		if ( kickbackPulse > 3360000 ) LL_TIM_CC_DisableChannel (TIM4, LL_TIM_CHANNEL_CH4); /* 40 ms @ 84 MHz */
 8006464:	6afb      	ldr	r3, [r7, #44]	; 0x2c
 8006466:	4a25      	ldr	r2, [pc, #148]	; (80064fc <main+0x1038>)
 8006468:	4293      	cmp	r3, r2
 800646a:	d904      	bls.n	8006476 <main+0xfb2>
 800646c:	f44f 5180 	mov.w	r1, #4096	; 0x1000
 8006470:	481f      	ldr	r0, [pc, #124]	; (80064f0 <main+0x102c>)
 8006472:	f7fe fcce 	bl	8004e12 <LL_TIM_CC_DisableChannel>
		if ( kickbackPulse > 8400000 ) kickbackPulse = 0; /* anti bouncing 100 ms @ 84 MHz */
 8006476:	6afb      	ldr	r3, [r7, #44]	; 0x2c
 8006478:	4a22      	ldr	r2, [pc, #136]	; (8006504 <main+0x1040>)
 800647a:	4293      	cmp	r3, r2
 800647c:	d901      	bls.n	8006482 <main+0xfbe>
 800647e:	2300      	movs	r3, #0
 8006480:	62fb      	str	r3, [r7, #44]	; 0x2c
		if ( kickbackGrace ) kickbackGrace += stTicks;
 8006482:	6abb      	ldr	r3, [r7, #40]	; 0x28
 8006484:	2b00      	cmp	r3, #0
 8006486:	d003      	beq.n	8006490 <main+0xfcc>
 8006488:	6aba      	ldr	r2, [r7, #40]	; 0x28
 800648a:	6c3b      	ldr	r3, [r7, #64]	; 0x40
 800648c:	4413      	add	r3, r2
 800648e:	62bb      	str	r3, [r7, #40]	; 0x28
		if ( kickbackGrace > 420000000 ) kickbackGrace = 0; /* grace period 4 s @ 84 MHz */
 8006490:	6abb      	ldr	r3, [r7, #40]	; 0x28
 8006492:	4a1d      	ldr	r2, [pc, #116]	; (8006508 <main+0x1044>)
 8006494:	4293      	cmp	r3, r2
 8006496:	d901      	bls.n	800649c <main+0xfd8>
 8006498:	2300      	movs	r3, #0
 800649a:	62bb      	str	r3, [r7, #40]	; 0x28


		/* send status to Pi, currently only switch states */
		if ( nodeStatus == 1 )
 800649c:	4b1b      	ldr	r3, [pc, #108]	; (800650c <main+0x1048>)
 800649e:	781b      	ldrb	r3, [r3, #0]
 80064a0:	2b01      	cmp	r3, #1
 80064a2:	d161      	bne.n	8006568 <main+0x10a4>
		{
			/* wait a little (minimum half a bit with) to be sure that TransmitComplete of previous node is done and RS485 bus is free */
			if ( readyToSendCounter > 4200 ) /* 50 s @ 84 MHz */
 80064a4:	6a3b      	ldr	r3, [r7, #32]
 80064a6:	f241 0268 	movw	r2, #4200	; 0x1068
 80064aa:	4293      	cmp	r3, r2
 80064ac:	d94c      	bls.n	8006548 <main+0x1084>
			{
				if ( LL_USART_IsActiveFlag_TXE(USART1) && (!txByte1_transmitted) )
 80064ae:	4818      	ldr	r0, [pc, #96]	; (8006510 <main+0x104c>)
 80064b0:	f7fe fdce 	bl	8005050 <LL_USART_IsActiveFlag_TXE>
 80064b4:	4603      	mov	r3, r0
 80064b6:	2b00      	cmp	r3, #0
 80064b8:	d011      	beq.n	80064de <main+0x101a>
 80064ba:	f897 304a 	ldrb.w	r3, [r7, #74]	; 0x4a
 80064be:	2b00      	cmp	r3, #0
 80064c0:	d10d      	bne.n	80064de <main+0x101a>
				{
					LL_GPIO_SetOutputPin (GPIOA, RS485_nWrite_Pin);
 80064c2:	f44f 5180 	mov.w	r1, #4096	; 0x1000
 80064c6:	4813      	ldr	r0, [pc, #76]	; (8006514 <main+0x1050>)
 80064c8:	f7fe fe3f 	bl	800514a <LL_GPIO_SetOutputPin>
					LL_USART_TransmitData8 (USART1, txSwitchesByte1);
 80064cc:	f897 304e 	ldrb.w	r3, [r7, #78]	; 0x4e
 80064d0:	4619      	mov	r1, r3
 80064d2:	480f      	ldr	r0, [pc, #60]	; (8006510 <main+0x104c>)
 80064d4:	f7fe fe15 	bl	8005102 <LL_USART_TransmitData8>
					txByte1_transmitted = 1;
 80064d8:	2301      	movs	r3, #1
 80064da:	f887 304a 	strb.w	r3, [r7, #74]	; 0x4a
				}
				if ( LL_USART_IsActiveFlag_TXE(USART1) && txByte1_transmitted ) {
 80064de:	480c      	ldr	r0, [pc, #48]	; (8006510 <main+0x104c>)
 80064e0:	f7fe fdb6 	bl	8005050 <LL_USART_IsActiveFlag_TXE>
 80064e4:	4603      	mov	r3, r0
 80064e6:	2b00      	cmp	r3, #0
 80064e8:	d02e      	beq.n	8006548 <main+0x1084>
 80064ea:	e015      	b.n	8006518 <main+0x1054>
 80064ec:	000668a0 	.word	0x000668a0
 80064f0:	40000800 	.word	0x40000800
 80064f4:	200001f8 	.word	0x200001f8
 80064f8:	40000400 	.word	0x40000400
 80064fc:	00334500 	.word	0x00334500
 8006500:	0200b200 	.word	0x0200b200
 8006504:	00802c80 	.word	0x00802c80
 8006508:	1908b100 	.word	0x1908b100
 800650c:	20000209 	.word	0x20000209
 8006510:	40011000 	.word	0x40011000
 8006514:	40020000 	.word	0x40020000
 8006518:	f897 304a 	ldrb.w	r3, [r7, #74]	; 0x4a
 800651c:	2b00      	cmp	r3, #0
 800651e:	d013      	beq.n	8006548 <main+0x1084>
						LL_USART_TransmitData8 (USART1, txSwitchesByte2);
 8006520:	f897 304d 	ldrb.w	r3, [r7, #77]	; 0x4d
 8006524:	4619      	mov	r1, r3
 8006526:	481e      	ldr	r0, [pc, #120]	; (80065a0 <main+0x10dc>)
 8006528:	f7fe fdeb 	bl	8005102 <LL_USART_TransmitData8>
						nodeStatus = 0;
 800652c:	4b1d      	ldr	r3, [pc, #116]	; (80065a4 <main+0x10e0>)
 800652e:	2200      	movs	r2, #0
 8006530:	701a      	strb	r2, [r3, #0]
						txByte1_transmitted = 0;
 8006532:	2300      	movs	r3, #0
 8006534:	f887 304a 	strb.w	r3, [r7, #74]	; 0x4a
						readyToSendCounter = 0;
 8006538:	2300      	movs	r3, #0
 800653a:	623b      	str	r3, [r7, #32]
						txSwitchesByte1 = 0;
 800653c:	2300      	movs	r3, #0
 800653e:	f887 304e 	strb.w	r3, [r7, #78]	; 0x4e
						txSwitchesByte2 = 0;
 8006542:	2300      	movs	r3, #0
 8006544:	f887 304d 	strb.w	r3, [r7, #77]	; 0x4d
				}
			}
			readyToSendCounter += stTicks;
 8006548:	6a3a      	ldr	r2, [r7, #32]
 800654a:	6c3b      	ldr	r3, [r7, #64]	; 0x40
 800654c:	4413      	add	r3, r2
 800654e:	623b      	str	r3, [r7, #32]

			 /* Timeout sendStatus after 5 ms @ 84 MHz */
			if ( readyToSendCounter > 420000 )
 8006550:	6a3b      	ldr	r3, [r7, #32]
 8006552:	4a15      	ldr	r2, [pc, #84]	; (80065a8 <main+0x10e4>)
 8006554:	4293      	cmp	r3, r2
 8006556:	d907      	bls.n	8006568 <main+0x10a4>
			{
				nodeStatus = 0;
 8006558:	4b12      	ldr	r3, [pc, #72]	; (80065a4 <main+0x10e0>)
 800655a:	2200      	movs	r2, #0
 800655c:	701a      	strb	r2, [r3, #0]
				readyToSendCounter = 0;
 800655e:	2300      	movs	r3, #0
 8006560:	623b      	str	r3, [r7, #32]
				txByte1_transmitted = 0;
 8006562:	2300      	movs	r3, #0
 8006564:	f887 304a 	strb.w	r3, [r7, #74]	; 0x4a
			}
		}

		prevTxSwitchByte1 = txSwitchesByte1;
 8006568:	f897 304e 	ldrb.w	r3, [r7, #78]	; 0x4e
 800656c:	f887 304c 	strb.w	r3, [r7, #76]	; 0x4c
		prevTxSwitchByte2 = txSwitchesByte2;
 8006570:	f897 304d 	ldrb.w	r3, [r7, #77]	; 0x4d
 8006574:	f887 304b 	strb.w	r3, [r7, #75]	; 0x4b

		/* Paketintervall-berwachung*/
		packetWatchDog += stTicks;
 8006578:	69fa      	ldr	r2, [r7, #28]
 800657a:	6c3b      	ldr	r3, [r7, #64]	; 0x40
 800657c:	4413      	add	r3, r2
 800657e:	61fb      	str	r3, [r7, #28]
		/* toggle LED after 4 seconds */
		if ( packetWatchDog > 336000000 ) LL_GPIO_TogglePin (GPIOC, LL_GPIO_PIN_13);
 8006580:	69fb      	ldr	r3, [r7, #28]
 8006582:	4a0a      	ldr	r2, [pc, #40]	; (80065ac <main+0x10e8>)
 8006584:	4293      	cmp	r3, r2
 8006586:	d904      	bls.n	8006592 <main+0x10ce>
 8006588:	f44f 5100 	mov.w	r1, #8192	; 0x2000
 800658c:	4808      	ldr	r0, [pc, #32]	; (80065b0 <main+0x10ec>)
 800658e:	f7fe fdf9 	bl	8005184 <LL_GPIO_TogglePin>
		/* Timeout WatchDog: 5 s @ 84 MHz */
		if ( packetWatchDog > 420000000 )
 8006592:	69fb      	ldr	r3, [r7, #28]
 8006594:	4a07      	ldr	r2, [pc, #28]	; (80065b4 <main+0x10f0>)
 8006596:	4293      	cmp	r3, r2
 8006598:	f67f a820 	bls.w	80055dc <main+0x118>
		{
			NVIC_SystemReset();
 800659c:	f7fe f844 	bl	8004628 <__NVIC_SystemReset>
 80065a0:	40011000 	.word	0x40011000
 80065a4:	20000209 	.word	0x20000209
 80065a8:	000668a0 	.word	0x000668a0
 80065ac:	1406f400 	.word	0x1406f400
 80065b0:	40020800 	.word	0x40020800
 80065b4:	1908b100 	.word	0x1908b100

080065b8 <SystemClock_Config>:
/**
  * @brief System Clock Configuration
  * @retval None
  */
void SystemClock_Config(void)
{
 80065b8:	b580      	push	{r7, lr}
 80065ba:	af00      	add	r7, sp, #0
  LL_FLASH_SetLatency(LL_FLASH_LATENCY_2);
 80065bc:	2002      	movs	r0, #2
 80065be:	f7fe fba3 	bl	8004d08 <LL_FLASH_SetLatency>
  while(LL_FLASH_GetLatency()!= LL_FLASH_LATENCY_2)
 80065c2:	bf00      	nop
 80065c4:	f7fe fbb4 	bl	8004d30 <LL_FLASH_GetLatency>
 80065c8:	4603      	mov	r3, r0
 80065ca:	2b02      	cmp	r3, #2
 80065cc:	d1fa      	bne.n	80065c4 <SystemClock_Config+0xc>
  {
  }
  LL_PWR_SetRegulVoltageScaling(LL_PWR_REGU_VOLTAGE_SCALE2);
 80065ce:	f44f 4000 	mov.w	r0, #32768	; 0x8000
 80065d2:	f7fe fbbb 	bl	8004d4c <LL_PWR_SetRegulVoltageScaling>
  LL_RCC_HSE_Enable();
 80065d6:	f7fe fa6d 	bl	8004ab4 <LL_RCC_HSE_Enable>

   /* Wait till HSE is ready */
  while(LL_RCC_HSE_IsReady() != 1)
 80065da:	bf00      	nop
 80065dc:	f7fe fa7a 	bl	8004ad4 <LL_RCC_HSE_IsReady>
 80065e0:	4603      	mov	r3, r0
 80065e2:	2b01      	cmp	r3, #1
 80065e4:	d1fa      	bne.n	80065dc <SystemClock_Config+0x24>
  {

  }
  LL_RCC_PLL_ConfigDomain_SYS(LL_RCC_PLLSOURCE_HSE, LL_RCC_PLLM_DIV_25, 168, LL_RCC_PLLP_DIV_2);
 80065e6:	2300      	movs	r3, #0
 80065e8:	22a8      	movs	r2, #168	; 0xa8
 80065ea:	2119      	movs	r1, #25
 80065ec:	f44f 0080 	mov.w	r0, #4194304	; 0x400000
 80065f0:	f7fe fb1c 	bl	8004c2c <LL_RCC_PLL_ConfigDomain_SYS>
  LL_RCC_PLL_Enable();
 80065f4:	f7fe faf6 	bl	8004be4 <LL_RCC_PLL_Enable>

   /* Wait till PLL is ready */
  while(LL_RCC_PLL_IsReady() != 1)
 80065f8:	bf00      	nop
 80065fa:	f7fe fb03 	bl	8004c04 <LL_RCC_PLL_IsReady>
 80065fe:	4603      	mov	r3, r0
 8006600:	2b01      	cmp	r3, #1
 8006602:	d1fa      	bne.n	80065fa <SystemClock_Config+0x42>
  {

  }
  LL_RCC_SetAHBPrescaler(LL_RCC_SYSCLK_DIV_1);
 8006604:	2000      	movs	r0, #0
 8006606:	f7fe fa9b 	bl	8004b40 <LL_RCC_SetAHBPrescaler>
  LL_RCC_SetAPB1Prescaler(LL_RCC_APB1_DIV_2);
 800660a:	f44f 5080 	mov.w	r0, #4096	; 0x1000
 800660e:	f7fe faab 	bl	8004b68 <LL_RCC_SetAPB1Prescaler>
  LL_RCC_SetAPB2Prescaler(LL_RCC_APB2_DIV_1);
 8006612:	2000      	movs	r0, #0
 8006614:	f7fe fabc 	bl	8004b90 <LL_RCC_SetAPB2Prescaler>
  LL_RCC_SetSysClkSource(LL_RCC_SYS_CLKSOURCE_PLL);
 8006618:	2002      	movs	r0, #2
 800661a:	f7fe fa6f 	bl	8004afc <LL_RCC_SetSysClkSource>

   /* Wait till System clock is ready */
  while(LL_RCC_GetSysClkSource() != LL_RCC_SYS_CLKSOURCE_STATUS_PLL)
 800661e:	bf00      	nop
 8006620:	f7fe fa80 	bl	8004b24 <LL_RCC_GetSysClkSource>
 8006624:	4603      	mov	r3, r0
 8006626:	2b08      	cmp	r3, #8
 8006628:	d1fa      	bne.n	8006620 <SystemClock_Config+0x68>
  {

  }
  LL_SetSystemCoreClock(84000000);
 800662a:	4808      	ldr	r0, [pc, #32]	; (800664c <SystemClock_Config+0x94>)
 800662c:	f002 f8ae 	bl	800878c <LL_SetSystemCoreClock>

   /* Update the time base */
  if (HAL_InitTick (TICK_INT_PRIORITY) != HAL_OK)
 8006630:	200f      	movs	r0, #15
 8006632:	f000 fd9d 	bl	8007170 <HAL_InitTick>
 8006636:	4603      	mov	r3, r0
 8006638:	2b00      	cmp	r3, #0
 800663a:	d001      	beq.n	8006640 <SystemClock_Config+0x88>
  {
    Error_Handler();
 800663c:	f000 fbde 	bl	8006dfc <Error_Handler>
  }
  LL_RCC_SetTIMPrescaler(LL_RCC_TIM_PRESCALER_TWICE);
 8006640:	2000      	movs	r0, #0
 8006642:	f7fe fab9 	bl	8004bb8 <LL_RCC_SetTIMPrescaler>
}
 8006646:	bf00      	nop
 8006648:	bd80      	pop	{r7, pc}
 800664a:	bf00      	nop
 800664c:	0501bd00 	.word	0x0501bd00

08006650 <MX_CRC_Init>:
  * @brief CRC Initialization Function
  * @param None
  * @retval None
  */
static void MX_CRC_Init(void)
{
 8006650:	b580      	push	{r7, lr}
 8006652:	af00      	add	r7, sp, #0
  /* USER CODE END CRC_Init 0 */

  /* USER CODE BEGIN CRC_Init 1 */

  /* USER CODE END CRC_Init 1 */
  hcrc.Instance = CRC;
 8006654:	4b06      	ldr	r3, [pc, #24]	; (8006670 <MX_CRC_Init+0x20>)
 8006656:	4a07      	ldr	r2, [pc, #28]	; (8006674 <MX_CRC_Init+0x24>)
 8006658:	601a      	str	r2, [r3, #0]
  if (HAL_CRC_Init(&hcrc) != HAL_OK)
 800665a:	4805      	ldr	r0, [pc, #20]	; (8006670 <MX_CRC_Init+0x20>)
 800665c:	f000 fee1 	bl	8007422 <HAL_CRC_Init>
 8006660:	4603      	mov	r3, r0
 8006662:	2b00      	cmp	r3, #0
 8006664:	d001      	beq.n	800666a <MX_CRC_Init+0x1a>
  {
    Error_Handler();
 8006666:	f000 fbc9 	bl	8006dfc <Error_Handler>
  }
  /* USER CODE BEGIN CRC_Init 2 */

  /* USER CODE END CRC_Init 2 */

}
 800666a:	bf00      	nop
 800666c:	bd80      	pop	{r7, pc}
 800666e:	bf00      	nop
 8006670:	200000f8 	.word	0x200000f8
 8006674:	40023000 	.word	0x40023000

08006678 <MX_TIM1_Init>:
  * @brief TIM1 Initialization Function
  * @param None
  * @retval None
  */
static void MX_TIM1_Init(void)
{
 8006678:	b580      	push	{r7, lr}
 800667a:	b09a      	sub	sp, #104	; 0x68
 800667c:	af00      	add	r7, sp, #0

  /* USER CODE BEGIN TIM1_Init 0 */

  /* USER CODE END TIM1_Init 0 */

  LL_TIM_InitTypeDef TIM_InitStruct = {0};
 800667e:	f107 0354 	add.w	r3, r7, #84	; 0x54
 8006682:	2200      	movs	r2, #0
 8006684:	601a      	str	r2, [r3, #0]
 8006686:	605a      	str	r2, [r3, #4]
 8006688:	609a      	str	r2, [r3, #8]
 800668a:	60da      	str	r2, [r3, #12]
 800668c:	611a      	str	r2, [r3, #16]
  LL_TIM_OC_InitTypeDef TIM_OC_InitStruct = {0};
 800668e:	f107 0334 	add.w	r3, r7, #52	; 0x34
 8006692:	2220      	movs	r2, #32
 8006694:	2100      	movs	r1, #0
 8006696:	4618      	mov	r0, r3
 8006698:	f002 f8ac 	bl	80087f4 <memset>
  LL_TIM_BDTR_InitTypeDef TIM_BDTRInitStruct = {0};
 800669c:	f107 031c 	add.w	r3, r7, #28
 80066a0:	2200      	movs	r2, #0
 80066a2:	601a      	str	r2, [r3, #0]
 80066a4:	605a      	str	r2, [r3, #4]
 80066a6:	609a      	str	r2, [r3, #8]
 80066a8:	60da      	str	r2, [r3, #12]
 80066aa:	611a      	str	r2, [r3, #16]
 80066ac:	615a      	str	r2, [r3, #20]

  LL_GPIO_InitTypeDef GPIO_InitStruct = {0};
 80066ae:	1d3b      	adds	r3, r7, #4
 80066b0:	2200      	movs	r2, #0
 80066b2:	601a      	str	r2, [r3, #0]
 80066b4:	605a      	str	r2, [r3, #4]
 80066b6:	609a      	str	r2, [r3, #8]
 80066b8:	60da      	str	r2, [r3, #12]
 80066ba:	611a      	str	r2, [r3, #16]
 80066bc:	615a      	str	r2, [r3, #20]

  /* Peripheral clock enable */
  LL_APB2_GRP1_EnableClock(LL_APB2_GRP1_PERIPH_TIM1);
 80066be:	2001      	movs	r0, #1
 80066c0:	f7fe fb0a 	bl	8004cd8 <LL_APB2_GRP1_EnableClock>

  /* USER CODE BEGIN TIM1_Init 1 */

  /* USER CODE END TIM1_Init 1 */
  TIM_InitStruct.Prescaler = 0;
 80066c4:	2300      	movs	r3, #0
 80066c6:	f8a7 3054 	strh.w	r3, [r7, #84]	; 0x54
  TIM_InitStruct.CounterMode = LL_TIM_COUNTERMODE_UP;
 80066ca:	2300      	movs	r3, #0
 80066cc:	65bb      	str	r3, [r7, #88]	; 0x58
  TIM_InitStruct.Autoreload = 65535;
 80066ce:	f64f 73ff 	movw	r3, #65535	; 0xffff
 80066d2:	65fb      	str	r3, [r7, #92]	; 0x5c
  TIM_InitStruct.ClockDivision = LL_TIM_CLOCKDIVISION_DIV1;
 80066d4:	2300      	movs	r3, #0
 80066d6:	663b      	str	r3, [r7, #96]	; 0x60
  TIM_InitStruct.RepetitionCounter = 0;
 80066d8:	2300      	movs	r3, #0
 80066da:	667b      	str	r3, [r7, #100]	; 0x64
  LL_TIM_Init(TIM1, &TIM_InitStruct);
 80066dc:	f107 0354 	add.w	r3, r7, #84	; 0x54
 80066e0:	4619      	mov	r1, r3
 80066e2:	4830      	ldr	r0, [pc, #192]	; (80067a4 <MX_TIM1_Init+0x12c>)
 80066e4:	f001 fb94 	bl	8007e10 <LL_TIM_Init>
  LL_TIM_DisableARRPreload(TIM1);
 80066e8:	482e      	ldr	r0, [pc, #184]	; (80067a4 <MX_TIM1_Init+0x12c>)
 80066ea:	f7fe fb63 	bl	8004db4 <LL_TIM_DisableARRPreload>
  LL_TIM_SetClockSource(TIM1, LL_TIM_CLOCKSOURCE_INTERNAL);
 80066ee:	2100      	movs	r1, #0
 80066f0:	482c      	ldr	r0, [pc, #176]	; (80067a4 <MX_TIM1_Init+0x12c>)
 80066f2:	f7fe fc3f 	bl	8004f74 <LL_TIM_SetClockSource>
  LL_TIM_OC_EnablePreload(TIM1, LL_TIM_CHANNEL_CH4);
 80066f6:	f44f 5180 	mov.w	r1, #4096	; 0x1000
 80066fa:	482a      	ldr	r0, [pc, #168]	; (80067a4 <MX_TIM1_Init+0x12c>)
 80066fc:	f7fe fbf6 	bl	8004eec <LL_TIM_OC_EnablePreload>
  TIM_OC_InitStruct.OCMode = LL_TIM_OCMODE_PWM1;
 8006700:	2360      	movs	r3, #96	; 0x60
 8006702:	637b      	str	r3, [r7, #52]	; 0x34
  TIM_OC_InitStruct.OCState = LL_TIM_OCSTATE_DISABLE;
 8006704:	2300      	movs	r3, #0
 8006706:	63bb      	str	r3, [r7, #56]	; 0x38
  TIM_OC_InitStruct.OCNState = LL_TIM_OCSTATE_DISABLE;
 8006708:	2300      	movs	r3, #0
 800670a:	63fb      	str	r3, [r7, #60]	; 0x3c
  TIM_OC_InitStruct.CompareValue = 0;
 800670c:	2300      	movs	r3, #0
 800670e:	643b      	str	r3, [r7, #64]	; 0x40
  TIM_OC_InitStruct.OCPolarity = LL_TIM_OCPOLARITY_HIGH;
 8006710:	2300      	movs	r3, #0
 8006712:	647b      	str	r3, [r7, #68]	; 0x44
  TIM_OC_InitStruct.OCIdleState = LL_TIM_OCIDLESTATE_LOW;
 8006714:	2300      	movs	r3, #0
 8006716:	64fb      	str	r3, [r7, #76]	; 0x4c
  TIM_OC_InitStruct.OCNIdleState = LL_TIM_OCIDLESTATE_LOW;
 8006718:	2300      	movs	r3, #0
 800671a:	653b      	str	r3, [r7, #80]	; 0x50
  LL_TIM_OC_Init(TIM1, LL_TIM_CHANNEL_CH4, &TIM_OC_InitStruct);
 800671c:	f107 0334 	add.w	r3, r7, #52	; 0x34
 8006720:	461a      	mov	r2, r3
 8006722:	f44f 5180 	mov.w	r1, #4096	; 0x1000
 8006726:	481f      	ldr	r0, [pc, #124]	; (80067a4 <MX_TIM1_Init+0x12c>)
 8006728:	f001 fbec 	bl	8007f04 <LL_TIM_OC_Init>
  LL_TIM_OC_DisableFast(TIM1, LL_TIM_CHANNEL_CH4);
 800672c:	f44f 5180 	mov.w	r1, #4096	; 0x1000
 8006730:	481c      	ldr	r0, [pc, #112]	; (80067a4 <MX_TIM1_Init+0x12c>)
 8006732:	f7fe fb95 	bl	8004e60 <LL_TIM_OC_DisableFast>
  LL_TIM_SetTriggerOutput(TIM1, LL_TIM_TRGO_RESET);
 8006736:	2100      	movs	r1, #0
 8006738:	481a      	ldr	r0, [pc, #104]	; (80067a4 <MX_TIM1_Init+0x12c>)
 800673a:	f7fe fc30 	bl	8004f9e <LL_TIM_SetTriggerOutput>
  LL_TIM_DisableMasterSlaveMode(TIM1);
 800673e:	4819      	ldr	r0, [pc, #100]	; (80067a4 <MX_TIM1_Init+0x12c>)
 8006740:	f7fe fc40 	bl	8004fc4 <LL_TIM_DisableMasterSlaveMode>
  TIM_BDTRInitStruct.OSSRState = LL_TIM_OSSR_DISABLE;
 8006744:	2300      	movs	r3, #0
 8006746:	61fb      	str	r3, [r7, #28]
  TIM_BDTRInitStruct.OSSIState = LL_TIM_OSSI_DISABLE;
 8006748:	2300      	movs	r3, #0
 800674a:	623b      	str	r3, [r7, #32]
  TIM_BDTRInitStruct.LockLevel = LL_TIM_LOCKLEVEL_OFF;
 800674c:	2300      	movs	r3, #0
 800674e:	627b      	str	r3, [r7, #36]	; 0x24
  TIM_BDTRInitStruct.DeadTime = 0;
 8006750:	2300      	movs	r3, #0
 8006752:	f887 3028 	strb.w	r3, [r7, #40]	; 0x28
  TIM_BDTRInitStruct.BreakState = LL_TIM_BREAK_DISABLE;
 8006756:	2300      	movs	r3, #0
 8006758:	857b      	strh	r3, [r7, #42]	; 0x2a
  TIM_BDTRInitStruct.BreakPolarity = LL_TIM_BREAK_POLARITY_HIGH;
 800675a:	f44f 5300 	mov.w	r3, #8192	; 0x2000
 800675e:	62fb      	str	r3, [r7, #44]	; 0x2c
  TIM_BDTRInitStruct.AutomaticOutput = LL_TIM_AUTOMATICOUTPUT_DISABLE;
 8006760:	2300      	movs	r3, #0
 8006762:	633b      	str	r3, [r7, #48]	; 0x30
  LL_TIM_BDTR_Init(TIM1, &TIM_BDTRInitStruct);
 8006764:	f107 031c 	add.w	r3, r7, #28
 8006768:	4619      	mov	r1, r3
 800676a:	480e      	ldr	r0, [pc, #56]	; (80067a4 <MX_TIM1_Init+0x12c>)
 800676c:	f001 fc0b 	bl	8007f86 <LL_TIM_BDTR_Init>
  /* USER CODE BEGIN TIM1_Init 2 */

  /* USER CODE END TIM1_Init 2 */
  LL_AHB1_GRP1_EnableClock(LL_AHB1_GRP1_PERIPH_GPIOA);
 8006770:	2001      	movs	r0, #1
 8006772:	f7fe fa81 	bl	8004c78 <LL_AHB1_GRP1_EnableClock>
  /**TIM1 GPIO Configuration
  PA11   ------> TIM1_CH4
  */
  GPIO_InitStruct.Pin = LL_GPIO_PIN_11;
 8006776:	f44f 6300 	mov.w	r3, #2048	; 0x800
 800677a:	607b      	str	r3, [r7, #4]
  GPIO_InitStruct.Mode = LL_GPIO_MODE_ALTERNATE;
 800677c:	2302      	movs	r3, #2
 800677e:	60bb      	str	r3, [r7, #8]
  GPIO_InitStruct.Speed = LL_GPIO_SPEED_FREQ_LOW;
 8006780:	2300      	movs	r3, #0
 8006782:	60fb      	str	r3, [r7, #12]
  GPIO_InitStruct.OutputType = LL_GPIO_OUTPUT_PUSHPULL;
 8006784:	2300      	movs	r3, #0
 8006786:	613b      	str	r3, [r7, #16]
  GPIO_InitStruct.Pull = LL_GPIO_PULL_NO;
 8006788:	2300      	movs	r3, #0
 800678a:	617b      	str	r3, [r7, #20]
  GPIO_InitStruct.Alternate = LL_GPIO_AF_1;
 800678c:	2301      	movs	r3, #1
 800678e:	61bb      	str	r3, [r7, #24]
  LL_GPIO_Init(GPIOA, &GPIO_InitStruct);
 8006790:	1d3b      	adds	r3, r7, #4
 8006792:	4619      	mov	r1, r3
 8006794:	4804      	ldr	r0, [pc, #16]	; (80067a8 <MX_TIM1_Init+0x130>)
 8006796:	f001 f91c 	bl	80079d2 <LL_GPIO_Init>

}
 800679a:	bf00      	nop
 800679c:	3768      	adds	r7, #104	; 0x68
 800679e:	46bd      	mov	sp, r7
 80067a0:	bd80      	pop	{r7, pc}
 80067a2:	bf00      	nop
 80067a4:	40010000 	.word	0x40010000
 80067a8:	40020000 	.word	0x40020000

080067ac <MX_TIM2_Init>:
  * @brief TIM2 Initialization Function
  * @param None
  * @retval None
  */
static void MX_TIM2_Init(void)
{
 80067ac:	b580      	push	{r7, lr}
 80067ae:	b094      	sub	sp, #80	; 0x50
 80067b0:	af00      	add	r7, sp, #0

  /* USER CODE BEGIN TIM2_Init 0 */

  /* USER CODE END TIM2_Init 0 */

  LL_TIM_InitTypeDef TIM_InitStruct = {0};
 80067b2:	f107 033c 	add.w	r3, r7, #60	; 0x3c
 80067b6:	2200      	movs	r2, #0
 80067b8:	601a      	str	r2, [r3, #0]
 80067ba:	605a      	str	r2, [r3, #4]
 80067bc:	609a      	str	r2, [r3, #8]
 80067be:	60da      	str	r2, [r3, #12]
 80067c0:	611a      	str	r2, [r3, #16]
  LL_TIM_OC_InitTypeDef TIM_OC_InitStruct = {0};
 80067c2:	f107 031c 	add.w	r3, r7, #28
 80067c6:	2220      	movs	r2, #32
 80067c8:	2100      	movs	r1, #0
 80067ca:	4618      	mov	r0, r3
 80067cc:	f002 f812 	bl	80087f4 <memset>

  LL_GPIO_InitTypeDef GPIO_InitStruct = {0};
 80067d0:	1d3b      	adds	r3, r7, #4
 80067d2:	2200      	movs	r2, #0
 80067d4:	601a      	str	r2, [r3, #0]
 80067d6:	605a      	str	r2, [r3, #4]
 80067d8:	609a      	str	r2, [r3, #8]
 80067da:	60da      	str	r2, [r3, #12]
 80067dc:	611a      	str	r2, [r3, #16]
 80067de:	615a      	str	r2, [r3, #20]

  /* Peripheral clock enable */
  LL_APB1_GRP1_EnableClock(LL_APB1_GRP1_PERIPH_TIM2);
 80067e0:	2001      	movs	r0, #1
 80067e2:	f7fe fa61 	bl	8004ca8 <LL_APB1_GRP1_EnableClock>

  /* TIM2 DMA Init */

  /* TIM2_CH2_CH4 Init */
  LL_DMA_SetChannelSelection(DMA1, LL_DMA_STREAM_6, LL_DMA_CHANNEL_3);
 80067e6:	f04f 62c0 	mov.w	r2, #100663296	; 0x6000000
 80067ea:	2106      	movs	r1, #6
 80067ec:	484f      	ldr	r0, [pc, #316]	; (800692c <MX_TIM2_Init+0x180>)
 80067ee:	f7fe f891 	bl	8004914 <LL_DMA_SetChannelSelection>

  LL_DMA_SetDataTransferDirection(DMA1, LL_DMA_STREAM_6, LL_DMA_DIRECTION_MEMORY_TO_PERIPH);
 80067f2:	2240      	movs	r2, #64	; 0x40
 80067f4:	2106      	movs	r1, #6
 80067f6:	484d      	ldr	r0, [pc, #308]	; (800692c <MX_TIM2_Init+0x180>)
 80067f8:	f7fd ff6c 	bl	80046d4 <LL_DMA_SetDataTransferDirection>

  LL_DMA_SetStreamPriorityLevel(DMA1, LL_DMA_STREAM_6, LL_DMA_PRIORITY_HIGH);
 80067fc:	f44f 3200 	mov.w	r2, #131072	; 0x20000
 8006800:	2106      	movs	r1, #6
 8006802:	484a      	ldr	r0, [pc, #296]	; (800692c <MX_TIM2_Init+0x180>)
 8006804:	f7fe f83e 	bl	8004884 <LL_DMA_SetStreamPriorityLevel>

  LL_DMA_SetMode(DMA1, LL_DMA_STREAM_6, LL_DMA_MODE_CIRCULAR);
 8006808:	f44f 7280 	mov.w	r2, #256	; 0x100
 800680c:	2106      	movs	r1, #6
 800680e:	4847      	ldr	r0, [pc, #284]	; (800692c <MX_TIM2_Init+0x180>)
 8006810:	f7fd ff84 	bl	800471c <LL_DMA_SetMode>

  LL_DMA_SetPeriphIncMode(DMA1, LL_DMA_STREAM_6, LL_DMA_PERIPH_NOINCREMENT);
 8006814:	2200      	movs	r2, #0
 8006816:	2106      	movs	r1, #6
 8006818:	4844      	ldr	r0, [pc, #272]	; (800692c <MX_TIM2_Init+0x180>)
 800681a:	f7fd ffa3 	bl	8004764 <LL_DMA_SetPeriphIncMode>

  LL_DMA_SetMemoryIncMode(DMA1, LL_DMA_STREAM_6, LL_DMA_MEMORY_INCREMENT);
 800681e:	f44f 6280 	mov.w	r2, #1024	; 0x400
 8006822:	2106      	movs	r1, #6
 8006824:	4841      	ldr	r0, [pc, #260]	; (800692c <MX_TIM2_Init+0x180>)
 8006826:	f7fd ffc1 	bl	80047ac <LL_DMA_SetMemoryIncMode>

  LL_DMA_SetPeriphSize(DMA1, LL_DMA_STREAM_6, LL_DMA_PDATAALIGN_WORD);
 800682a:	f44f 5280 	mov.w	r2, #4096	; 0x1000
 800682e:	2106      	movs	r1, #6
 8006830:	483e      	ldr	r0, [pc, #248]	; (800692c <MX_TIM2_Init+0x180>)
 8006832:	f7fd ffdf 	bl	80047f4 <LL_DMA_SetPeriphSize>

  LL_DMA_SetMemorySize(DMA1, LL_DMA_STREAM_6, LL_DMA_MDATAALIGN_WORD);
 8006836:	f44f 4280 	mov.w	r2, #16384	; 0x4000
 800683a:	2106      	movs	r1, #6
 800683c:	483b      	ldr	r0, [pc, #236]	; (800692c <MX_TIM2_Init+0x180>)
 800683e:	f7fd fffd 	bl	800483c <LL_DMA_SetMemorySize>

  LL_DMA_DisableFifoMode(DMA1, LL_DMA_STREAM_6);
 8006842:	2106      	movs	r1, #6
 8006844:	4839      	ldr	r0, [pc, #228]	; (800692c <MX_TIM2_Init+0x180>)
 8006846:	f7fe f889 	bl	800495c <LL_DMA_DisableFifoMode>

  /* USER CODE BEGIN TIM2_Init 1 */
  LL_DMA_SetPeriphAddress(DMA1, LL_DMA_STREAM_6, (uint32_t)&TIM2->CCR2);
 800684a:	4a39      	ldr	r2, [pc, #228]	; (8006930 <MX_TIM2_Init+0x184>)
 800684c:	2106      	movs	r1, #6
 800684e:	4837      	ldr	r0, [pc, #220]	; (800692c <MX_TIM2_Init+0x180>)
 8006850:	f7fe f8bc 	bl	80049cc <LL_DMA_SetPeriphAddress>
  LL_DMA_SetMemoryAddress(DMA1, LL_DMA_STREAM_6, (uint32_t)tmp_led_data);
 8006854:	4b37      	ldr	r3, [pc, #220]	; (8006934 <MX_TIM2_Init+0x188>)
 8006856:	461a      	mov	r2, r3
 8006858:	2106      	movs	r1, #6
 800685a:	4834      	ldr	r0, [pc, #208]	; (800692c <MX_TIM2_Init+0x180>)
 800685c:	f7fe f89e 	bl	800499c <LL_DMA_SetMemoryAddress>
  LL_DMA_SetDataLength(DMA1, LL_DMA_STREAM_6, 2*3*8);
 8006860:	2230      	movs	r2, #48	; 0x30
 8006862:	2106      	movs	r1, #6
 8006864:	4831      	ldr	r0, [pc, #196]	; (800692c <MX_TIM2_Init+0x180>)
 8006866:	f7fe f831 	bl	80048cc <LL_DMA_SetDataLength>
  LL_DMA_EnableIT_TC(DMA1, LL_DMA_STREAM_6);
 800686a:	2106      	movs	r1, #6
 800686c:	482f      	ldr	r0, [pc, #188]	; (800692c <MX_TIM2_Init+0x180>)
 800686e:	f7fe f901 	bl	8004a74 <LL_DMA_EnableIT_TC>
  LL_DMA_EnableIT_HT(DMA1, LL_DMA_STREAM_6);
 8006872:	2106      	movs	r1, #6
 8006874:	482d      	ldr	r0, [pc, #180]	; (800692c <MX_TIM2_Init+0x180>)
 8006876:	f7fe f8dd 	bl	8004a34 <LL_DMA_EnableIT_HT>


  /* USER CODE END TIM2_Init 1 */
  TIM_InitStruct.Prescaler = 0;
 800687a:	2300      	movs	r3, #0
 800687c:	87bb      	strh	r3, [r7, #60]	; 0x3c
  TIM_InitStruct.CounterMode = LL_TIM_COUNTERMODE_UP;
 800687e:	2300      	movs	r3, #0
 8006880:	643b      	str	r3, [r7, #64]	; 0x40
  TIM_InitStruct.Autoreload = 104;
 8006882:	2368      	movs	r3, #104	; 0x68
 8006884:	647b      	str	r3, [r7, #68]	; 0x44
  TIM_InitStruct.ClockDivision = LL_TIM_CLOCKDIVISION_DIV1;
 8006886:	2300      	movs	r3, #0
 8006888:	64bb      	str	r3, [r7, #72]	; 0x48
  LL_TIM_Init(TIM2, &TIM_InitStruct);
 800688a:	f107 033c 	add.w	r3, r7, #60	; 0x3c
 800688e:	4619      	mov	r1, r3
 8006890:	f04f 4080 	mov.w	r0, #1073741824	; 0x40000000
 8006894:	f001 fabc 	bl	8007e10 <LL_TIM_Init>
  LL_TIM_DisableARRPreload(TIM2);
 8006898:	f04f 4080 	mov.w	r0, #1073741824	; 0x40000000
 800689c:	f7fe fa8a 	bl	8004db4 <LL_TIM_DisableARRPreload>
  LL_TIM_SetClockSource(TIM2, LL_TIM_CLOCKSOURCE_INTERNAL);
 80068a0:	2100      	movs	r1, #0
 80068a2:	f04f 4080 	mov.w	r0, #1073741824	; 0x40000000
 80068a6:	f7fe fb65 	bl	8004f74 <LL_TIM_SetClockSource>
  LL_TIM_OC_EnablePreload(TIM2, LL_TIM_CHANNEL_CH2);
 80068aa:	2110      	movs	r1, #16
 80068ac:	f04f 4080 	mov.w	r0, #1073741824	; 0x40000000
 80068b0:	f7fe fb1c 	bl	8004eec <LL_TIM_OC_EnablePreload>
  TIM_OC_InitStruct.OCMode = LL_TIM_OCMODE_PWM1;
 80068b4:	2360      	movs	r3, #96	; 0x60
 80068b6:	61fb      	str	r3, [r7, #28]
  TIM_OC_InitStruct.OCState = LL_TIM_OCSTATE_DISABLE;
 80068b8:	2300      	movs	r3, #0
 80068ba:	623b      	str	r3, [r7, #32]
  TIM_OC_InitStruct.OCNState = LL_TIM_OCSTATE_DISABLE;
 80068bc:	2300      	movs	r3, #0
 80068be:	627b      	str	r3, [r7, #36]	; 0x24
  TIM_OC_InitStruct.CompareValue = 0;
 80068c0:	2300      	movs	r3, #0
 80068c2:	62bb      	str	r3, [r7, #40]	; 0x28
  TIM_OC_InitStruct.OCPolarity = LL_TIM_OCPOLARITY_HIGH;
 80068c4:	2300      	movs	r3, #0
 80068c6:	62fb      	str	r3, [r7, #44]	; 0x2c
  LL_TIM_OC_Init(TIM2, LL_TIM_CHANNEL_CH2, &TIM_OC_InitStruct);
 80068c8:	f107 031c 	add.w	r3, r7, #28
 80068cc:	461a      	mov	r2, r3
 80068ce:	2110      	movs	r1, #16
 80068d0:	f04f 4080 	mov.w	r0, #1073741824	; 0x40000000
 80068d4:	f001 fb16 	bl	8007f04 <LL_TIM_OC_Init>
  LL_TIM_OC_DisableFast(TIM2, LL_TIM_CHANNEL_CH2);
 80068d8:	2110      	movs	r1, #16
 80068da:	f04f 4080 	mov.w	r0, #1073741824	; 0x40000000
 80068de:	f7fe fabf 	bl	8004e60 <LL_TIM_OC_DisableFast>
  LL_TIM_SetTriggerOutput(TIM2, LL_TIM_TRGO_RESET);
 80068e2:	2100      	movs	r1, #0
 80068e4:	f04f 4080 	mov.w	r0, #1073741824	; 0x40000000
 80068e8:	f7fe fb59 	bl	8004f9e <LL_TIM_SetTriggerOutput>
  LL_TIM_DisableMasterSlaveMode(TIM2);
 80068ec:	f04f 4080 	mov.w	r0, #1073741824	; 0x40000000
 80068f0:	f7fe fb68 	bl	8004fc4 <LL_TIM_DisableMasterSlaveMode>
  /* USER CODE BEGIN TIM2_Init 2 */
  LL_TIM_EnableDMAReq_CC2(TIM2);              /* Enable DMA requests */
 80068f4:	f04f 4080 	mov.w	r0, #1073741824	; 0x40000000
 80068f8:	f7fe fb74 	bl	8004fe4 <LL_TIM_EnableDMAReq_CC2>


  /* USER CODE END TIM2_Init 2 */
  LL_AHB1_GRP1_EnableClock(LL_AHB1_GRP1_PERIPH_GPIOB);
 80068fc:	2002      	movs	r0, #2
 80068fe:	f7fe f9bb 	bl	8004c78 <LL_AHB1_GRP1_EnableClock>
  /**TIM2 GPIO Configuration
  PB3   ------> TIM2_CH2
  */
  GPIO_InitStruct.Pin = LL_GPIO_PIN_3;
 8006902:	2308      	movs	r3, #8
 8006904:	607b      	str	r3, [r7, #4]
  GPIO_InitStruct.Mode = LL_GPIO_MODE_ALTERNATE;
 8006906:	2302      	movs	r3, #2
 8006908:	60bb      	str	r3, [r7, #8]
  GPIO_InitStruct.Speed = LL_GPIO_SPEED_FREQ_LOW;
 800690a:	2300      	movs	r3, #0
 800690c:	60fb      	str	r3, [r7, #12]
  GPIO_InitStruct.OutputType = LL_GPIO_OUTPUT_PUSHPULL;
 800690e:	2300      	movs	r3, #0
 8006910:	613b      	str	r3, [r7, #16]
  GPIO_InitStruct.Pull = LL_GPIO_PULL_NO;
 8006912:	2300      	movs	r3, #0
 8006914:	617b      	str	r3, [r7, #20]
  GPIO_InitStruct.Alternate = LL_GPIO_AF_1;
 8006916:	2301      	movs	r3, #1
 8006918:	61bb      	str	r3, [r7, #24]
  LL_GPIO_Init(GPIOB, &GPIO_InitStruct);
 800691a:	1d3b      	adds	r3, r7, #4
 800691c:	4619      	mov	r1, r3
 800691e:	4806      	ldr	r0, [pc, #24]	; (8006938 <MX_TIM2_Init+0x18c>)
 8006920:	f001 f857 	bl	80079d2 <LL_GPIO_Init>

}
 8006924:	bf00      	nop
 8006926:	3750      	adds	r7, #80	; 0x50
 8006928:	46bd      	mov	sp, r7
 800692a:	bd80      	pop	{r7, pc}
 800692c:	40026000 	.word	0x40026000
 8006930:	40000038 	.word	0x40000038
 8006934:	2000002c 	.word	0x2000002c
 8006938:	40020400 	.word	0x40020400

0800693c <MX_TIM3_Init>:
  * @brief TIM3 Initialization Function
  * @param None
  * @retval None
  */
static void MX_TIM3_Init(void)
{
 800693c:	b580      	push	{r7, lr}
 800693e:	b094      	sub	sp, #80	; 0x50
 8006940:	af00      	add	r7, sp, #0

  /* USER CODE BEGIN TIM3_Init 0 */

  /* USER CODE END TIM3_Init 0 */

  LL_TIM_InitTypeDef TIM_InitStruct = {0};
 8006942:	f107 033c 	add.w	r3, r7, #60	; 0x3c
 8006946:	2200      	movs	r2, #0
 8006948:	601a      	str	r2, [r3, #0]
 800694a:	605a      	str	r2, [r3, #4]
 800694c:	609a      	str	r2, [r3, #8]
 800694e:	60da      	str	r2, [r3, #12]
 8006950:	611a      	str	r2, [r3, #16]
  LL_TIM_OC_InitTypeDef TIM_OC_InitStruct = {0};
 8006952:	f107 031c 	add.w	r3, r7, #28
 8006956:	2220      	movs	r2, #32
 8006958:	2100      	movs	r1, #0
 800695a:	4618      	mov	r0, r3
 800695c:	f001 ff4a 	bl	80087f4 <memset>

  LL_GPIO_InitTypeDef GPIO_InitStruct = {0};
 8006960:	1d3b      	adds	r3, r7, #4
 8006962:	2200      	movs	r2, #0
 8006964:	601a      	str	r2, [r3, #0]
 8006966:	605a      	str	r2, [r3, #4]
 8006968:	609a      	str	r2, [r3, #8]
 800696a:	60da      	str	r2, [r3, #12]
 800696c:	611a      	str	r2, [r3, #16]
 800696e:	615a      	str	r2, [r3, #20]

  /* Peripheral clock enable */
  LL_APB1_GRP1_EnableClock(LL_APB1_GRP1_PERIPH_TIM3);
 8006970:	2002      	movs	r0, #2
 8006972:	f7fe f999 	bl	8004ca8 <LL_APB1_GRP1_EnableClock>

  /* USER CODE BEGIN TIM3_Init 1 */

  /* USER CODE END TIM3_Init 1 */
  TIM_InitStruct.Prescaler = 16;
 8006976:	2310      	movs	r3, #16
 8006978:	87bb      	strh	r3, [r7, #60]	; 0x3c
  TIM_InitStruct.CounterMode = LL_TIM_COUNTERMODE_UP;
 800697a:	2300      	movs	r3, #0
 800697c:	643b      	str	r3, [r7, #64]	; 0x40
  TIM_InitStruct.Autoreload = 10000;
 800697e:	f242 7310 	movw	r3, #10000	; 0x2710
 8006982:	647b      	str	r3, [r7, #68]	; 0x44
  TIM_InitStruct.ClockDivision = LL_TIM_CLOCKDIVISION_DIV1;
 8006984:	2300      	movs	r3, #0
 8006986:	64bb      	str	r3, [r7, #72]	; 0x48
  LL_TIM_Init(TIM3, &TIM_InitStruct);
 8006988:	f107 033c 	add.w	r3, r7, #60	; 0x3c
 800698c:	4619      	mov	r1, r3
 800698e:	4845      	ldr	r0, [pc, #276]	; (8006aa4 <MX_TIM3_Init+0x168>)
 8006990:	f001 fa3e 	bl	8007e10 <LL_TIM_Init>
  LL_TIM_DisableARRPreload(TIM3);
 8006994:	4843      	ldr	r0, [pc, #268]	; (8006aa4 <MX_TIM3_Init+0x168>)
 8006996:	f7fe fa0d 	bl	8004db4 <LL_TIM_DisableARRPreload>
  LL_TIM_SetClockSource(TIM3, LL_TIM_CLOCKSOURCE_INTERNAL);
 800699a:	2100      	movs	r1, #0
 800699c:	4841      	ldr	r0, [pc, #260]	; (8006aa4 <MX_TIM3_Init+0x168>)
 800699e:	f7fe fae9 	bl	8004f74 <LL_TIM_SetClockSource>
  LL_TIM_OC_EnablePreload(TIM3, LL_TIM_CHANNEL_CH1);
 80069a2:	2101      	movs	r1, #1
 80069a4:	483f      	ldr	r0, [pc, #252]	; (8006aa4 <MX_TIM3_Init+0x168>)
 80069a6:	f7fe faa1 	bl	8004eec <LL_TIM_OC_EnablePreload>
  TIM_OC_InitStruct.OCMode = LL_TIM_OCMODE_PWM1;
 80069aa:	2360      	movs	r3, #96	; 0x60
 80069ac:	61fb      	str	r3, [r7, #28]
  TIM_OC_InitStruct.OCState = LL_TIM_OCSTATE_DISABLE;
 80069ae:	2300      	movs	r3, #0
 80069b0:	623b      	str	r3, [r7, #32]
  TIM_OC_InitStruct.OCNState = LL_TIM_OCSTATE_DISABLE;
 80069b2:	2300      	movs	r3, #0
 80069b4:	627b      	str	r3, [r7, #36]	; 0x24
  TIM_OC_InitStruct.CompareValue = SOLFORCE25;
 80069b6:	f241 03cc 	movw	r3, #4300	; 0x10cc
 80069ba:	62bb      	str	r3, [r7, #40]	; 0x28
  TIM_OC_InitStruct.OCPolarity = LL_TIM_OCPOLARITY_HIGH;
 80069bc:	2300      	movs	r3, #0
 80069be:	62fb      	str	r3, [r7, #44]	; 0x2c
  LL_TIM_OC_Init(TIM3, LL_TIM_CHANNEL_CH1, &TIM_OC_InitStruct);
 80069c0:	f107 031c 	add.w	r3, r7, #28
 80069c4:	461a      	mov	r2, r3
 80069c6:	2101      	movs	r1, #1
 80069c8:	4836      	ldr	r0, [pc, #216]	; (8006aa4 <MX_TIM3_Init+0x168>)
 80069ca:	f001 fa9b 	bl	8007f04 <LL_TIM_OC_Init>
  LL_TIM_OC_DisableFast(TIM3, LL_TIM_CHANNEL_CH1);
 80069ce:	2101      	movs	r1, #1
 80069d0:	4834      	ldr	r0, [pc, #208]	; (8006aa4 <MX_TIM3_Init+0x168>)
 80069d2:	f7fe fa45 	bl	8004e60 <LL_TIM_OC_DisableFast>
  LL_TIM_OC_EnablePreload(TIM3, LL_TIM_CHANNEL_CH2);
 80069d6:	2110      	movs	r1, #16
 80069d8:	4832      	ldr	r0, [pc, #200]	; (8006aa4 <MX_TIM3_Init+0x168>)
 80069da:	f7fe fa87 	bl	8004eec <LL_TIM_OC_EnablePreload>
  LL_TIM_OC_Init(TIM3, LL_TIM_CHANNEL_CH2, &TIM_OC_InitStruct);
 80069de:	f107 031c 	add.w	r3, r7, #28
 80069e2:	461a      	mov	r2, r3
 80069e4:	2110      	movs	r1, #16
 80069e6:	482f      	ldr	r0, [pc, #188]	; (8006aa4 <MX_TIM3_Init+0x168>)
 80069e8:	f001 fa8c 	bl	8007f04 <LL_TIM_OC_Init>
  LL_TIM_OC_DisableFast(TIM3, LL_TIM_CHANNEL_CH2);
 80069ec:	2110      	movs	r1, #16
 80069ee:	482d      	ldr	r0, [pc, #180]	; (8006aa4 <MX_TIM3_Init+0x168>)
 80069f0:	f7fe fa36 	bl	8004e60 <LL_TIM_OC_DisableFast>
  LL_TIM_OC_EnablePreload(TIM3, LL_TIM_CHANNEL_CH3);
 80069f4:	f44f 7180 	mov.w	r1, #256	; 0x100
 80069f8:	482a      	ldr	r0, [pc, #168]	; (8006aa4 <MX_TIM3_Init+0x168>)
 80069fa:	f7fe fa77 	bl	8004eec <LL_TIM_OC_EnablePreload>
  LL_TIM_OC_Init(TIM3, LL_TIM_CHANNEL_CH3, &TIM_OC_InitStruct);
 80069fe:	f107 031c 	add.w	r3, r7, #28
 8006a02:	461a      	mov	r2, r3
 8006a04:	f44f 7180 	mov.w	r1, #256	; 0x100
 8006a08:	4826      	ldr	r0, [pc, #152]	; (8006aa4 <MX_TIM3_Init+0x168>)
 8006a0a:	f001 fa7b 	bl	8007f04 <LL_TIM_OC_Init>
  LL_TIM_OC_DisableFast(TIM3, LL_TIM_CHANNEL_CH3);
 8006a0e:	f44f 7180 	mov.w	r1, #256	; 0x100
 8006a12:	4824      	ldr	r0, [pc, #144]	; (8006aa4 <MX_TIM3_Init+0x168>)
 8006a14:	f7fe fa24 	bl	8004e60 <LL_TIM_OC_DisableFast>
  LL_TIM_OC_EnablePreload(TIM3, LL_TIM_CHANNEL_CH4);
 8006a18:	f44f 5180 	mov.w	r1, #4096	; 0x1000
 8006a1c:	4821      	ldr	r0, [pc, #132]	; (8006aa4 <MX_TIM3_Init+0x168>)
 8006a1e:	f7fe fa65 	bl	8004eec <LL_TIM_OC_EnablePreload>
  LL_TIM_OC_Init(TIM3, LL_TIM_CHANNEL_CH4, &TIM_OC_InitStruct);
 8006a22:	f107 031c 	add.w	r3, r7, #28
 8006a26:	461a      	mov	r2, r3
 8006a28:	f44f 5180 	mov.w	r1, #4096	; 0x1000
 8006a2c:	481d      	ldr	r0, [pc, #116]	; (8006aa4 <MX_TIM3_Init+0x168>)
 8006a2e:	f001 fa69 	bl	8007f04 <LL_TIM_OC_Init>
  LL_TIM_OC_DisableFast(TIM3, LL_TIM_CHANNEL_CH4);
 8006a32:	f44f 5180 	mov.w	r1, #4096	; 0x1000
 8006a36:	481b      	ldr	r0, [pc, #108]	; (8006aa4 <MX_TIM3_Init+0x168>)
 8006a38:	f7fe fa12 	bl	8004e60 <LL_TIM_OC_DisableFast>
  LL_TIM_SetTriggerOutput(TIM3, LL_TIM_TRGO_RESET);
 8006a3c:	2100      	movs	r1, #0
 8006a3e:	4819      	ldr	r0, [pc, #100]	; (8006aa4 <MX_TIM3_Init+0x168>)
 8006a40:	f7fe faad 	bl	8004f9e <LL_TIM_SetTriggerOutput>
  LL_TIM_DisableMasterSlaveMode(TIM3);
 8006a44:	4817      	ldr	r0, [pc, #92]	; (8006aa4 <MX_TIM3_Init+0x168>)
 8006a46:	f7fe fabd 	bl	8004fc4 <LL_TIM_DisableMasterSlaveMode>
  /* USER CODE BEGIN TIM3_Init 2 */

  /* USER CODE END TIM3_Init 2 */
  LL_AHB1_GRP1_EnableClock(LL_AHB1_GRP1_PERIPH_GPIOA);
 8006a4a:	2001      	movs	r0, #1
 8006a4c:	f7fe f914 	bl	8004c78 <LL_AHB1_GRP1_EnableClock>
  LL_AHB1_GRP1_EnableClock(LL_AHB1_GRP1_PERIPH_GPIOB);
 8006a50:	2002      	movs	r0, #2
 8006a52:	f7fe f911 	bl	8004c78 <LL_AHB1_GRP1_EnableClock>
  PA6   ------> TIM3_CH1
  PA7   ------> TIM3_CH2
  PB0   ------> TIM3_CH3
  PB1   ------> TIM3_CH4
  */
  GPIO_InitStruct.Pin = LL_GPIO_PIN_6|LL_GPIO_PIN_7;
 8006a56:	23c0      	movs	r3, #192	; 0xc0
 8006a58:	607b      	str	r3, [r7, #4]
  GPIO_InitStruct.Mode = LL_GPIO_MODE_ALTERNATE;
 8006a5a:	2302      	movs	r3, #2
 8006a5c:	60bb      	str	r3, [r7, #8]
  GPIO_InitStruct.Speed = LL_GPIO_SPEED_FREQ_LOW;
 8006a5e:	2300      	movs	r3, #0
 8006a60:	60fb      	str	r3, [r7, #12]
  GPIO_InitStruct.OutputType = LL_GPIO_OUTPUT_PUSHPULL;
 8006a62:	2300      	movs	r3, #0
 8006a64:	613b      	str	r3, [r7, #16]
  GPIO_InitStruct.Pull = LL_GPIO_PULL_NO;
 8006a66:	2300      	movs	r3, #0
 8006a68:	617b      	str	r3, [r7, #20]
  GPIO_InitStruct.Alternate = LL_GPIO_AF_2;
 8006a6a:	2302      	movs	r3, #2
 8006a6c:	61bb      	str	r3, [r7, #24]
  LL_GPIO_Init(GPIOA, &GPIO_InitStruct);
 8006a6e:	1d3b      	adds	r3, r7, #4
 8006a70:	4619      	mov	r1, r3
 8006a72:	480d      	ldr	r0, [pc, #52]	; (8006aa8 <MX_TIM3_Init+0x16c>)
 8006a74:	f000 ffad 	bl	80079d2 <LL_GPIO_Init>

  GPIO_InitStruct.Pin = LL_GPIO_PIN_0|LL_GPIO_PIN_1;
 8006a78:	2303      	movs	r3, #3
 8006a7a:	607b      	str	r3, [r7, #4]
  GPIO_InitStruct.Mode = LL_GPIO_MODE_ALTERNATE;
 8006a7c:	2302      	movs	r3, #2
 8006a7e:	60bb      	str	r3, [r7, #8]
  GPIO_InitStruct.Speed = LL_GPIO_SPEED_FREQ_LOW;
 8006a80:	2300      	movs	r3, #0
 8006a82:	60fb      	str	r3, [r7, #12]
  GPIO_InitStruct.OutputType = LL_GPIO_OUTPUT_PUSHPULL;
 8006a84:	2300      	movs	r3, #0
 8006a86:	613b      	str	r3, [r7, #16]
  GPIO_InitStruct.Pull = LL_GPIO_PULL_NO;
 8006a88:	2300      	movs	r3, #0
 8006a8a:	617b      	str	r3, [r7, #20]
  GPIO_InitStruct.Alternate = LL_GPIO_AF_2;
 8006a8c:	2302      	movs	r3, #2
 8006a8e:	61bb      	str	r3, [r7, #24]
  LL_GPIO_Init(GPIOB, &GPIO_InitStruct);
 8006a90:	1d3b      	adds	r3, r7, #4
 8006a92:	4619      	mov	r1, r3
 8006a94:	4805      	ldr	r0, [pc, #20]	; (8006aac <MX_TIM3_Init+0x170>)
 8006a96:	f000 ff9c 	bl	80079d2 <LL_GPIO_Init>

}
 8006a9a:	bf00      	nop
 8006a9c:	3750      	adds	r7, #80	; 0x50
 8006a9e:	46bd      	mov	sp, r7
 8006aa0:	bd80      	pop	{r7, pc}
 8006aa2:	bf00      	nop
 8006aa4:	40000400 	.word	0x40000400
 8006aa8:	40020000 	.word	0x40020000
 8006aac:	40020400 	.word	0x40020400

08006ab0 <MX_TIM4_Init>:
  * @brief TIM4 Initialization Function
  * @param None
  * @retval None
  */
static void MX_TIM4_Init(void)
{
 8006ab0:	b580      	push	{r7, lr}
 8006ab2:	b094      	sub	sp, #80	; 0x50
 8006ab4:	af00      	add	r7, sp, #0

  /* USER CODE BEGIN TIM4_Init 0 */

  /* USER CODE END TIM4_Init 0 */

  LL_TIM_InitTypeDef TIM_InitStruct = {0};
 8006ab6:	f107 033c 	add.w	r3, r7, #60	; 0x3c
 8006aba:	2200      	movs	r2, #0
 8006abc:	601a      	str	r2, [r3, #0]
 8006abe:	605a      	str	r2, [r3, #4]
 8006ac0:	609a      	str	r2, [r3, #8]
 8006ac2:	60da      	str	r2, [r3, #12]
 8006ac4:	611a      	str	r2, [r3, #16]
  LL_TIM_OC_InitTypeDef TIM_OC_InitStruct = {0};
 8006ac6:	f107 031c 	add.w	r3, r7, #28
 8006aca:	2220      	movs	r2, #32
 8006acc:	2100      	movs	r1, #0
 8006ace:	4618      	mov	r0, r3
 8006ad0:	f001 fe90 	bl	80087f4 <memset>

  LL_GPIO_InitTypeDef GPIO_InitStruct = {0};
 8006ad4:	1d3b      	adds	r3, r7, #4
 8006ad6:	2200      	movs	r2, #0
 8006ad8:	601a      	str	r2, [r3, #0]
 8006ada:	605a      	str	r2, [r3, #4]
 8006adc:	609a      	str	r2, [r3, #8]
 8006ade:	60da      	str	r2, [r3, #12]
 8006ae0:	611a      	str	r2, [r3, #16]
 8006ae2:	615a      	str	r2, [r3, #20]

  /* Peripheral clock enable */
  LL_APB1_GRP1_EnableClock(LL_APB1_GRP1_PERIPH_TIM4);
 8006ae4:	2004      	movs	r0, #4
 8006ae6:	f7fe f8df 	bl	8004ca8 <LL_APB1_GRP1_EnableClock>

  /* USER CODE BEGIN TIM4_Init 1 */

  /* USER CODE END TIM4_Init 1 */
  TIM_InitStruct.Prescaler = 16;
 8006aea:	2310      	movs	r3, #16
 8006aec:	87bb      	strh	r3, [r7, #60]	; 0x3c
  TIM_InitStruct.CounterMode = LL_TIM_COUNTERMODE_UP;
 8006aee:	2300      	movs	r3, #0
 8006af0:	643b      	str	r3, [r7, #64]	; 0x40
  TIM_InitStruct.Autoreload = 10000;
 8006af2:	f242 7310 	movw	r3, #10000	; 0x2710
 8006af6:	647b      	str	r3, [r7, #68]	; 0x44
  TIM_InitStruct.ClockDivision = LL_TIM_CLOCKDIVISION_DIV1;
 8006af8:	2300      	movs	r3, #0
 8006afa:	64bb      	str	r3, [r7, #72]	; 0x48
  LL_TIM_Init(TIM4, &TIM_InitStruct);
 8006afc:	f107 033c 	add.w	r3, r7, #60	; 0x3c
 8006b00:	4619      	mov	r1, r3
 8006b02:	4840      	ldr	r0, [pc, #256]	; (8006c04 <MX_TIM4_Init+0x154>)
 8006b04:	f001 f984 	bl	8007e10 <LL_TIM_Init>
  LL_TIM_DisableARRPreload(TIM4);
 8006b08:	483e      	ldr	r0, [pc, #248]	; (8006c04 <MX_TIM4_Init+0x154>)
 8006b0a:	f7fe f953 	bl	8004db4 <LL_TIM_DisableARRPreload>
  LL_TIM_SetClockSource(TIM4, LL_TIM_CLOCKSOURCE_INTERNAL);
 8006b0e:	2100      	movs	r1, #0
 8006b10:	483c      	ldr	r0, [pc, #240]	; (8006c04 <MX_TIM4_Init+0x154>)
 8006b12:	f7fe fa2f 	bl	8004f74 <LL_TIM_SetClockSource>
  LL_TIM_OC_EnablePreload(TIM4, LL_TIM_CHANNEL_CH1);
 8006b16:	2101      	movs	r1, #1
 8006b18:	483a      	ldr	r0, [pc, #232]	; (8006c04 <MX_TIM4_Init+0x154>)
 8006b1a:	f7fe f9e7 	bl	8004eec <LL_TIM_OC_EnablePreload>
  TIM_OC_InitStruct.OCMode = LL_TIM_OCMODE_PWM1;
 8006b1e:	2360      	movs	r3, #96	; 0x60
 8006b20:	61fb      	str	r3, [r7, #28]
  TIM_OC_InitStruct.OCState = LL_TIM_OCSTATE_DISABLE;
 8006b22:	2300      	movs	r3, #0
 8006b24:	623b      	str	r3, [r7, #32]
  TIM_OC_InitStruct.OCNState = LL_TIM_OCSTATE_DISABLE;
 8006b26:	2300      	movs	r3, #0
 8006b28:	627b      	str	r3, [r7, #36]	; 0x24
  TIM_OC_InitStruct.CompareValue = SOLFORCE50;
 8006b2a:	f641 534c 	movw	r3, #7500	; 0x1d4c
 8006b2e:	62bb      	str	r3, [r7, #40]	; 0x28
  TIM_OC_InitStruct.OCPolarity = LL_TIM_OCPOLARITY_HIGH;
 8006b30:	2300      	movs	r3, #0
 8006b32:	62fb      	str	r3, [r7, #44]	; 0x2c
  LL_TIM_OC_Init(TIM4, LL_TIM_CHANNEL_CH1, &TIM_OC_InitStruct);
 8006b34:	f107 031c 	add.w	r3, r7, #28
 8006b38:	461a      	mov	r2, r3
 8006b3a:	2101      	movs	r1, #1
 8006b3c:	4831      	ldr	r0, [pc, #196]	; (8006c04 <MX_TIM4_Init+0x154>)
 8006b3e:	f001 f9e1 	bl	8007f04 <LL_TIM_OC_Init>
  LL_TIM_OC_DisableFast(TIM4, LL_TIM_CHANNEL_CH1);
 8006b42:	2101      	movs	r1, #1
 8006b44:	482f      	ldr	r0, [pc, #188]	; (8006c04 <MX_TIM4_Init+0x154>)
 8006b46:	f7fe f98b 	bl	8004e60 <LL_TIM_OC_DisableFast>
  LL_TIM_OC_EnablePreload(TIM4, LL_TIM_CHANNEL_CH2);
 8006b4a:	2110      	movs	r1, #16
 8006b4c:	482d      	ldr	r0, [pc, #180]	; (8006c04 <MX_TIM4_Init+0x154>)
 8006b4e:	f7fe f9cd 	bl	8004eec <LL_TIM_OC_EnablePreload>
  TIM_OC_InitStruct.CompareValue = 9000;
 8006b52:	f242 3328 	movw	r3, #9000	; 0x2328
 8006b56:	62bb      	str	r3, [r7, #40]	; 0x28
  LL_TIM_OC_Init(TIM4, LL_TIM_CHANNEL_CH2, &TIM_OC_InitStruct);
 8006b58:	f107 031c 	add.w	r3, r7, #28
 8006b5c:	461a      	mov	r2, r3
 8006b5e:	2110      	movs	r1, #16
 8006b60:	4828      	ldr	r0, [pc, #160]	; (8006c04 <MX_TIM4_Init+0x154>)
 8006b62:	f001 f9cf 	bl	8007f04 <LL_TIM_OC_Init>
  LL_TIM_OC_DisableFast(TIM4, LL_TIM_CHANNEL_CH2);
 8006b66:	2110      	movs	r1, #16
 8006b68:	4826      	ldr	r0, [pc, #152]	; (8006c04 <MX_TIM4_Init+0x154>)
 8006b6a:	f7fe f979 	bl	8004e60 <LL_TIM_OC_DisableFast>
  LL_TIM_OC_EnablePreload(TIM4, LL_TIM_CHANNEL_CH3);
 8006b6e:	f44f 7180 	mov.w	r1, #256	; 0x100
 8006b72:	4824      	ldr	r0, [pc, #144]	; (8006c04 <MX_TIM4_Init+0x154>)
 8006b74:	f7fe f9ba 	bl	8004eec <LL_TIM_OC_EnablePreload>
  TIM_OC_InitStruct.CompareValue = 10000;
 8006b78:	f242 7310 	movw	r3, #10000	; 0x2710
 8006b7c:	62bb      	str	r3, [r7, #40]	; 0x28
  LL_TIM_OC_Init(TIM4, LL_TIM_CHANNEL_CH3, &TIM_OC_InitStruct);
 8006b7e:	f107 031c 	add.w	r3, r7, #28
 8006b82:	461a      	mov	r2, r3
 8006b84:	f44f 7180 	mov.w	r1, #256	; 0x100
 8006b88:	481e      	ldr	r0, [pc, #120]	; (8006c04 <MX_TIM4_Init+0x154>)
 8006b8a:	f001 f9bb 	bl	8007f04 <LL_TIM_OC_Init>
  LL_TIM_OC_DisableFast(TIM4, LL_TIM_CHANNEL_CH3);
 8006b8e:	f44f 7180 	mov.w	r1, #256	; 0x100
 8006b92:	481c      	ldr	r0, [pc, #112]	; (8006c04 <MX_TIM4_Init+0x154>)
 8006b94:	f7fe f964 	bl	8004e60 <LL_TIM_OC_DisableFast>
  LL_TIM_OC_EnablePreload(TIM4, LL_TIM_CHANNEL_CH4);
 8006b98:	f44f 5180 	mov.w	r1, #4096	; 0x1000
 8006b9c:	4819      	ldr	r0, [pc, #100]	; (8006c04 <MX_TIM4_Init+0x154>)
 8006b9e:	f7fe f9a5 	bl	8004eec <LL_TIM_OC_EnablePreload>
  TIM_OC_InitStruct.CompareValue = SOLFORCE50;
 8006ba2:	f641 534c 	movw	r3, #7500	; 0x1d4c
 8006ba6:	62bb      	str	r3, [r7, #40]	; 0x28
  LL_TIM_OC_Init(TIM4, LL_TIM_CHANNEL_CH4, &TIM_OC_InitStruct);
 8006ba8:	f107 031c 	add.w	r3, r7, #28
 8006bac:	461a      	mov	r2, r3
 8006bae:	f44f 5180 	mov.w	r1, #4096	; 0x1000
 8006bb2:	4814      	ldr	r0, [pc, #80]	; (8006c04 <MX_TIM4_Init+0x154>)
 8006bb4:	f001 f9a6 	bl	8007f04 <LL_TIM_OC_Init>
  LL_TIM_OC_DisableFast(TIM4, LL_TIM_CHANNEL_CH4);
 8006bb8:	f44f 5180 	mov.w	r1, #4096	; 0x1000
 8006bbc:	4811      	ldr	r0, [pc, #68]	; (8006c04 <MX_TIM4_Init+0x154>)
 8006bbe:	f7fe f94f 	bl	8004e60 <LL_TIM_OC_DisableFast>
  LL_TIM_SetTriggerOutput(TIM4, LL_TIM_TRGO_RESET);
 8006bc2:	2100      	movs	r1, #0
 8006bc4:	480f      	ldr	r0, [pc, #60]	; (8006c04 <MX_TIM4_Init+0x154>)
 8006bc6:	f7fe f9ea 	bl	8004f9e <LL_TIM_SetTriggerOutput>
  LL_TIM_DisableMasterSlaveMode(TIM4);
 8006bca:	480e      	ldr	r0, [pc, #56]	; (8006c04 <MX_TIM4_Init+0x154>)
 8006bcc:	f7fe f9fa 	bl	8004fc4 <LL_TIM_DisableMasterSlaveMode>
  /* USER CODE BEGIN TIM4_Init 2 */

  /* USER CODE END TIM4_Init 2 */
  LL_AHB1_GRP1_EnableClock(LL_AHB1_GRP1_PERIPH_GPIOB);
 8006bd0:	2002      	movs	r0, #2
 8006bd2:	f7fe f851 	bl	8004c78 <LL_AHB1_GRP1_EnableClock>
  PB6   ------> TIM4_CH1
  PB7   ------> TIM4_CH2
  PB8   ------> TIM4_CH3
  PB9   ------> TIM4_CH4
  */
  GPIO_InitStruct.Pin = LL_GPIO_PIN_6|LL_GPIO_PIN_7|LL_GPIO_PIN_8|LL_GPIO_PIN_9;
 8006bd6:	f44f 7370 	mov.w	r3, #960	; 0x3c0
 8006bda:	607b      	str	r3, [r7, #4]
  GPIO_InitStruct.Mode = LL_GPIO_MODE_ALTERNATE;
 8006bdc:	2302      	movs	r3, #2
 8006bde:	60bb      	str	r3, [r7, #8]
  GPIO_InitStruct.Speed = LL_GPIO_SPEED_FREQ_LOW;
 8006be0:	2300      	movs	r3, #0
 8006be2:	60fb      	str	r3, [r7, #12]
  GPIO_InitStruct.OutputType = LL_GPIO_OUTPUT_PUSHPULL;
 8006be4:	2300      	movs	r3, #0
 8006be6:	613b      	str	r3, [r7, #16]
  GPIO_InitStruct.Pull = LL_GPIO_PULL_NO;
 8006be8:	2300      	movs	r3, #0
 8006bea:	617b      	str	r3, [r7, #20]
  GPIO_InitStruct.Alternate = LL_GPIO_AF_2;
 8006bec:	2302      	movs	r3, #2
 8006bee:	61bb      	str	r3, [r7, #24]
  LL_GPIO_Init(GPIOB, &GPIO_InitStruct);
 8006bf0:	1d3b      	adds	r3, r7, #4
 8006bf2:	4619      	mov	r1, r3
 8006bf4:	4804      	ldr	r0, [pc, #16]	; (8006c08 <MX_TIM4_Init+0x158>)
 8006bf6:	f000 feec 	bl	80079d2 <LL_GPIO_Init>

}
 8006bfa:	bf00      	nop
 8006bfc:	3750      	adds	r7, #80	; 0x50
 8006bfe:	46bd      	mov	sp, r7
 8006c00:	bd80      	pop	{r7, pc}
 8006c02:	bf00      	nop
 8006c04:	40000800 	.word	0x40000800
 8006c08:	40020400 	.word	0x40020400

08006c0c <MX_USART1_UART_Init>:
  * @brief USART1 Initialization Function
  * @param None
  * @retval None
  */
static void MX_USART1_UART_Init(void)
{
 8006c0c:	b580      	push	{r7, lr}
 8006c0e:	b08e      	sub	sp, #56	; 0x38
 8006c10:	af00      	add	r7, sp, #0

  /* USER CODE BEGIN USART1_Init 0 */

  /* USER CODE END USART1_Init 0 */

  LL_USART_InitTypeDef USART_InitStruct = {0};
 8006c12:	f107 031c 	add.w	r3, r7, #28
 8006c16:	2200      	movs	r2, #0
 8006c18:	601a      	str	r2, [r3, #0]
 8006c1a:	605a      	str	r2, [r3, #4]
 8006c1c:	609a      	str	r2, [r3, #8]
 8006c1e:	60da      	str	r2, [r3, #12]
 8006c20:	611a      	str	r2, [r3, #16]
 8006c22:	615a      	str	r2, [r3, #20]
 8006c24:	619a      	str	r2, [r3, #24]

  LL_GPIO_InitTypeDef GPIO_InitStruct = {0};
 8006c26:	1d3b      	adds	r3, r7, #4
 8006c28:	2200      	movs	r2, #0
 8006c2a:	601a      	str	r2, [r3, #0]
 8006c2c:	605a      	str	r2, [r3, #4]
 8006c2e:	609a      	str	r2, [r3, #8]
 8006c30:	60da      	str	r2, [r3, #12]
 8006c32:	611a      	str	r2, [r3, #16]
 8006c34:	615a      	str	r2, [r3, #20]

  /* Peripheral clock enable */
  LL_APB2_GRP1_EnableClock(LL_APB2_GRP1_PERIPH_USART1);
 8006c36:	2010      	movs	r0, #16
 8006c38:	f7fe f84e 	bl	8004cd8 <LL_APB2_GRP1_EnableClock>

  LL_AHB1_GRP1_EnableClock(LL_AHB1_GRP1_PERIPH_GPIOA);
 8006c3c:	2001      	movs	r0, #1
 8006c3e:	f7fe f81b 	bl	8004c78 <LL_AHB1_GRP1_EnableClock>
  /**USART1 GPIO Configuration
  PA9   ------> USART1_TX
  PA10   ------> USART1_RX
  */
  GPIO_InitStruct.Pin = LL_GPIO_PIN_9|LL_GPIO_PIN_10;
 8006c42:	f44f 63c0 	mov.w	r3, #1536	; 0x600
 8006c46:	607b      	str	r3, [r7, #4]
  GPIO_InitStruct.Mode = LL_GPIO_MODE_ALTERNATE;
 8006c48:	2302      	movs	r3, #2
 8006c4a:	60bb      	str	r3, [r7, #8]
  GPIO_InitStruct.Speed = LL_GPIO_SPEED_FREQ_VERY_HIGH;
 8006c4c:	2303      	movs	r3, #3
 8006c4e:	60fb      	str	r3, [r7, #12]
  GPIO_InitStruct.OutputType = LL_GPIO_OUTPUT_PUSHPULL;
 8006c50:	2300      	movs	r3, #0
 8006c52:	613b      	str	r3, [r7, #16]
  GPIO_InitStruct.Pull = LL_GPIO_PULL_NO;
 8006c54:	2300      	movs	r3, #0
 8006c56:	617b      	str	r3, [r7, #20]
  GPIO_InitStruct.Alternate = LL_GPIO_AF_7;
 8006c58:	2307      	movs	r3, #7
 8006c5a:	61bb      	str	r3, [r7, #24]
  LL_GPIO_Init(GPIOA, &GPIO_InitStruct);
 8006c5c:	1d3b      	adds	r3, r7, #4
 8006c5e:	4619      	mov	r1, r3
 8006c60:	481b      	ldr	r0, [pc, #108]	; (8006cd0 <MX_USART1_UART_Init+0xc4>)
 8006c62:	f000 feb6 	bl	80079d2 <LL_GPIO_Init>

  /* USART1 interrupt Init */
  NVIC_SetPriority(USART1_IRQn, NVIC_EncodePriority(NVIC_GetPriorityGrouping(),0, 0));
 8006c66:	f7fd fc31 	bl	80044cc <__NVIC_GetPriorityGrouping>
 8006c6a:	4603      	mov	r3, r0
 8006c6c:	2200      	movs	r2, #0
 8006c6e:	2100      	movs	r1, #0
 8006c70:	4618      	mov	r0, r3
 8006c72:	f7fd fca5 	bl	80045c0 <NVIC_EncodePriority>
 8006c76:	4603      	mov	r3, r0
 8006c78:	4619      	mov	r1, r3
 8006c7a:	2025      	movs	r0, #37	; 0x25
 8006c7c:	f7fd fc76 	bl	800456c <__NVIC_SetPriority>
  NVIC_EnableIRQ(USART1_IRQn);
 8006c80:	2025      	movs	r0, #37	; 0x25
 8006c82:	f7fd fc31 	bl	80044e8 <__NVIC_EnableIRQ>

  /* USER CODE BEGIN USART1_Init 1 */

  /* USER CODE END USART1_Init 1 */
  USART_InitStruct.BaudRate = 115200;
 8006c86:	f44f 33e1 	mov.w	r3, #115200	; 0x1c200
 8006c8a:	61fb      	str	r3, [r7, #28]
  USART_InitStruct.DataWidth = LL_USART_DATAWIDTH_8B;
 8006c8c:	2300      	movs	r3, #0
 8006c8e:	623b      	str	r3, [r7, #32]
  USART_InitStruct.StopBits = LL_USART_STOPBITS_1;
 8006c90:	2300      	movs	r3, #0
 8006c92:	627b      	str	r3, [r7, #36]	; 0x24
  USART_InitStruct.Parity = LL_USART_PARITY_NONE;
 8006c94:	2300      	movs	r3, #0
 8006c96:	62bb      	str	r3, [r7, #40]	; 0x28
  USART_InitStruct.TransferDirection = LL_USART_DIRECTION_TX_RX;
 8006c98:	230c      	movs	r3, #12
 8006c9a:	62fb      	str	r3, [r7, #44]	; 0x2c
  USART_InitStruct.HardwareFlowControl = LL_USART_HWCONTROL_NONE;
 8006c9c:	2300      	movs	r3, #0
 8006c9e:	633b      	str	r3, [r7, #48]	; 0x30
  USART_InitStruct.OverSampling = LL_USART_OVERSAMPLING_16;
 8006ca0:	2300      	movs	r3, #0
 8006ca2:	637b      	str	r3, [r7, #52]	; 0x34
  LL_USART_Init(USART1, &USART_InitStruct);
 8006ca4:	f107 031c 	add.w	r3, r7, #28
 8006ca8:	4619      	mov	r1, r3
 8006caa:	480a      	ldr	r0, [pc, #40]	; (8006cd4 <MX_USART1_UART_Init+0xc8>)
 8006cac:	f001 fd0a 	bl	80086c4 <LL_USART_Init>
  LL_USART_ConfigAsyncMode(USART1);
 8006cb0:	4808      	ldr	r0, [pc, #32]	; (8006cd4 <MX_USART1_UART_Init+0xc8>)
 8006cb2:	f7fe f9b7 	bl	8005024 <LL_USART_ConfigAsyncMode>
  LL_USART_Enable(USART1);
 8006cb6:	4807      	ldr	r0, [pc, #28]	; (8006cd4 <MX_USART1_UART_Init+0xc8>)
 8006cb8:	f7fe f9a4 	bl	8005004 <LL_USART_Enable>
  /* USER CODE BEGIN USART1_Init 2 */
  LL_USART_EnableIT_RXNE (USART1);
 8006cbc:	4805      	ldr	r0, [pc, #20]	; (8006cd4 <MX_USART1_UART_Init+0xc8>)
 8006cbe:	f7fe f9da 	bl	8005076 <LL_USART_EnableIT_RXNE>
  LL_USART_EnableIT_TC (USART1);
 8006cc2:	4804      	ldr	r0, [pc, #16]	; (8006cd4 <MX_USART1_UART_Init+0xc8>)
 8006cc4:	f7fe f9fa 	bl	80050bc <LL_USART_EnableIT_TC>


  /* USER CODE END USART1_Init 2 */

}
 8006cc8:	bf00      	nop
 8006cca:	3738      	adds	r7, #56	; 0x38
 8006ccc:	46bd      	mov	sp, r7
 8006cce:	bd80      	pop	{r7, pc}
 8006cd0:	40020000 	.word	0x40020000
 8006cd4:	40011000 	.word	0x40011000

08006cd8 <MX_DMA_Init>:

/**
  * Enable DMA controller clock
  */
static void MX_DMA_Init(void)
{
 8006cd8:	b580      	push	{r7, lr}
 8006cda:	af00      	add	r7, sp, #0

  /* Init with LL driver */
  /* DMA controller clock enable */
  LL_AHB1_GRP1_EnableClock(LL_AHB1_GRP1_PERIPH_DMA1);
 8006cdc:	f44f 1000 	mov.w	r0, #2097152	; 0x200000
 8006ce0:	f7fd ffca 	bl	8004c78 <LL_AHB1_GRP1_EnableClock>

  /* DMA interrupt init */
  /* DMA1_Stream6_IRQn interrupt configuration */
  NVIC_SetPriority(DMA1_Stream6_IRQn, NVIC_EncodePriority(NVIC_GetPriorityGrouping(),0, 0));
 8006ce4:	f7fd fbf2 	bl	80044cc <__NVIC_GetPriorityGrouping>
 8006ce8:	4603      	mov	r3, r0
 8006cea:	2200      	movs	r2, #0
 8006cec:	2100      	movs	r1, #0
 8006cee:	4618      	mov	r0, r3
 8006cf0:	f7fd fc66 	bl	80045c0 <NVIC_EncodePriority>
 8006cf4:	4603      	mov	r3, r0
 8006cf6:	4619      	mov	r1, r3
 8006cf8:	2011      	movs	r0, #17
 8006cfa:	f7fd fc37 	bl	800456c <__NVIC_SetPriority>
  NVIC_EnableIRQ(DMA1_Stream6_IRQn);
 8006cfe:	2011      	movs	r0, #17
 8006d00:	f7fd fbf2 	bl	80044e8 <__NVIC_EnableIRQ>

}
 8006d04:	bf00      	nop
 8006d06:	bd80      	pop	{r7, pc}

08006d08 <MX_GPIO_Init>:
  * @brief GPIO Initialization Function
  * @param None
  * @retval None
  */
static void MX_GPIO_Init(void)
{
 8006d08:	b580      	push	{r7, lr}
 8006d0a:	b086      	sub	sp, #24
 8006d0c:	af00      	add	r7, sp, #0
  LL_GPIO_InitTypeDef GPIO_InitStruct = {0};
 8006d0e:	463b      	mov	r3, r7
 8006d10:	2200      	movs	r2, #0
 8006d12:	601a      	str	r2, [r3, #0]
 8006d14:	605a      	str	r2, [r3, #4]
 8006d16:	609a      	str	r2, [r3, #8]
 8006d18:	60da      	str	r2, [r3, #12]
 8006d1a:	611a      	str	r2, [r3, #16]
 8006d1c:	615a      	str	r2, [r3, #20]

  /* GPIO Ports Clock Enable */
  LL_AHB1_GRP1_EnableClock(LL_AHB1_GRP1_PERIPH_GPIOC);
 8006d1e:	2004      	movs	r0, #4
 8006d20:	f7fd ffaa 	bl	8004c78 <LL_AHB1_GRP1_EnableClock>
  LL_AHB1_GRP1_EnableClock(LL_AHB1_GRP1_PERIPH_GPIOH);
 8006d24:	2080      	movs	r0, #128	; 0x80
 8006d26:	f7fd ffa7 	bl	8004c78 <LL_AHB1_GRP1_EnableClock>
  LL_AHB1_GRP1_EnableClock(LL_AHB1_GRP1_PERIPH_GPIOA);
 8006d2a:	2001      	movs	r0, #1
 8006d2c:	f7fd ffa4 	bl	8004c78 <LL_AHB1_GRP1_EnableClock>
  LL_AHB1_GRP1_EnableClock(LL_AHB1_GRP1_PERIPH_GPIOB);
 8006d30:	2002      	movs	r0, #2
 8006d32:	f7fd ffa1 	bl	8004c78 <LL_AHB1_GRP1_EnableClock>

  /**/
  LL_GPIO_ResetOutputPin(BlueLED_GPIO_Port, BlueLED_Pin);
 8006d36:	f44f 5100 	mov.w	r1, #8192	; 0x2000
 8006d3a:	482d      	ldr	r0, [pc, #180]	; (8006df0 <MX_GPIO_Init+0xe8>)
 8006d3c:	f7fe fa13 	bl	8005166 <LL_GPIO_ResetOutputPin>

  /**/
  LL_GPIO_ResetOutputPin(RS485_nWrite_GPIO_Port, RS485_nWrite_Pin);
 8006d40:	f44f 5180 	mov.w	r1, #4096	; 0x1000
 8006d44:	482b      	ldr	r0, [pc, #172]	; (8006df4 <MX_GPIO_Init+0xec>)
 8006d46:	f7fe fa0e 	bl	8005166 <LL_GPIO_ResetOutputPin>

  /**/
  GPIO_InitStruct.Pin = BlueLED_Pin;
 8006d4a:	f44f 5300 	mov.w	r3, #8192	; 0x2000
 8006d4e:	603b      	str	r3, [r7, #0]
  GPIO_InitStruct.Mode = LL_GPIO_MODE_OUTPUT;
 8006d50:	2301      	movs	r3, #1
 8006d52:	607b      	str	r3, [r7, #4]
  GPIO_InitStruct.Speed = LL_GPIO_SPEED_FREQ_LOW;
 8006d54:	2300      	movs	r3, #0
 8006d56:	60bb      	str	r3, [r7, #8]
  GPIO_InitStruct.OutputType = LL_GPIO_OUTPUT_PUSHPULL;
 8006d58:	2300      	movs	r3, #0
 8006d5a:	60fb      	str	r3, [r7, #12]
  GPIO_InitStruct.Pull = LL_GPIO_PULL_NO;
 8006d5c:	2300      	movs	r3, #0
 8006d5e:	613b      	str	r3, [r7, #16]
  LL_GPIO_Init(BlueLED_GPIO_Port, &GPIO_InitStruct);
 8006d60:	463b      	mov	r3, r7
 8006d62:	4619      	mov	r1, r3
 8006d64:	4822      	ldr	r0, [pc, #136]	; (8006df0 <MX_GPIO_Init+0xe8>)
 8006d66:	f000 fe34 	bl	80079d2 <LL_GPIO_Init>

  /**/
  GPIO_InitStruct.Pin = LL_GPIO_PIN_14|LL_GPIO_PIN_15;
 8006d6a:	f44f 4340 	mov.w	r3, #49152	; 0xc000
 8006d6e:	603b      	str	r3, [r7, #0]
  GPIO_InitStruct.Mode = LL_GPIO_MODE_INPUT;
 8006d70:	2300      	movs	r3, #0
 8006d72:	607b      	str	r3, [r7, #4]
  GPIO_InitStruct.Pull = LL_GPIO_PULL_UP;
 8006d74:	2301      	movs	r3, #1
 8006d76:	613b      	str	r3, [r7, #16]
  LL_GPIO_Init(GPIOC, &GPIO_InitStruct);
 8006d78:	463b      	mov	r3, r7
 8006d7a:	4619      	mov	r1, r3
 8006d7c:	481c      	ldr	r0, [pc, #112]	; (8006df0 <MX_GPIO_Init+0xe8>)
 8006d7e:	f000 fe28 	bl	80079d2 <LL_GPIO_Init>

  /**/
  GPIO_InitStruct.Pin = KeySwitch_Pin;
 8006d82:	2301      	movs	r3, #1
 8006d84:	603b      	str	r3, [r7, #0]
  GPIO_InitStruct.Mode = LL_GPIO_MODE_INPUT;
 8006d86:	2300      	movs	r3, #0
 8006d88:	607b      	str	r3, [r7, #4]
  GPIO_InitStruct.Pull = LL_GPIO_PULL_NO;
 8006d8a:	2300      	movs	r3, #0
 8006d8c:	613b      	str	r3, [r7, #16]
  LL_GPIO_Init(KeySwitch_GPIO_Port, &GPIO_InitStruct);
 8006d8e:	463b      	mov	r3, r7
 8006d90:	4619      	mov	r1, r3
 8006d92:	4818      	ldr	r0, [pc, #96]	; (8006df4 <MX_GPIO_Init+0xec>)
 8006d94:	f000 fe1d 	bl	80079d2 <LL_GPIO_Init>

  /**/
  GPIO_InitStruct.Pin = LL_GPIO_PIN_1|LL_GPIO_PIN_2|LL_GPIO_PIN_3|LL_GPIO_PIN_4
 8006d98:	f248 133e 	movw	r3, #33086	; 0x813e
 8006d9c:	603b      	str	r3, [r7, #0]
                          |LL_GPIO_PIN_5|LL_GPIO_PIN_8|LL_GPIO_PIN_15;
  GPIO_InitStruct.Mode = LL_GPIO_MODE_INPUT;
 8006d9e:	2300      	movs	r3, #0
 8006da0:	607b      	str	r3, [r7, #4]
  GPIO_InitStruct.Pull = LL_GPIO_PULL_UP;
 8006da2:	2301      	movs	r3, #1
 8006da4:	613b      	str	r3, [r7, #16]
  LL_GPIO_Init(GPIOA, &GPIO_InitStruct);
 8006da6:	463b      	mov	r3, r7
 8006da8:	4619      	mov	r1, r3
 8006daa:	4812      	ldr	r0, [pc, #72]	; (8006df4 <MX_GPIO_Init+0xec>)
 8006dac:	f000 fe11 	bl	80079d2 <LL_GPIO_Init>

  /**/
  GPIO_InitStruct.Pin = LL_GPIO_PIN_10|LL_GPIO_PIN_12|LL_GPIO_PIN_13|LL_GPIO_PIN_14
 8006db0:	f24f 4330 	movw	r3, #62512	; 0xf430
 8006db4:	603b      	str	r3, [r7, #0]
                          |LL_GPIO_PIN_15|LL_GPIO_PIN_4|LL_GPIO_PIN_5;
  GPIO_InitStruct.Mode = LL_GPIO_MODE_INPUT;
 8006db6:	2300      	movs	r3, #0
 8006db8:	607b      	str	r3, [r7, #4]
  GPIO_InitStruct.Pull = LL_GPIO_PULL_UP;
 8006dba:	2301      	movs	r3, #1
 8006dbc:	613b      	str	r3, [r7, #16]
  LL_GPIO_Init(GPIOB, &GPIO_InitStruct);
 8006dbe:	463b      	mov	r3, r7
 8006dc0:	4619      	mov	r1, r3
 8006dc2:	480d      	ldr	r0, [pc, #52]	; (8006df8 <MX_GPIO_Init+0xf0>)
 8006dc4:	f000 fe05 	bl	80079d2 <LL_GPIO_Init>

  /**/
  GPIO_InitStruct.Pin = RS485_nWrite_Pin;
 8006dc8:	f44f 5380 	mov.w	r3, #4096	; 0x1000
 8006dcc:	603b      	str	r3, [r7, #0]
  GPIO_InitStruct.Mode = LL_GPIO_MODE_OUTPUT;
 8006dce:	2301      	movs	r3, #1
 8006dd0:	607b      	str	r3, [r7, #4]
  GPIO_InitStruct.Speed = LL_GPIO_SPEED_FREQ_LOW;
 8006dd2:	2300      	movs	r3, #0
 8006dd4:	60bb      	str	r3, [r7, #8]
  GPIO_InitStruct.OutputType = LL_GPIO_OUTPUT_PUSHPULL;
 8006dd6:	2300      	movs	r3, #0
 8006dd8:	60fb      	str	r3, [r7, #12]
  GPIO_InitStruct.Pull = LL_GPIO_PULL_NO;
 8006dda:	2300      	movs	r3, #0
 8006ddc:	613b      	str	r3, [r7, #16]
  LL_GPIO_Init(RS485_nWrite_GPIO_Port, &GPIO_InitStruct);
 8006dde:	463b      	mov	r3, r7
 8006de0:	4619      	mov	r1, r3
 8006de2:	4804      	ldr	r0, [pc, #16]	; (8006df4 <MX_GPIO_Init+0xec>)
 8006de4:	f000 fdf5 	bl	80079d2 <LL_GPIO_Init>

}
 8006de8:	bf00      	nop
 8006dea:	3718      	adds	r7, #24
 8006dec:	46bd      	mov	sp, r7
 8006dee:	bd80      	pop	{r7, pc}
 8006df0:	40020800 	.word	0x40020800
 8006df4:	40020000 	.word	0x40020000
 8006df8:	40020400 	.word	0x40020400

08006dfc <Error_Handler>:
/**
  * @brief  This function is executed in case of error occurrence.
  * @retval None
  */
void Error_Handler(void)
{
 8006dfc:	b480      	push	{r7}
 8006dfe:	af00      	add	r7, sp, #0
  __ASM volatile ("cpsid i" : : : "memory");
 8006e00:	b672      	cpsid	i
}
 8006e02:	bf00      	nop
  /* USER CODE BEGIN Error_Handler_Debug */
  /* User can add his own implementation to report the HAL error return state */
  __disable_irq();
  while (1)
 8006e04:	e7fe      	b.n	8006e04 <Error_Handler+0x8>
	...

08006e08 <HAL_MspInit>:
/* USER CODE END 0 */
/**
  * Initializes the Global MSP.
  */
void HAL_MspInit(void)
{
 8006e08:	b480      	push	{r7}
 8006e0a:	b083      	sub	sp, #12
 8006e0c:	af00      	add	r7, sp, #0
  /* USER CODE BEGIN MspInit 0 */

  /* USER CODE END MspInit 0 */

  __HAL_RCC_SYSCFG_CLK_ENABLE();
 8006e0e:	2300      	movs	r3, #0
 8006e10:	607b      	str	r3, [r7, #4]
 8006e12:	4b10      	ldr	r3, [pc, #64]	; (8006e54 <HAL_MspInit+0x4c>)
 8006e14:	6c5b      	ldr	r3, [r3, #68]	; 0x44
 8006e16:	4a0f      	ldr	r2, [pc, #60]	; (8006e54 <HAL_MspInit+0x4c>)
 8006e18:	f443 4380 	orr.w	r3, r3, #16384	; 0x4000
 8006e1c:	6453      	str	r3, [r2, #68]	; 0x44
 8006e1e:	4b0d      	ldr	r3, [pc, #52]	; (8006e54 <HAL_MspInit+0x4c>)
 8006e20:	6c5b      	ldr	r3, [r3, #68]	; 0x44
 8006e22:	f403 4380 	and.w	r3, r3, #16384	; 0x4000
 8006e26:	607b      	str	r3, [r7, #4]
 8006e28:	687b      	ldr	r3, [r7, #4]
  __HAL_RCC_PWR_CLK_ENABLE();
 8006e2a:	2300      	movs	r3, #0
 8006e2c:	603b      	str	r3, [r7, #0]
 8006e2e:	4b09      	ldr	r3, [pc, #36]	; (8006e54 <HAL_MspInit+0x4c>)
 8006e30:	6c1b      	ldr	r3, [r3, #64]	; 0x40
 8006e32:	4a08      	ldr	r2, [pc, #32]	; (8006e54 <HAL_MspInit+0x4c>)
 8006e34:	f043 5380 	orr.w	r3, r3, #268435456	; 0x10000000
 8006e38:	6413      	str	r3, [r2, #64]	; 0x40
 8006e3a:	4b06      	ldr	r3, [pc, #24]	; (8006e54 <HAL_MspInit+0x4c>)
 8006e3c:	6c1b      	ldr	r3, [r3, #64]	; 0x40
 8006e3e:	f003 5380 	and.w	r3, r3, #268435456	; 0x10000000
 8006e42:	603b      	str	r3, [r7, #0]
 8006e44:	683b      	ldr	r3, [r7, #0]
  /* System interrupt init*/

  /* USER CODE BEGIN MspInit 1 */

  /* USER CODE END MspInit 1 */
}
 8006e46:	bf00      	nop
 8006e48:	370c      	adds	r7, #12
 8006e4a:	46bd      	mov	sp, r7
 8006e4c:	f85d 7b04 	ldr.w	r7, [sp], #4
 8006e50:	4770      	bx	lr
 8006e52:	bf00      	nop
 8006e54:	40023800 	.word	0x40023800

08006e58 <HAL_CRC_MspInit>:
* This function configures the hardware resources used in this example
* @param hcrc: CRC handle pointer
* @retval None
*/
void HAL_CRC_MspInit(CRC_HandleTypeDef* hcrc)
{
 8006e58:	b480      	push	{r7}
 8006e5a:	b085      	sub	sp, #20
 8006e5c:	af00      	add	r7, sp, #0
 8006e5e:	6078      	str	r0, [r7, #4]
  if(hcrc->Instance==CRC)
 8006e60:	687b      	ldr	r3, [r7, #4]
 8006e62:	681b      	ldr	r3, [r3, #0]
 8006e64:	4a0b      	ldr	r2, [pc, #44]	; (8006e94 <HAL_CRC_MspInit+0x3c>)
 8006e66:	4293      	cmp	r3, r2
 8006e68:	d10d      	bne.n	8006e86 <HAL_CRC_MspInit+0x2e>
  {
  /* USER CODE BEGIN CRC_MspInit 0 */

  /* USER CODE END CRC_MspInit 0 */
    /* Peripheral clock enable */
    __HAL_RCC_CRC_CLK_ENABLE();
 8006e6a:	2300      	movs	r3, #0
 8006e6c:	60fb      	str	r3, [r7, #12]
 8006e6e:	4b0a      	ldr	r3, [pc, #40]	; (8006e98 <HAL_CRC_MspInit+0x40>)
 8006e70:	6b1b      	ldr	r3, [r3, #48]	; 0x30
 8006e72:	4a09      	ldr	r2, [pc, #36]	; (8006e98 <HAL_CRC_MspInit+0x40>)
 8006e74:	f443 5380 	orr.w	r3, r3, #4096	; 0x1000
 8006e78:	6313      	str	r3, [r2, #48]	; 0x30
 8006e7a:	4b07      	ldr	r3, [pc, #28]	; (8006e98 <HAL_CRC_MspInit+0x40>)
 8006e7c:	6b1b      	ldr	r3, [r3, #48]	; 0x30
 8006e7e:	f403 5380 	and.w	r3, r3, #4096	; 0x1000
 8006e82:	60fb      	str	r3, [r7, #12]
 8006e84:	68fb      	ldr	r3, [r7, #12]
  /* USER CODE BEGIN CRC_MspInit 1 */

  /* USER CODE END CRC_MspInit 1 */
  }

}
 8006e86:	bf00      	nop
 8006e88:	3714      	adds	r7, #20
 8006e8a:	46bd      	mov	sp, r7
 8006e8c:	f85d 7b04 	ldr.w	r7, [sp], #4
 8006e90:	4770      	bx	lr
 8006e92:	bf00      	nop
 8006e94:	40023000 	.word	0x40023000
 8006e98:	40023800 	.word	0x40023800

08006e9c <LL_DMA_IsActiveFlag_HT6>:
{
 8006e9c:	b480      	push	{r7}
 8006e9e:	b083      	sub	sp, #12
 8006ea0:	af00      	add	r7, sp, #0
 8006ea2:	6078      	str	r0, [r7, #4]
  return (READ_BIT(DMAx->HISR ,DMA_HISR_HTIF6)==(DMA_HISR_HTIF6));
 8006ea4:	687b      	ldr	r3, [r7, #4]
 8006ea6:	685b      	ldr	r3, [r3, #4]
 8006ea8:	f403 1380 	and.w	r3, r3, #1048576	; 0x100000
 8006eac:	f5b3 1f80 	cmp.w	r3, #1048576	; 0x100000
 8006eb0:	bf0c      	ite	eq
 8006eb2:	2301      	moveq	r3, #1
 8006eb4:	2300      	movne	r3, #0
 8006eb6:	b2db      	uxtb	r3, r3
}
 8006eb8:	4618      	mov	r0, r3
 8006eba:	370c      	adds	r7, #12
 8006ebc:	46bd      	mov	sp, r7
 8006ebe:	f85d 7b04 	ldr.w	r7, [sp], #4
 8006ec2:	4770      	bx	lr

08006ec4 <LL_DMA_IsActiveFlag_TC6>:
{
 8006ec4:	b480      	push	{r7}
 8006ec6:	b083      	sub	sp, #12
 8006ec8:	af00      	add	r7, sp, #0
 8006eca:	6078      	str	r0, [r7, #4]
  return (READ_BIT(DMAx->HISR ,DMA_HISR_TCIF6)==(DMA_HISR_TCIF6));
 8006ecc:	687b      	ldr	r3, [r7, #4]
 8006ece:	685b      	ldr	r3, [r3, #4]
 8006ed0:	f403 1300 	and.w	r3, r3, #2097152	; 0x200000
 8006ed4:	f5b3 1f00 	cmp.w	r3, #2097152	; 0x200000
 8006ed8:	bf0c      	ite	eq
 8006eda:	2301      	moveq	r3, #1
 8006edc:	2300      	movne	r3, #0
 8006ede:	b2db      	uxtb	r3, r3
}
 8006ee0:	4618      	mov	r0, r3
 8006ee2:	370c      	adds	r7, #12
 8006ee4:	46bd      	mov	sp, r7
 8006ee6:	f85d 7b04 	ldr.w	r7, [sp], #4
 8006eea:	4770      	bx	lr

08006eec <LL_DMA_ClearFlag_HT6>:
{
 8006eec:	b480      	push	{r7}
 8006eee:	b083      	sub	sp, #12
 8006ef0:	af00      	add	r7, sp, #0
 8006ef2:	6078      	str	r0, [r7, #4]
  WRITE_REG(DMAx->HIFCR , DMA_HIFCR_CHTIF6);
 8006ef4:	687b      	ldr	r3, [r7, #4]
 8006ef6:	f44f 1280 	mov.w	r2, #1048576	; 0x100000
 8006efa:	60da      	str	r2, [r3, #12]
}
 8006efc:	bf00      	nop
 8006efe:	370c      	adds	r7, #12
 8006f00:	46bd      	mov	sp, r7
 8006f02:	f85d 7b04 	ldr.w	r7, [sp], #4
 8006f06:	4770      	bx	lr

08006f08 <LL_DMA_ClearFlag_TC6>:
{
 8006f08:	b480      	push	{r7}
 8006f0a:	b083      	sub	sp, #12
 8006f0c:	af00      	add	r7, sp, #0
 8006f0e:	6078      	str	r0, [r7, #4]
  WRITE_REG(DMAx->HIFCR , DMA_HIFCR_CTCIF6);
 8006f10:	687b      	ldr	r3, [r7, #4]
 8006f12:	f44f 1200 	mov.w	r2, #2097152	; 0x200000
 8006f16:	60da      	str	r2, [r3, #12]
}
 8006f18:	bf00      	nop
 8006f1a:	370c      	adds	r7, #12
 8006f1c:	46bd      	mov	sp, r7
 8006f1e:	f85d 7b04 	ldr.w	r7, [sp], #4
 8006f22:	4770      	bx	lr

08006f24 <LL_USART_IsActiveFlag_RXNE>:
{
 8006f24:	b480      	push	{r7}
 8006f26:	b083      	sub	sp, #12
 8006f28:	af00      	add	r7, sp, #0
 8006f2a:	6078      	str	r0, [r7, #4]
  return (READ_BIT(USARTx->SR, USART_SR_RXNE) == (USART_SR_RXNE));
 8006f2c:	687b      	ldr	r3, [r7, #4]
 8006f2e:	681b      	ldr	r3, [r3, #0]
 8006f30:	f003 0320 	and.w	r3, r3, #32
 8006f34:	2b20      	cmp	r3, #32
 8006f36:	bf0c      	ite	eq
 8006f38:	2301      	moveq	r3, #1
 8006f3a:	2300      	movne	r3, #0
 8006f3c:	b2db      	uxtb	r3, r3
}
 8006f3e:	4618      	mov	r0, r3
 8006f40:	370c      	adds	r7, #12
 8006f42:	46bd      	mov	sp, r7
 8006f44:	f85d 7b04 	ldr.w	r7, [sp], #4
 8006f48:	4770      	bx	lr

08006f4a <LL_USART_IsActiveFlag_TC>:
{
 8006f4a:	b480      	push	{r7}
 8006f4c:	b083      	sub	sp, #12
 8006f4e:	af00      	add	r7, sp, #0
 8006f50:	6078      	str	r0, [r7, #4]
  return (READ_BIT(USARTx->SR, USART_SR_TC) == (USART_SR_TC));
 8006f52:	687b      	ldr	r3, [r7, #4]
 8006f54:	681b      	ldr	r3, [r3, #0]
 8006f56:	f003 0340 	and.w	r3, r3, #64	; 0x40
 8006f5a:	2b40      	cmp	r3, #64	; 0x40
 8006f5c:	bf0c      	ite	eq
 8006f5e:	2301      	moveq	r3, #1
 8006f60:	2300      	movne	r3, #0
 8006f62:	b2db      	uxtb	r3, r3
}
 8006f64:	4618      	mov	r0, r3
 8006f66:	370c      	adds	r7, #12
 8006f68:	46bd      	mov	sp, r7
 8006f6a:	f85d 7b04 	ldr.w	r7, [sp], #4
 8006f6e:	4770      	bx	lr

08006f70 <LL_USART_ClearFlag_TC>:
{
 8006f70:	b480      	push	{r7}
 8006f72:	b083      	sub	sp, #12
 8006f74:	af00      	add	r7, sp, #0
 8006f76:	6078      	str	r0, [r7, #4]
  WRITE_REG(USARTx->SR, ~(USART_SR_TC));
 8006f78:	687b      	ldr	r3, [r7, #4]
 8006f7a:	f06f 0240 	mvn.w	r2, #64	; 0x40
 8006f7e:	601a      	str	r2, [r3, #0]
}
 8006f80:	bf00      	nop
 8006f82:	370c      	adds	r7, #12
 8006f84:	46bd      	mov	sp, r7
 8006f86:	f85d 7b04 	ldr.w	r7, [sp], #4
 8006f8a:	4770      	bx	lr

08006f8c <LL_USART_ReceiveData8>:
{
 8006f8c:	b480      	push	{r7}
 8006f8e:	b083      	sub	sp, #12
 8006f90:	af00      	add	r7, sp, #0
 8006f92:	6078      	str	r0, [r7, #4]
  return (uint8_t)(READ_BIT(USARTx->DR, USART_DR_DR));
 8006f94:	687b      	ldr	r3, [r7, #4]
 8006f96:	685b      	ldr	r3, [r3, #4]
 8006f98:	b2db      	uxtb	r3, r3
}
 8006f9a:	4618      	mov	r0, r3
 8006f9c:	370c      	adds	r7, #12
 8006f9e:	46bd      	mov	sp, r7
 8006fa0:	f85d 7b04 	ldr.w	r7, [sp], #4
 8006fa4:	4770      	bx	lr

08006fa6 <LL_GPIO_ResetOutputPin>:
{
 8006fa6:	b480      	push	{r7}
 8006fa8:	b083      	sub	sp, #12
 8006faa:	af00      	add	r7, sp, #0
 8006fac:	6078      	str	r0, [r7, #4]
 8006fae:	6039      	str	r1, [r7, #0]
  WRITE_REG(GPIOx->BSRR, (PinMask << 16));
 8006fb0:	683b      	ldr	r3, [r7, #0]
 8006fb2:	041a      	lsls	r2, r3, #16
 8006fb4:	687b      	ldr	r3, [r7, #4]
 8006fb6:	619a      	str	r2, [r3, #24]
}
 8006fb8:	bf00      	nop
 8006fba:	370c      	adds	r7, #12
 8006fbc:	46bd      	mov	sp, r7
 8006fbe:	f85d 7b04 	ldr.w	r7, [sp], #4
 8006fc2:	4770      	bx	lr

08006fc4 <NMI_Handler>:
/******************************************************************************/
/**
  * @brief This function handles Non maskable interrupt.
  */
void NMI_Handler(void)
{
 8006fc4:	b480      	push	{r7}
 8006fc6:	af00      	add	r7, sp, #0
  /* USER CODE BEGIN NonMaskableInt_IRQn 0 */

  /* USER CODE END NonMaskableInt_IRQn 0 */
  /* USER CODE BEGIN NonMaskableInt_IRQn 1 */
  while (1)
 8006fc8:	e7fe      	b.n	8006fc8 <NMI_Handler+0x4>

08006fca <HardFault_Handler>:

/**
  * @brief This function handles Hard fault interrupt.
  */
void HardFault_Handler(void)
{
 8006fca:	b480      	push	{r7}
 8006fcc:	af00      	add	r7, sp, #0
  /* USER CODE BEGIN HardFault_IRQn 0 */

  /* USER CODE END HardFault_IRQn 0 */
  while (1)
 8006fce:	e7fe      	b.n	8006fce <HardFault_Handler+0x4>

08006fd0 <MemManage_Handler>:

/**
  * @brief This function handles Memory management fault.
  */
void MemManage_Handler(void)
{
 8006fd0:	b480      	push	{r7}
 8006fd2:	af00      	add	r7, sp, #0
  /* USER CODE BEGIN MemoryManagement_IRQn 0 */

  /* USER CODE END MemoryManagement_IRQn 0 */
  while (1)
 8006fd4:	e7fe      	b.n	8006fd4 <MemManage_Handler+0x4>

08006fd6 <BusFault_Handler>:

/**
  * @brief This function handles Pre-fetch fault, memory access fault.
  */
void BusFault_Handler(void)
{
 8006fd6:	b480      	push	{r7}
 8006fd8:	af00      	add	r7, sp, #0
  /* USER CODE BEGIN BusFault_IRQn 0 */

  /* USER CODE END BusFault_IRQn 0 */
  while (1)
 8006fda:	e7fe      	b.n	8006fda <BusFault_Handler+0x4>

08006fdc <UsageFault_Handler>:

/**
  * @brief This function handles Undefined instruction or illegal state.
  */
void UsageFault_Handler(void)
{
 8006fdc:	b480      	push	{r7}
 8006fde:	af00      	add	r7, sp, #0
  /* USER CODE BEGIN UsageFault_IRQn 0 */

  /* USER CODE END UsageFault_IRQn 0 */
  while (1)
 8006fe0:	e7fe      	b.n	8006fe0 <UsageFault_Handler+0x4>

08006fe2 <SVC_Handler>:

/**
  * @brief This function handles System service call via SWI instruction.
  */
void SVC_Handler(void)
{
 8006fe2:	b480      	push	{r7}
 8006fe4:	af00      	add	r7, sp, #0

  /* USER CODE END SVCall_IRQn 0 */
  /* USER CODE BEGIN SVCall_IRQn 1 */

  /* USER CODE END SVCall_IRQn 1 */
}
 8006fe6:	bf00      	nop
 8006fe8:	46bd      	mov	sp, r7
 8006fea:	f85d 7b04 	ldr.w	r7, [sp], #4
 8006fee:	4770      	bx	lr

08006ff0 <DebugMon_Handler>:

/**
  * @brief This function handles Debug monitor.
  */
void DebugMon_Handler(void)
{
 8006ff0:	b480      	push	{r7}
 8006ff2:	af00      	add	r7, sp, #0

  /* USER CODE END DebugMonitor_IRQn 0 */
  /* USER CODE BEGIN DebugMonitor_IRQn 1 */

  /* USER CODE END DebugMonitor_IRQn 1 */
}
 8006ff4:	bf00      	nop
 8006ff6:	46bd      	mov	sp, r7
 8006ff8:	f85d 7b04 	ldr.w	r7, [sp], #4
 8006ffc:	4770      	bx	lr

08006ffe <PendSV_Handler>:

/**
  * @brief This function handles Pendable request for system service.
  */
void PendSV_Handler(void)
{
 8006ffe:	b480      	push	{r7}
 8007000:	af00      	add	r7, sp, #0

  /* USER CODE END PendSV_IRQn 0 */
  /* USER CODE BEGIN PendSV_IRQn 1 */

  /* USER CODE END PendSV_IRQn 1 */
}
 8007002:	bf00      	nop
 8007004:	46bd      	mov	sp, r7
 8007006:	f85d 7b04 	ldr.w	r7, [sp], #4
 800700a:	4770      	bx	lr

0800700c <SysTick_Handler>:

/**
  * @brief This function handles System tick timer.
  */
void SysTick_Handler(void)
{
 800700c:	b580      	push	{r7, lr}
 800700e:	af00      	add	r7, sp, #0
  /* USER CODE BEGIN SysTick_IRQn 0 */

  /* USER CODE END SysTick_IRQn 0 */
  HAL_IncTick();
 8007010:	f000 f8de 	bl	80071d0 <HAL_IncTick>
  /* USER CODE BEGIN SysTick_IRQn 1 */

  /* USER CODE END SysTick_IRQn 1 */
}
 8007014:	bf00      	nop
 8007016:	bd80      	pop	{r7, pc}

08007018 <DMA1_Stream6_IRQHandler>:

/**
  * @brief This function handles DMA1 stream6 global interrupt.
  */
void DMA1_Stream6_IRQHandler(void)
{
 8007018:	b580      	push	{r7, lr}
 800701a:	af00      	add	r7, sp, #0
  /* USER CODE BEGIN DMA1_Stream6_IRQn 0 */
    if (LL_DMA_IsActiveFlag_HT6(DMA1)) {        /* Check for HT event */
 800701c:	480d      	ldr	r0, [pc, #52]	; (8007054 <DMA1_Stream6_IRQHandler+0x3c>)
 800701e:	f7ff ff3d 	bl	8006e9c <LL_DMA_IsActiveFlag_HT6>
 8007022:	4603      	mov	r3, r0
 8007024:	2b00      	cmp	r3, #0
 8007026:	d006      	beq.n	8007036 <DMA1_Stream6_IRQHandler+0x1e>
        LL_DMA_ClearFlag_HT6(DMA1);
 8007028:	480a      	ldr	r0, [pc, #40]	; (8007054 <DMA1_Stream6_IRQHandler+0x3c>)
 800702a:	f7ff ff5f 	bl	8006eec <LL_DMA_ClearFlag_HT6>
        led_update_sequence(0);                 /* Call update sequence as HT event */
 800702e:	2000      	movs	r0, #0
 8007030:	f7fe f94a 	bl	80052c8 <led_update_sequence>
  /* USER CODE END DMA1_Stream6_IRQn 0 */

  /* USER CODE BEGIN DMA1_Stream6_IRQn 1 */

  /* USER CODE END DMA1_Stream6_IRQn 1 */
}
 8007034:	e00b      	b.n	800704e <DMA1_Stream6_IRQHandler+0x36>
    } else if (LL_DMA_IsActiveFlag_TC6(DMA1)) { /* Check for TC event */
 8007036:	4807      	ldr	r0, [pc, #28]	; (8007054 <DMA1_Stream6_IRQHandler+0x3c>)
 8007038:	f7ff ff44 	bl	8006ec4 <LL_DMA_IsActiveFlag_TC6>
 800703c:	4603      	mov	r3, r0
 800703e:	2b00      	cmp	r3, #0
 8007040:	d005      	beq.n	800704e <DMA1_Stream6_IRQHandler+0x36>
        LL_DMA_ClearFlag_TC6(DMA1);
 8007042:	4804      	ldr	r0, [pc, #16]	; (8007054 <DMA1_Stream6_IRQHandler+0x3c>)
 8007044:	f7ff ff60 	bl	8006f08 <LL_DMA_ClearFlag_TC6>
        led_update_sequence(1);                 /* Call update sequence as TC event */
 8007048:	2001      	movs	r0, #1
 800704a:	f7fe f93d 	bl	80052c8 <led_update_sequence>
}
 800704e:	bf00      	nop
 8007050:	bd80      	pop	{r7, pc}
 8007052:	bf00      	nop
 8007054:	40026000 	.word	0x40026000

08007058 <USART1_IRQHandler>:

/**
  * @brief This function handles USART1 global interrupt.
  */
void USART1_IRQHandler(void)
{
 8007058:	b580      	push	{r7, lr}
 800705a:	af00      	add	r7, sp, #0
  /* USER CODE BEGIN USART1_IRQn 0 */

	if (LL_USART_IsActiveFlag_TC (USART1)) {
 800705c:	480f      	ldr	r0, [pc, #60]	; (800709c <USART1_IRQHandler+0x44>)
 800705e:	f7ff ff74 	bl	8006f4a <LL_USART_IsActiveFlag_TC>
 8007062:	4603      	mov	r3, r0
 8007064:	2b00      	cmp	r3, #0
 8007066:	d007      	beq.n	8007078 <USART1_IRQHandler+0x20>
		LL_GPIO_ResetOutputPin (GPIOA, RS485_nWrite_Pin);
 8007068:	f44f 5180 	mov.w	r1, #4096	; 0x1000
 800706c:	480c      	ldr	r0, [pc, #48]	; (80070a0 <USART1_IRQHandler+0x48>)
 800706e:	f7ff ff9a 	bl	8006fa6 <LL_GPIO_ResetOutputPin>
		LL_USART_ClearFlag_TC (USART1);
 8007072:	480a      	ldr	r0, [pc, #40]	; (800709c <USART1_IRQHandler+0x44>)
 8007074:	f7ff ff7c 	bl	8006f70 <LL_USART_ClearFlag_TC>
	}
	if ( LL_USART_IsActiveFlag_RXNE(USART1) ) {
 8007078:	4808      	ldr	r0, [pc, #32]	; (800709c <USART1_IRQHandler+0x44>)
 800707a:	f7ff ff53 	bl	8006f24 <LL_USART_IsActiveFlag_RXNE>
 800707e:	4603      	mov	r3, r0
 8007080:	2b00      	cmp	r3, #0
 8007082:	d009      	beq.n	8007098 <USART1_IRQHandler+0x40>
		currentRx = LL_USART_ReceiveData8 (USART1);
 8007084:	4805      	ldr	r0, [pc, #20]	; (800709c <USART1_IRQHandler+0x44>)
 8007086:	f7ff ff81 	bl	8006f8c <LL_USART_ReceiveData8>
 800708a:	4603      	mov	r3, r0
 800708c:	461a      	mov	r2, r3
 800708e:	4b05      	ldr	r3, [pc, #20]	; (80070a4 <USART1_IRQHandler+0x4c>)
 8007090:	701a      	strb	r2, [r3, #0]
		dataArrived = 1;
 8007092:	4b05      	ldr	r3, [pc, #20]	; (80070a8 <USART1_IRQHandler+0x50>)
 8007094:	2201      	movs	r2, #1
 8007096:	701a      	strb	r2, [r3, #0]

  /* USER CODE END USART1_IRQn 0 */
  /* USER CODE BEGIN USART1_IRQn 1 */

  /* USER CODE END USART1_IRQn 1 */
}
 8007098:	bf00      	nop
 800709a:	bd80      	pop	{r7, pc}
 800709c:	40011000 	.word	0x40011000
 80070a0:	40020000 	.word	0x40020000
 80070a4:	20000029 	.word	0x20000029
 80070a8:	20000028 	.word	0x20000028

080070ac <SystemInit>:
  *         configuration.
  * @param  None
  * @retval None
  */
void SystemInit(void)
{
 80070ac:	b480      	push	{r7}
 80070ae:	af00      	add	r7, sp, #0
  /* FPU settings ------------------------------------------------------------*/
  #if (__FPU_PRESENT == 1) && (__FPU_USED == 1)
    SCB->CPACR |= ((3UL << 10*2)|(3UL << 11*2));  /* set CP10 and CP11 Full Access */
 80070b0:	4b07      	ldr	r3, [pc, #28]	; (80070d0 <SystemInit+0x24>)
 80070b2:	f8d3 3088 	ldr.w	r3, [r3, #136]	; 0x88
 80070b6:	4a06      	ldr	r2, [pc, #24]	; (80070d0 <SystemInit+0x24>)
 80070b8:	f443 0370 	orr.w	r3, r3, #15728640	; 0xf00000
 80070bc:	f8c2 3088 	str.w	r3, [r2, #136]	; 0x88
  SystemInit_ExtMemCtl(); 
#endif /* DATA_IN_ExtSRAM || DATA_IN_ExtSDRAM */

  /* Configure the Vector Table location -------------------------------------*/
#if defined(USER_VECT_TAB_ADDRESS)
  SCB->VTOR = VECT_TAB_BASE_ADDRESS | VECT_TAB_OFFSET; /* Vector Table Relocation in Internal SRAM */
 80070c0:	4b03      	ldr	r3, [pc, #12]	; (80070d0 <SystemInit+0x24>)
 80070c2:	4a04      	ldr	r2, [pc, #16]	; (80070d4 <SystemInit+0x28>)
 80070c4:	609a      	str	r2, [r3, #8]
#endif /* USER_VECT_TAB_ADDRESS */
}
 80070c6:	bf00      	nop
 80070c8:	46bd      	mov	sp, r7
 80070ca:	f85d 7b04 	ldr.w	r7, [sp], #4
 80070ce:	4770      	bx	lr
 80070d0:	e000ed00 	.word	0xe000ed00
 80070d4:	08004000 	.word	0x08004000

080070d8 <Reset_Handler>:

    .section  .text.Reset_Handler
  .weak  Reset_Handler
  .type  Reset_Handler, %function
Reset_Handler:  
  ldr   sp, =_estack      /* set stack pointer */
 80070d8:	f8df d034 	ldr.w	sp, [pc, #52]	; 8007110 <LoopFillZerobss+0x12>

/* Copy the data segment initializers from flash to SRAM */  
  ldr r0, =_sdata
 80070dc:	480d      	ldr	r0, [pc, #52]	; (8007114 <LoopFillZerobss+0x16>)
  ldr r1, =_edata
 80070de:	490e      	ldr	r1, [pc, #56]	; (8007118 <LoopFillZerobss+0x1a>)
  ldr r2, =_sidata
 80070e0:	4a0e      	ldr	r2, [pc, #56]	; (800711c <LoopFillZerobss+0x1e>)
  movs r3, #0
 80070e2:	2300      	movs	r3, #0
  b LoopCopyDataInit
 80070e4:	e002      	b.n	80070ec <LoopCopyDataInit>

080070e6 <CopyDataInit>:

CopyDataInit:
  ldr r4, [r2, r3]
 80070e6:	58d4      	ldr	r4, [r2, r3]
  str r4, [r0, r3]
 80070e8:	50c4      	str	r4, [r0, r3]
  adds r3, r3, #4
 80070ea:	3304      	adds	r3, #4

080070ec <LoopCopyDataInit>:

LoopCopyDataInit:
  adds r4, r0, r3
 80070ec:	18c4      	adds	r4, r0, r3
  cmp r4, r1
 80070ee:	428c      	cmp	r4, r1
  bcc CopyDataInit
 80070f0:	d3f9      	bcc.n	80070e6 <CopyDataInit>
  
/* Zero fill the bss segment. */
  ldr r2, =_sbss
 80070f2:	4a0b      	ldr	r2, [pc, #44]	; (8007120 <LoopFillZerobss+0x22>)
  ldr r4, =_ebss
 80070f4:	4c0b      	ldr	r4, [pc, #44]	; (8007124 <LoopFillZerobss+0x26>)
  movs r3, #0
 80070f6:	2300      	movs	r3, #0
  b LoopFillZerobss
 80070f8:	e001      	b.n	80070fe <LoopFillZerobss>

080070fa <FillZerobss>:

FillZerobss:
  str  r3, [r2]
 80070fa:	6013      	str	r3, [r2, #0]
  adds r2, r2, #4
 80070fc:	3204      	adds	r2, #4

080070fe <LoopFillZerobss>:

LoopFillZerobss:
  cmp r2, r4
 80070fe:	42a2      	cmp	r2, r4
  bcc FillZerobss
 8007100:	d3fb      	bcc.n	80070fa <FillZerobss>

/* Call the clock system intitialization function.*/
  bl  SystemInit   
 8007102:	f7ff ffd3 	bl	80070ac <SystemInit>
/* Call static constructors */
    bl __libc_init_array
 8007106:	f001 fb51 	bl	80087ac <__libc_init_array>
/* Call the application's entry point.*/
  bl  main
 800710a:	f7fe f9db 	bl	80054c4 <main>
  bx  lr    
 800710e:	4770      	bx	lr
  ldr   sp, =_estack      /* set stack pointer */
 8007110:	20010000 	.word	0x20010000
  ldr r0, =_sdata
 8007114:	20000000 	.word	0x20000000
  ldr r1, =_edata
 8007118:	2000000c 	.word	0x2000000c
  ldr r2, =_sidata
 800711c:	0800885c 	.word	0x0800885c
  ldr r2, =_sbss
 8007120:	2000000c 	.word	0x2000000c
  ldr r4, =_ebss
 8007124:	20000230 	.word	0x20000230

08007128 <ADC_IRQHandler>:
 * @retval None       
*/
    .section  .text.Default_Handler,"ax",%progbits
Default_Handler:
Infinite_Loop:
  b  Infinite_Loop
 8007128:	e7fe      	b.n	8007128 <ADC_IRQHandler>
	...

0800712c <HAL_Init>:
  *         need to ensure that the SysTick time base is always set to 1 millisecond
  *         to have correct HAL operation.
  * @retval HAL status
  */
HAL_StatusTypeDef HAL_Init(void)
{
 800712c:	b580      	push	{r7, lr}
 800712e:	af00      	add	r7, sp, #0
  /* Configure Flash prefetch, Instruction cache, Data cache */ 
#if (INSTRUCTION_CACHE_ENABLE != 0U)
  __HAL_FLASH_INSTRUCTION_CACHE_ENABLE();
 8007130:	4b0e      	ldr	r3, [pc, #56]	; (800716c <HAL_Init+0x40>)
 8007132:	681b      	ldr	r3, [r3, #0]
 8007134:	4a0d      	ldr	r2, [pc, #52]	; (800716c <HAL_Init+0x40>)
 8007136:	f443 7300 	orr.w	r3, r3, #512	; 0x200
 800713a:	6013      	str	r3, [r2, #0]
#endif /* INSTRUCTION_CACHE_ENABLE */

#if (DATA_CACHE_ENABLE != 0U)
  __HAL_FLASH_DATA_CACHE_ENABLE();
 800713c:	4b0b      	ldr	r3, [pc, #44]	; (800716c <HAL_Init+0x40>)
 800713e:	681b      	ldr	r3, [r3, #0]
 8007140:	4a0a      	ldr	r2, [pc, #40]	; (800716c <HAL_Init+0x40>)
 8007142:	f443 6380 	orr.w	r3, r3, #1024	; 0x400
 8007146:	6013      	str	r3, [r2, #0]
#endif /* DATA_CACHE_ENABLE */

#if (PREFETCH_ENABLE != 0U)
  __HAL_FLASH_PREFETCH_BUFFER_ENABLE();
 8007148:	4b08      	ldr	r3, [pc, #32]	; (800716c <HAL_Init+0x40>)
 800714a:	681b      	ldr	r3, [r3, #0]
 800714c:	4a07      	ldr	r2, [pc, #28]	; (800716c <HAL_Init+0x40>)
 800714e:	f443 7380 	orr.w	r3, r3, #256	; 0x100
 8007152:	6013      	str	r3, [r2, #0]
#endif /* PREFETCH_ENABLE */

  /* Set Interrupt Group Priority */
  HAL_NVIC_SetPriorityGrouping(NVIC_PRIORITYGROUP_4);
 8007154:	2003      	movs	r0, #3
 8007156:	f000 f931 	bl	80073bc <HAL_NVIC_SetPriorityGrouping>

  /* Use systick as time base source and configure 1ms tick (default clock after Reset is HSI) */
  HAL_InitTick(TICK_INT_PRIORITY);
 800715a:	200f      	movs	r0, #15
 800715c:	f000 f808 	bl	8007170 <HAL_InitTick>

  /* Init the low level hardware */
  HAL_MspInit();
 8007160:	f7ff fe52 	bl	8006e08 <HAL_MspInit>

  /* Return function status */
  return HAL_OK;
 8007164:	2300      	movs	r3, #0
}
 8007166:	4618      	mov	r0, r3
 8007168:	bd80      	pop	{r7, pc}
 800716a:	bf00      	nop
 800716c:	40023c00 	.word	0x40023c00

08007170 <HAL_InitTick>:
  *       implementation  in user file.
  * @param TickPriority Tick interrupt priority.
  * @retval HAL status
  */
__weak HAL_StatusTypeDef HAL_InitTick(uint32_t TickPriority)
{
 8007170:	b580      	push	{r7, lr}
 8007172:	b082      	sub	sp, #8
 8007174:	af00      	add	r7, sp, #0
 8007176:	6078      	str	r0, [r7, #4]
  /* Configure the SysTick to have interrupt in 1ms time basis*/
  if (HAL_SYSTICK_Config(SystemCoreClock / (1000U / uwTickFreq)) > 0U)
 8007178:	4b12      	ldr	r3, [pc, #72]	; (80071c4 <HAL_InitTick+0x54>)
 800717a:	681a      	ldr	r2, [r3, #0]
 800717c:	4b12      	ldr	r3, [pc, #72]	; (80071c8 <HAL_InitTick+0x58>)
 800717e:	781b      	ldrb	r3, [r3, #0]
 8007180:	4619      	mov	r1, r3
 8007182:	f44f 737a 	mov.w	r3, #1000	; 0x3e8
 8007186:	fbb3 f3f1 	udiv	r3, r3, r1
 800718a:	fbb2 f3f3 	udiv	r3, r2, r3
 800718e:	4618      	mov	r0, r3
 8007190:	f000 f93b 	bl	800740a <HAL_SYSTICK_Config>
 8007194:	4603      	mov	r3, r0
 8007196:	2b00      	cmp	r3, #0
 8007198:	d001      	beq.n	800719e <HAL_InitTick+0x2e>
  {
    return HAL_ERROR;
 800719a:	2301      	movs	r3, #1
 800719c:	e00e      	b.n	80071bc <HAL_InitTick+0x4c>
  }

  /* Configure the SysTick IRQ priority */
  if (TickPriority < (1UL << __NVIC_PRIO_BITS))
 800719e:	687b      	ldr	r3, [r7, #4]
 80071a0:	2b0f      	cmp	r3, #15
 80071a2:	d80a      	bhi.n	80071ba <HAL_InitTick+0x4a>
  {
    HAL_NVIC_SetPriority(SysTick_IRQn, TickPriority, 0U);
 80071a4:	2200      	movs	r2, #0
 80071a6:	6879      	ldr	r1, [r7, #4]
 80071a8:	f04f 30ff 	mov.w	r0, #4294967295	; 0xffffffff
 80071ac:	f000 f911 	bl	80073d2 <HAL_NVIC_SetPriority>
    uwTickPrio = TickPriority;
 80071b0:	4a06      	ldr	r2, [pc, #24]	; (80071cc <HAL_InitTick+0x5c>)
 80071b2:	687b      	ldr	r3, [r7, #4]
 80071b4:	6013      	str	r3, [r2, #0]
  {
    return HAL_ERROR;
  }

  /* Return function status */
  return HAL_OK;
 80071b6:	2300      	movs	r3, #0
 80071b8:	e000      	b.n	80071bc <HAL_InitTick+0x4c>
    return HAL_ERROR;
 80071ba:	2301      	movs	r3, #1
}
 80071bc:	4618      	mov	r0, r3
 80071be:	3708      	adds	r7, #8
 80071c0:	46bd      	mov	sp, r7
 80071c2:	bd80      	pop	{r7, pc}
 80071c4:	20000000 	.word	0x20000000
 80071c8:	20000008 	.word	0x20000008
 80071cc:	20000004 	.word	0x20000004

080071d0 <HAL_IncTick>:
 * @note This function is declared as __weak to be overwritten in case of other 
  *      implementations in user file.
  * @retval None
  */
__weak void HAL_IncTick(void)
{
 80071d0:	b480      	push	{r7}
 80071d2:	af00      	add	r7, sp, #0
  uwTick += uwTickFreq;
 80071d4:	4b06      	ldr	r3, [pc, #24]	; (80071f0 <HAL_IncTick+0x20>)
 80071d6:	781b      	ldrb	r3, [r3, #0]
 80071d8:	461a      	mov	r2, r3
 80071da:	4b06      	ldr	r3, [pc, #24]	; (80071f4 <HAL_IncTick+0x24>)
 80071dc:	681b      	ldr	r3, [r3, #0]
 80071de:	4413      	add	r3, r2
 80071e0:	4a04      	ldr	r2, [pc, #16]	; (80071f4 <HAL_IncTick+0x24>)
 80071e2:	6013      	str	r3, [r2, #0]
}
 80071e4:	bf00      	nop
 80071e6:	46bd      	mov	sp, r7
 80071e8:	f85d 7b04 	ldr.w	r7, [sp], #4
 80071ec:	4770      	bx	lr
 80071ee:	bf00      	nop
 80071f0:	20000008 	.word	0x20000008
 80071f4:	2000020c 	.word	0x2000020c

080071f8 <HAL_GetTick>:
  * @note This function is declared as __weak to be overwritten in case of other 
  *       implementations in user file.
  * @retval tick value
  */
__weak uint32_t HAL_GetTick(void)
{
 80071f8:	b480      	push	{r7}
 80071fa:	af00      	add	r7, sp, #0
  return uwTick;
 80071fc:	4b03      	ldr	r3, [pc, #12]	; (800720c <HAL_GetTick+0x14>)
 80071fe:	681b      	ldr	r3, [r3, #0]
}
 8007200:	4618      	mov	r0, r3
 8007202:	46bd      	mov	sp, r7
 8007204:	f85d 7b04 	ldr.w	r7, [sp], #4
 8007208:	4770      	bx	lr
 800720a:	bf00      	nop
 800720c:	2000020c 	.word	0x2000020c

08007210 <HAL_Delay>:
  *       implementations in user file.
  * @param Delay specifies the delay time length, in milliseconds.
  * @retval None
  */
__weak void HAL_Delay(uint32_t Delay)
{
 8007210:	b580      	push	{r7, lr}
 8007212:	b084      	sub	sp, #16
 8007214:	af00      	add	r7, sp, #0
 8007216:	6078      	str	r0, [r7, #4]
  uint32_t tickstart = HAL_GetTick();
 8007218:	f7ff ffee 	bl	80071f8 <HAL_GetTick>
 800721c:	60b8      	str	r0, [r7, #8]
  uint32_t wait = Delay;
 800721e:	687b      	ldr	r3, [r7, #4]
 8007220:	60fb      	str	r3, [r7, #12]

  /* Add a freq to guarantee minimum wait */
  if (wait < HAL_MAX_DELAY)
 8007222:	68fb      	ldr	r3, [r7, #12]
 8007224:	f1b3 3fff 	cmp.w	r3, #4294967295	; 0xffffffff
 8007228:	d005      	beq.n	8007236 <HAL_Delay+0x26>
  {
    wait += (uint32_t)(uwTickFreq);
 800722a:	4b0a      	ldr	r3, [pc, #40]	; (8007254 <HAL_Delay+0x44>)
 800722c:	781b      	ldrb	r3, [r3, #0]
 800722e:	461a      	mov	r2, r3
 8007230:	68fb      	ldr	r3, [r7, #12]
 8007232:	4413      	add	r3, r2
 8007234:	60fb      	str	r3, [r7, #12]
  }

  while((HAL_GetTick() - tickstart) < wait)
 8007236:	bf00      	nop
 8007238:	f7ff ffde 	bl	80071f8 <HAL_GetTick>
 800723c:	4602      	mov	r2, r0
 800723e:	68bb      	ldr	r3, [r7, #8]
 8007240:	1ad3      	subs	r3, r2, r3
 8007242:	68fa      	ldr	r2, [r7, #12]
 8007244:	429a      	cmp	r2, r3
 8007246:	d8f7      	bhi.n	8007238 <HAL_Delay+0x28>
  {
  }
}
 8007248:	bf00      	nop
 800724a:	bf00      	nop
 800724c:	3710      	adds	r7, #16
 800724e:	46bd      	mov	sp, r7
 8007250:	bd80      	pop	{r7, pc}
 8007252:	bf00      	nop
 8007254:	20000008 	.word	0x20000008

08007258 <__NVIC_SetPriorityGrouping>:
{
 8007258:	b480      	push	{r7}
 800725a:	b085      	sub	sp, #20
 800725c:	af00      	add	r7, sp, #0
 800725e:	6078      	str	r0, [r7, #4]
  uint32_t PriorityGroupTmp = (PriorityGroup & (uint32_t)0x07UL);             /* only values 0..7 are used          */
 8007260:	687b      	ldr	r3, [r7, #4]
 8007262:	f003 0307 	and.w	r3, r3, #7
 8007266:	60fb      	str	r3, [r7, #12]
  reg_value  =  SCB->AIRCR;                                                   /* read old register configuration    */
 8007268:	4b0c      	ldr	r3, [pc, #48]	; (800729c <__NVIC_SetPriorityGrouping+0x44>)
 800726a:	68db      	ldr	r3, [r3, #12]
 800726c:	60bb      	str	r3, [r7, #8]
  reg_value &= ~((uint32_t)(SCB_AIRCR_VECTKEY_Msk | SCB_AIRCR_PRIGROUP_Msk)); /* clear bits to change               */
 800726e:	68ba      	ldr	r2, [r7, #8]
 8007270:	f64f 03ff 	movw	r3, #63743	; 0xf8ff
 8007274:	4013      	ands	r3, r2
 8007276:	60bb      	str	r3, [r7, #8]
                (PriorityGroupTmp << SCB_AIRCR_PRIGROUP_Pos)  );              /* Insert write key and priority group */
 8007278:	68fb      	ldr	r3, [r7, #12]
 800727a:	021a      	lsls	r2, r3, #8
                ((uint32_t)0x5FAUL << SCB_AIRCR_VECTKEY_Pos) |
 800727c:	68bb      	ldr	r3, [r7, #8]
 800727e:	4313      	orrs	r3, r2
  reg_value  =  (reg_value                                   |
 8007280:	f043 63bf 	orr.w	r3, r3, #100139008	; 0x5f80000
 8007284:	f443 3300 	orr.w	r3, r3, #131072	; 0x20000
 8007288:	60bb      	str	r3, [r7, #8]
  SCB->AIRCR =  reg_value;
 800728a:	4a04      	ldr	r2, [pc, #16]	; (800729c <__NVIC_SetPriorityGrouping+0x44>)
 800728c:	68bb      	ldr	r3, [r7, #8]
 800728e:	60d3      	str	r3, [r2, #12]
}
 8007290:	bf00      	nop
 8007292:	3714      	adds	r7, #20
 8007294:	46bd      	mov	sp, r7
 8007296:	f85d 7b04 	ldr.w	r7, [sp], #4
 800729a:	4770      	bx	lr
 800729c:	e000ed00 	.word	0xe000ed00

080072a0 <__NVIC_GetPriorityGrouping>:
{
 80072a0:	b480      	push	{r7}
 80072a2:	af00      	add	r7, sp, #0
  return ((uint32_t)((SCB->AIRCR & SCB_AIRCR_PRIGROUP_Msk) >> SCB_AIRCR_PRIGROUP_Pos));
 80072a4:	4b04      	ldr	r3, [pc, #16]	; (80072b8 <__NVIC_GetPriorityGrouping+0x18>)
 80072a6:	68db      	ldr	r3, [r3, #12]
 80072a8:	0a1b      	lsrs	r3, r3, #8
 80072aa:	f003 0307 	and.w	r3, r3, #7
}
 80072ae:	4618      	mov	r0, r3
 80072b0:	46bd      	mov	sp, r7
 80072b2:	f85d 7b04 	ldr.w	r7, [sp], #4
 80072b6:	4770      	bx	lr
 80072b8:	e000ed00 	.word	0xe000ed00

080072bc <__NVIC_SetPriority>:
{
 80072bc:	b480      	push	{r7}
 80072be:	b083      	sub	sp, #12
 80072c0:	af00      	add	r7, sp, #0
 80072c2:	4603      	mov	r3, r0
 80072c4:	6039      	str	r1, [r7, #0]
 80072c6:	71fb      	strb	r3, [r7, #7]
  if ((int32_t)(IRQn) >= 0)
 80072c8:	f997 3007 	ldrsb.w	r3, [r7, #7]
 80072cc:	2b00      	cmp	r3, #0
 80072ce:	db0a      	blt.n	80072e6 <__NVIC_SetPriority+0x2a>
    NVIC->IP[((uint32_t)IRQn)]               = (uint8_t)((priority << (8U - __NVIC_PRIO_BITS)) & (uint32_t)0xFFUL);
 80072d0:	683b      	ldr	r3, [r7, #0]
 80072d2:	b2da      	uxtb	r2, r3
 80072d4:	490c      	ldr	r1, [pc, #48]	; (8007308 <__NVIC_SetPriority+0x4c>)
 80072d6:	f997 3007 	ldrsb.w	r3, [r7, #7]
 80072da:	0112      	lsls	r2, r2, #4
 80072dc:	b2d2      	uxtb	r2, r2
 80072de:	440b      	add	r3, r1
 80072e0:	f883 2300 	strb.w	r2, [r3, #768]	; 0x300
}
 80072e4:	e00a      	b.n	80072fc <__NVIC_SetPriority+0x40>
    SCB->SHP[(((uint32_t)IRQn) & 0xFUL)-4UL] = (uint8_t)((priority << (8U - __NVIC_PRIO_BITS)) & (uint32_t)0xFFUL);
 80072e6:	683b      	ldr	r3, [r7, #0]
 80072e8:	b2da      	uxtb	r2, r3
 80072ea:	4908      	ldr	r1, [pc, #32]	; (800730c <__NVIC_SetPriority+0x50>)
 80072ec:	79fb      	ldrb	r3, [r7, #7]
 80072ee:	f003 030f 	and.w	r3, r3, #15
 80072f2:	3b04      	subs	r3, #4
 80072f4:	0112      	lsls	r2, r2, #4
 80072f6:	b2d2      	uxtb	r2, r2
 80072f8:	440b      	add	r3, r1
 80072fa:	761a      	strb	r2, [r3, #24]
}
 80072fc:	bf00      	nop
 80072fe:	370c      	adds	r7, #12
 8007300:	46bd      	mov	sp, r7
 8007302:	f85d 7b04 	ldr.w	r7, [sp], #4
 8007306:	4770      	bx	lr
 8007308:	e000e100 	.word	0xe000e100
 800730c:	e000ed00 	.word	0xe000ed00

08007310 <NVIC_EncodePriority>:
{
 8007310:	b480      	push	{r7}
 8007312:	b089      	sub	sp, #36	; 0x24
 8007314:	af00      	add	r7, sp, #0
 8007316:	60f8      	str	r0, [r7, #12]
 8007318:	60b9      	str	r1, [r7, #8]
 800731a:	607a      	str	r2, [r7, #4]
  uint32_t PriorityGroupTmp = (PriorityGroup & (uint32_t)0x07UL);   /* only values 0..7 are used          */
 800731c:	68fb      	ldr	r3, [r7, #12]
 800731e:	f003 0307 	and.w	r3, r3, #7
 8007322:	61fb      	str	r3, [r7, #28]
  PreemptPriorityBits = ((7UL - PriorityGroupTmp) > (uint32_t)(__NVIC_PRIO_BITS)) ? (uint32_t)(__NVIC_PRIO_BITS) : (uint32_t)(7UL - PriorityGroupTmp);
 8007324:	69fb      	ldr	r3, [r7, #28]
 8007326:	f1c3 0307 	rsb	r3, r3, #7
 800732a:	2b04      	cmp	r3, #4
 800732c:	bf28      	it	cs
 800732e:	2304      	movcs	r3, #4
 8007330:	61bb      	str	r3, [r7, #24]
  SubPriorityBits     = ((PriorityGroupTmp + (uint32_t)(__NVIC_PRIO_BITS)) < (uint32_t)7UL) ? (uint32_t)0UL : (uint32_t)((PriorityGroupTmp - 7UL) + (uint32_t)(__NVIC_PRIO_BITS));
 8007332:	69fb      	ldr	r3, [r7, #28]
 8007334:	3304      	adds	r3, #4
 8007336:	2b06      	cmp	r3, #6
 8007338:	d902      	bls.n	8007340 <NVIC_EncodePriority+0x30>
 800733a:	69fb      	ldr	r3, [r7, #28]
 800733c:	3b03      	subs	r3, #3
 800733e:	e000      	b.n	8007342 <NVIC_EncodePriority+0x32>
 8007340:	2300      	movs	r3, #0
 8007342:	617b      	str	r3, [r7, #20]
           ((PreemptPriority & (uint32_t)((1UL << (PreemptPriorityBits)) - 1UL)) << SubPriorityBits) |
 8007344:	f04f 32ff 	mov.w	r2, #4294967295	; 0xffffffff
 8007348:	69bb      	ldr	r3, [r7, #24]
 800734a:	fa02 f303 	lsl.w	r3, r2, r3
 800734e:	43da      	mvns	r2, r3
 8007350:	68bb      	ldr	r3, [r7, #8]
 8007352:	401a      	ands	r2, r3
 8007354:	697b      	ldr	r3, [r7, #20]
 8007356:	409a      	lsls	r2, r3
           ((SubPriority     & (uint32_t)((1UL << (SubPriorityBits    )) - 1UL)))
 8007358:	f04f 31ff 	mov.w	r1, #4294967295	; 0xffffffff
 800735c:	697b      	ldr	r3, [r7, #20]
 800735e:	fa01 f303 	lsl.w	r3, r1, r3
 8007362:	43d9      	mvns	r1, r3
 8007364:	687b      	ldr	r3, [r7, #4]
 8007366:	400b      	ands	r3, r1
           ((PreemptPriority & (uint32_t)((1UL << (PreemptPriorityBits)) - 1UL)) << SubPriorityBits) |
 8007368:	4313      	orrs	r3, r2
}
 800736a:	4618      	mov	r0, r3
 800736c:	3724      	adds	r7, #36	; 0x24
 800736e:	46bd      	mov	sp, r7
 8007370:	f85d 7b04 	ldr.w	r7, [sp], #4
 8007374:	4770      	bx	lr
	...

08007378 <SysTick_Config>:
  \note    When the variable <b>__Vendor_SysTickConfig</b> is set to 1, then the
           function <b>SysTick_Config</b> is not included. In this case, the file <b><i>device</i>.h</b>
           must contain a vendor-specific implementation of this function.
 */
__STATIC_INLINE uint32_t SysTick_Config(uint32_t ticks)
{
 8007378:	b580      	push	{r7, lr}
 800737a:	b082      	sub	sp, #8
 800737c:	af00      	add	r7, sp, #0
 800737e:	6078      	str	r0, [r7, #4]
  if ((ticks - 1UL) > SysTick_LOAD_RELOAD_Msk)
 8007380:	687b      	ldr	r3, [r7, #4]
 8007382:	3b01      	subs	r3, #1
 8007384:	f1b3 7f80 	cmp.w	r3, #16777216	; 0x1000000
 8007388:	d301      	bcc.n	800738e <SysTick_Config+0x16>
  {
    return (1UL);                                                   /* Reload value impossible */
 800738a:	2301      	movs	r3, #1
 800738c:	e00f      	b.n	80073ae <SysTick_Config+0x36>
  }

  SysTick->LOAD  = (uint32_t)(ticks - 1UL);                         /* set reload register */
 800738e:	4a0a      	ldr	r2, [pc, #40]	; (80073b8 <SysTick_Config+0x40>)
 8007390:	687b      	ldr	r3, [r7, #4]
 8007392:	3b01      	subs	r3, #1
 8007394:	6053      	str	r3, [r2, #4]
  NVIC_SetPriority (SysTick_IRQn, (1UL << __NVIC_PRIO_BITS) - 1UL); /* set Priority for Systick Interrupt */
 8007396:	210f      	movs	r1, #15
 8007398:	f04f 30ff 	mov.w	r0, #4294967295	; 0xffffffff
 800739c:	f7ff ff8e 	bl	80072bc <__NVIC_SetPriority>
  SysTick->VAL   = 0UL;                                             /* Load the SysTick Counter Value */
 80073a0:	4b05      	ldr	r3, [pc, #20]	; (80073b8 <SysTick_Config+0x40>)
 80073a2:	2200      	movs	r2, #0
 80073a4:	609a      	str	r2, [r3, #8]
  SysTick->CTRL  = SysTick_CTRL_CLKSOURCE_Msk |
 80073a6:	4b04      	ldr	r3, [pc, #16]	; (80073b8 <SysTick_Config+0x40>)
 80073a8:	2207      	movs	r2, #7
 80073aa:	601a      	str	r2, [r3, #0]
                   SysTick_CTRL_TICKINT_Msk   |
                   SysTick_CTRL_ENABLE_Msk;                         /* Enable SysTick IRQ and SysTick Timer */
  return (0UL);                                                     /* Function successful */
 80073ac:	2300      	movs	r3, #0
}
 80073ae:	4618      	mov	r0, r3
 80073b0:	3708      	adds	r7, #8
 80073b2:	46bd      	mov	sp, r7
 80073b4:	bd80      	pop	{r7, pc}
 80073b6:	bf00      	nop
 80073b8:	e000e010 	.word	0xe000e010

080073bc <HAL_NVIC_SetPriorityGrouping>:
  * @note   When the NVIC_PriorityGroup_0 is selected, IRQ preemption is no more possible. 
  *         The pending IRQ priority will be managed only by the subpriority. 
  * @retval None
  */
void HAL_NVIC_SetPriorityGrouping(uint32_t PriorityGroup)
{
 80073bc:	b580      	push	{r7, lr}
 80073be:	b082      	sub	sp, #8
 80073c0:	af00      	add	r7, sp, #0
 80073c2:	6078      	str	r0, [r7, #4]
  /* Check the parameters */
  assert_param(IS_NVIC_PRIORITY_GROUP(PriorityGroup));
  
  /* Set the PRIGROUP[10:8] bits according to the PriorityGroup parameter value */
  NVIC_SetPriorityGrouping(PriorityGroup);
 80073c4:	6878      	ldr	r0, [r7, #4]
 80073c6:	f7ff ff47 	bl	8007258 <__NVIC_SetPriorityGrouping>
}
 80073ca:	bf00      	nop
 80073cc:	3708      	adds	r7, #8
 80073ce:	46bd      	mov	sp, r7
 80073d0:	bd80      	pop	{r7, pc}

080073d2 <HAL_NVIC_SetPriority>:
  *         This parameter can be a value between 0 and 15
  *         A lower priority value indicates a higher priority.          
  * @retval None
  */
void HAL_NVIC_SetPriority(IRQn_Type IRQn, uint32_t PreemptPriority, uint32_t SubPriority)
{ 
 80073d2:	b580      	push	{r7, lr}
 80073d4:	b086      	sub	sp, #24
 80073d6:	af00      	add	r7, sp, #0
 80073d8:	4603      	mov	r3, r0
 80073da:	60b9      	str	r1, [r7, #8]
 80073dc:	607a      	str	r2, [r7, #4]
 80073de:	73fb      	strb	r3, [r7, #15]
  uint32_t prioritygroup = 0x00U;
 80073e0:	2300      	movs	r3, #0
 80073e2:	617b      	str	r3, [r7, #20]
  
  /* Check the parameters */
  assert_param(IS_NVIC_SUB_PRIORITY(SubPriority));
  assert_param(IS_NVIC_PREEMPTION_PRIORITY(PreemptPriority));
  
  prioritygroup = NVIC_GetPriorityGrouping();
 80073e4:	f7ff ff5c 	bl	80072a0 <__NVIC_GetPriorityGrouping>
 80073e8:	6178      	str	r0, [r7, #20]
  
  NVIC_SetPriority(IRQn, NVIC_EncodePriority(prioritygroup, PreemptPriority, SubPriority));
 80073ea:	687a      	ldr	r2, [r7, #4]
 80073ec:	68b9      	ldr	r1, [r7, #8]
 80073ee:	6978      	ldr	r0, [r7, #20]
 80073f0:	f7ff ff8e 	bl	8007310 <NVIC_EncodePriority>
 80073f4:	4602      	mov	r2, r0
 80073f6:	f997 300f 	ldrsb.w	r3, [r7, #15]
 80073fa:	4611      	mov	r1, r2
 80073fc:	4618      	mov	r0, r3
 80073fe:	f7ff ff5d 	bl	80072bc <__NVIC_SetPriority>
}
 8007402:	bf00      	nop
 8007404:	3718      	adds	r7, #24
 8007406:	46bd      	mov	sp, r7
 8007408:	bd80      	pop	{r7, pc}

0800740a <HAL_SYSTICK_Config>:
  * @param  TicksNumb Specifies the ticks Number of ticks between two interrupts.
  * @retval status:  - 0  Function succeeded.
  *                  - 1  Function failed.
  */
uint32_t HAL_SYSTICK_Config(uint32_t TicksNumb)
{
 800740a:	b580      	push	{r7, lr}
 800740c:	b082      	sub	sp, #8
 800740e:	af00      	add	r7, sp, #0
 8007410:	6078      	str	r0, [r7, #4]
   return SysTick_Config(TicksNumb);
 8007412:	6878      	ldr	r0, [r7, #4]
 8007414:	f7ff ffb0 	bl	8007378 <SysTick_Config>
 8007418:	4603      	mov	r3, r0
}
 800741a:	4618      	mov	r0, r3
 800741c:	3708      	adds	r7, #8
 800741e:	46bd      	mov	sp, r7
 8007420:	bd80      	pop	{r7, pc}

08007422 <HAL_CRC_Init>:
  *         parameters in the CRC_InitTypeDef and create the associated handle.
  * @param  hcrc CRC handle
  * @retval HAL status
  */
HAL_StatusTypeDef HAL_CRC_Init(CRC_HandleTypeDef *hcrc)
{
 8007422:	b580      	push	{r7, lr}
 8007424:	b082      	sub	sp, #8
 8007426:	af00      	add	r7, sp, #0
 8007428:	6078      	str	r0, [r7, #4]
  /* Check the CRC handle allocation */
  if (hcrc == NULL)
 800742a:	687b      	ldr	r3, [r7, #4]
 800742c:	2b00      	cmp	r3, #0
 800742e:	d101      	bne.n	8007434 <HAL_CRC_Init+0x12>
  {
    return HAL_ERROR;
 8007430:	2301      	movs	r3, #1
 8007432:	e00e      	b.n	8007452 <HAL_CRC_Init+0x30>
  }

  /* Check the parameters */
  assert_param(IS_CRC_ALL_INSTANCE(hcrc->Instance));

  if (hcrc->State == HAL_CRC_STATE_RESET)
 8007434:	687b      	ldr	r3, [r7, #4]
 8007436:	795b      	ldrb	r3, [r3, #5]
 8007438:	b2db      	uxtb	r3, r3
 800743a:	2b00      	cmp	r3, #0
 800743c:	d105      	bne.n	800744a <HAL_CRC_Init+0x28>
  {
    /* Allocate lock resource and initialize it */
    hcrc->Lock = HAL_UNLOCKED;
 800743e:	687b      	ldr	r3, [r7, #4]
 8007440:	2200      	movs	r2, #0
 8007442:	711a      	strb	r2, [r3, #4]
    /* Init the low level hardware */
    HAL_CRC_MspInit(hcrc);
 8007444:	6878      	ldr	r0, [r7, #4]
 8007446:	f7ff fd07 	bl	8006e58 <HAL_CRC_MspInit>
  }

  /* Change CRC peripheral state */
  hcrc->State = HAL_CRC_STATE_READY;
 800744a:	687b      	ldr	r3, [r7, #4]
 800744c:	2201      	movs	r2, #1
 800744e:	715a      	strb	r2, [r3, #5]

  /* Return function status */
  return HAL_OK;
 8007450:	2300      	movs	r3, #0
}
 8007452:	4618      	mov	r0, r3
 8007454:	3708      	adds	r7, #8
 8007456:	46bd      	mov	sp, r7
 8007458:	bd80      	pop	{r7, pc}
	...

0800745c <HAL_FLASH_Program>:
  * @param  Data specifies the data to be programmed
  * 
  * @retval HAL_StatusTypeDef HAL Status
  */
HAL_StatusTypeDef HAL_FLASH_Program(uint32_t TypeProgram, uint32_t Address, uint64_t Data)
{
 800745c:	b580      	push	{r7, lr}
 800745e:	b086      	sub	sp, #24
 8007460:	af00      	add	r7, sp, #0
 8007462:	60f8      	str	r0, [r7, #12]
 8007464:	60b9      	str	r1, [r7, #8]
 8007466:	e9c7 2300 	strd	r2, r3, [r7]
  HAL_StatusTypeDef status = HAL_ERROR;
 800746a:	2301      	movs	r3, #1
 800746c:	75fb      	strb	r3, [r7, #23]
  
  /* Process Locked */
  __HAL_LOCK(&pFlash);
 800746e:	4b23      	ldr	r3, [pc, #140]	; (80074fc <HAL_FLASH_Program+0xa0>)
 8007470:	7e1b      	ldrb	r3, [r3, #24]
 8007472:	2b01      	cmp	r3, #1
 8007474:	d101      	bne.n	800747a <HAL_FLASH_Program+0x1e>
 8007476:	2302      	movs	r3, #2
 8007478:	e03b      	b.n	80074f2 <HAL_FLASH_Program+0x96>
 800747a:	4b20      	ldr	r3, [pc, #128]	; (80074fc <HAL_FLASH_Program+0xa0>)
 800747c:	2201      	movs	r2, #1
 800747e:	761a      	strb	r2, [r3, #24]
  
  /* Check the parameters */
  assert_param(IS_FLASH_TYPEPROGRAM(TypeProgram));
  
  /* Wait for last operation to be completed */
  status = FLASH_WaitForLastOperation((uint32_t)FLASH_TIMEOUT_VALUE);
 8007480:	f24c 3050 	movw	r0, #50000	; 0xc350
 8007484:	f000 f860 	bl	8007548 <FLASH_WaitForLastOperation>
 8007488:	4603      	mov	r3, r0
 800748a:	75fb      	strb	r3, [r7, #23]
  
  if(status == HAL_OK)
 800748c:	7dfb      	ldrb	r3, [r7, #23]
 800748e:	2b00      	cmp	r3, #0
 8007490:	d12b      	bne.n	80074ea <HAL_FLASH_Program+0x8e>
  {
    if(TypeProgram == FLASH_TYPEPROGRAM_BYTE)
 8007492:	68fb      	ldr	r3, [r7, #12]
 8007494:	2b00      	cmp	r3, #0
 8007496:	d105      	bne.n	80074a4 <HAL_FLASH_Program+0x48>
    {
      /*Program byte (8-bit) at a specified address.*/
      FLASH_Program_Byte(Address, (uint8_t) Data);
 8007498:	783b      	ldrb	r3, [r7, #0]
 800749a:	4619      	mov	r1, r3
 800749c:	68b8      	ldr	r0, [r7, #8]
 800749e:	f000 f90b 	bl	80076b8 <FLASH_Program_Byte>
 80074a2:	e016      	b.n	80074d2 <HAL_FLASH_Program+0x76>
    }
    else if(TypeProgram == FLASH_TYPEPROGRAM_HALFWORD)
 80074a4:	68fb      	ldr	r3, [r7, #12]
 80074a6:	2b01      	cmp	r3, #1
 80074a8:	d105      	bne.n	80074b6 <HAL_FLASH_Program+0x5a>
    {
      /*Program halfword (16-bit) at a specified address.*/
      FLASH_Program_HalfWord(Address, (uint16_t) Data);
 80074aa:	883b      	ldrh	r3, [r7, #0]
 80074ac:	4619      	mov	r1, r3
 80074ae:	68b8      	ldr	r0, [r7, #8]
 80074b0:	f000 f8de 	bl	8007670 <FLASH_Program_HalfWord>
 80074b4:	e00d      	b.n	80074d2 <HAL_FLASH_Program+0x76>
    }
    else if(TypeProgram == FLASH_TYPEPROGRAM_WORD)
 80074b6:	68fb      	ldr	r3, [r7, #12]
 80074b8:	2b02      	cmp	r3, #2
 80074ba:	d105      	bne.n	80074c8 <HAL_FLASH_Program+0x6c>
    {
      /*Program word (32-bit) at a specified address.*/
      FLASH_Program_Word(Address, (uint32_t) Data);
 80074bc:	683b      	ldr	r3, [r7, #0]
 80074be:	4619      	mov	r1, r3
 80074c0:	68b8      	ldr	r0, [r7, #8]
 80074c2:	f000 f8b3 	bl	800762c <FLASH_Program_Word>
 80074c6:	e004      	b.n	80074d2 <HAL_FLASH_Program+0x76>
    }
    else
    {
      /*Program double word (64-bit) at a specified address.*/
      FLASH_Program_DoubleWord(Address, Data);
 80074c8:	e9d7 2300 	ldrd	r2, r3, [r7]
 80074cc:	68b8      	ldr	r0, [r7, #8]
 80074ce:	f000 f87b 	bl	80075c8 <FLASH_Program_DoubleWord>
    }
    
    /* Wait for last operation to be completed */
    status = FLASH_WaitForLastOperation((uint32_t)FLASH_TIMEOUT_VALUE);
 80074d2:	f24c 3050 	movw	r0, #50000	; 0xc350
 80074d6:	f000 f837 	bl	8007548 <FLASH_WaitForLastOperation>
 80074da:	4603      	mov	r3, r0
 80074dc:	75fb      	strb	r3, [r7, #23]
    
    /* If the program operation is completed, disable the PG Bit */
    FLASH->CR &= (~FLASH_CR_PG);  
 80074de:	4b08      	ldr	r3, [pc, #32]	; (8007500 <HAL_FLASH_Program+0xa4>)
 80074e0:	691b      	ldr	r3, [r3, #16]
 80074e2:	4a07      	ldr	r2, [pc, #28]	; (8007500 <HAL_FLASH_Program+0xa4>)
 80074e4:	f023 0301 	bic.w	r3, r3, #1
 80074e8:	6113      	str	r3, [r2, #16]
  }
  
  /* Process Unlocked */
  __HAL_UNLOCK(&pFlash);
 80074ea:	4b04      	ldr	r3, [pc, #16]	; (80074fc <HAL_FLASH_Program+0xa0>)
 80074ec:	2200      	movs	r2, #0
 80074ee:	761a      	strb	r2, [r3, #24]
  
  return status;
 80074f0:	7dfb      	ldrb	r3, [r7, #23]
}
 80074f2:	4618      	mov	r0, r3
 80074f4:	3718      	adds	r7, #24
 80074f6:	46bd      	mov	sp, r7
 80074f8:	bd80      	pop	{r7, pc}
 80074fa:	bf00      	nop
 80074fc:	20000210 	.word	0x20000210
 8007500:	40023c00 	.word	0x40023c00

08007504 <HAL_FLASH_Unlock>:
/**
  * @brief  Unlock the FLASH control register access
  * @retval HAL Status
  */
HAL_StatusTypeDef HAL_FLASH_Unlock(void)
{
 8007504:	b480      	push	{r7}
 8007506:	b083      	sub	sp, #12
 8007508:	af00      	add	r7, sp, #0
  HAL_StatusTypeDef status = HAL_OK;
 800750a:	2300      	movs	r3, #0
 800750c:	71fb      	strb	r3, [r7, #7]

  if(READ_BIT(FLASH->CR, FLASH_CR_LOCK) != RESET)
 800750e:	4b0b      	ldr	r3, [pc, #44]	; (800753c <HAL_FLASH_Unlock+0x38>)
 8007510:	691b      	ldr	r3, [r3, #16]
 8007512:	2b00      	cmp	r3, #0
 8007514:	da0b      	bge.n	800752e <HAL_FLASH_Unlock+0x2a>
  {
    /* Authorize the FLASH Registers access */
    WRITE_REG(FLASH->KEYR, FLASH_KEY1);
 8007516:	4b09      	ldr	r3, [pc, #36]	; (800753c <HAL_FLASH_Unlock+0x38>)
 8007518:	4a09      	ldr	r2, [pc, #36]	; (8007540 <HAL_FLASH_Unlock+0x3c>)
 800751a:	605a      	str	r2, [r3, #4]
    WRITE_REG(FLASH->KEYR, FLASH_KEY2);
 800751c:	4b07      	ldr	r3, [pc, #28]	; (800753c <HAL_FLASH_Unlock+0x38>)
 800751e:	4a09      	ldr	r2, [pc, #36]	; (8007544 <HAL_FLASH_Unlock+0x40>)
 8007520:	605a      	str	r2, [r3, #4]

    /* Verify Flash is unlocked */
    if(READ_BIT(FLASH->CR, FLASH_CR_LOCK) != RESET)
 8007522:	4b06      	ldr	r3, [pc, #24]	; (800753c <HAL_FLASH_Unlock+0x38>)
 8007524:	691b      	ldr	r3, [r3, #16]
 8007526:	2b00      	cmp	r3, #0
 8007528:	da01      	bge.n	800752e <HAL_FLASH_Unlock+0x2a>
    {
      status = HAL_ERROR;
 800752a:	2301      	movs	r3, #1
 800752c:	71fb      	strb	r3, [r7, #7]
    }
  }

  return status;
 800752e:	79fb      	ldrb	r3, [r7, #7]
}
 8007530:	4618      	mov	r0, r3
 8007532:	370c      	adds	r7, #12
 8007534:	46bd      	mov	sp, r7
 8007536:	f85d 7b04 	ldr.w	r7, [sp], #4
 800753a:	4770      	bx	lr
 800753c:	40023c00 	.word	0x40023c00
 8007540:	45670123 	.word	0x45670123
 8007544:	cdef89ab 	.word	0xcdef89ab

08007548 <FLASH_WaitForLastOperation>:
  * @brief  Wait for a FLASH operation to complete.
  * @param  Timeout maximum flash operationtimeout
  * @retval HAL Status
  */
HAL_StatusTypeDef FLASH_WaitForLastOperation(uint32_t Timeout)
{ 
 8007548:	b580      	push	{r7, lr}
 800754a:	b084      	sub	sp, #16
 800754c:	af00      	add	r7, sp, #0
 800754e:	6078      	str	r0, [r7, #4]
  uint32_t tickstart = 0U;
 8007550:	2300      	movs	r3, #0
 8007552:	60fb      	str	r3, [r7, #12]
  
  /* Clear Error Code */
  pFlash.ErrorCode = HAL_FLASH_ERROR_NONE;
 8007554:	4b1a      	ldr	r3, [pc, #104]	; (80075c0 <FLASH_WaitForLastOperation+0x78>)
 8007556:	2200      	movs	r2, #0
 8007558:	61da      	str	r2, [r3, #28]
  
  /* Wait for the FLASH operation to complete by polling on BUSY flag to be reset.
     Even if the FLASH operation fails, the BUSY flag will be reset and an error
     flag will be set */
  /* Get tick */
  tickstart = HAL_GetTick();
 800755a:	f7ff fe4d 	bl	80071f8 <HAL_GetTick>
 800755e:	60f8      	str	r0, [r7, #12]

  while(__HAL_FLASH_GET_FLAG(FLASH_FLAG_BSY) != RESET) 
 8007560:	e010      	b.n	8007584 <FLASH_WaitForLastOperation+0x3c>
  { 
    if(Timeout != HAL_MAX_DELAY)
 8007562:	687b      	ldr	r3, [r7, #4]
 8007564:	f1b3 3fff 	cmp.w	r3, #4294967295	; 0xffffffff
 8007568:	d00c      	beq.n	8007584 <FLASH_WaitForLastOperation+0x3c>
    {
      if((Timeout == 0U)||((HAL_GetTick() - tickstart ) > Timeout))
 800756a:	687b      	ldr	r3, [r7, #4]
 800756c:	2b00      	cmp	r3, #0
 800756e:	d007      	beq.n	8007580 <FLASH_WaitForLastOperation+0x38>
 8007570:	f7ff fe42 	bl	80071f8 <HAL_GetTick>
 8007574:	4602      	mov	r2, r0
 8007576:	68fb      	ldr	r3, [r7, #12]
 8007578:	1ad3      	subs	r3, r2, r3
 800757a:	687a      	ldr	r2, [r7, #4]
 800757c:	429a      	cmp	r2, r3
 800757e:	d201      	bcs.n	8007584 <FLASH_WaitForLastOperation+0x3c>
      {
        return HAL_TIMEOUT;
 8007580:	2303      	movs	r3, #3
 8007582:	e019      	b.n	80075b8 <FLASH_WaitForLastOperation+0x70>
  while(__HAL_FLASH_GET_FLAG(FLASH_FLAG_BSY) != RESET) 
 8007584:	4b0f      	ldr	r3, [pc, #60]	; (80075c4 <FLASH_WaitForLastOperation+0x7c>)
 8007586:	68db      	ldr	r3, [r3, #12]
 8007588:	f403 3380 	and.w	r3, r3, #65536	; 0x10000
 800758c:	2b00      	cmp	r3, #0
 800758e:	d1e8      	bne.n	8007562 <FLASH_WaitForLastOperation+0x1a>
      }
    } 
  }

  /* Check FLASH End of Operation flag  */
  if (__HAL_FLASH_GET_FLAG(FLASH_FLAG_EOP) != RESET)
 8007590:	4b0c      	ldr	r3, [pc, #48]	; (80075c4 <FLASH_WaitForLastOperation+0x7c>)
 8007592:	68db      	ldr	r3, [r3, #12]
 8007594:	f003 0301 	and.w	r3, r3, #1
 8007598:	2b00      	cmp	r3, #0
 800759a:	d002      	beq.n	80075a2 <FLASH_WaitForLastOperation+0x5a>
  {
    /* Clear FLASH End of Operation pending bit */
    __HAL_FLASH_CLEAR_FLAG(FLASH_FLAG_EOP);
 800759c:	4b09      	ldr	r3, [pc, #36]	; (80075c4 <FLASH_WaitForLastOperation+0x7c>)
 800759e:	2201      	movs	r2, #1
 80075a0:	60da      	str	r2, [r3, #12]
  }
#if defined(FLASH_SR_RDERR)  
  if(__HAL_FLASH_GET_FLAG((FLASH_FLAG_OPERR | FLASH_FLAG_WRPERR | FLASH_FLAG_PGAERR | \
 80075a2:	4b08      	ldr	r3, [pc, #32]	; (80075c4 <FLASH_WaitForLastOperation+0x7c>)
 80075a4:	68db      	ldr	r3, [r3, #12]
 80075a6:	f403 73f9 	and.w	r3, r3, #498	; 0x1f2
 80075aa:	2b00      	cmp	r3, #0
 80075ac:	d003      	beq.n	80075b6 <FLASH_WaitForLastOperation+0x6e>
  if(__HAL_FLASH_GET_FLAG((FLASH_FLAG_OPERR | FLASH_FLAG_WRPERR | FLASH_FLAG_PGAERR | \
                           FLASH_FLAG_PGPERR | FLASH_FLAG_PGSERR)) != RESET)
#endif /* FLASH_SR_RDERR */
  {
    /*Save the error code*/
    FLASH_SetErrorCode();
 80075ae:	f000 f8a5 	bl	80076fc <FLASH_SetErrorCode>
    return HAL_ERROR;
 80075b2:	2301      	movs	r3, #1
 80075b4:	e000      	b.n	80075b8 <FLASH_WaitForLastOperation+0x70>
  }

  /* If there is no error flag set */
  return HAL_OK;
 80075b6:	2300      	movs	r3, #0
  
}  
 80075b8:	4618      	mov	r0, r3
 80075ba:	3710      	adds	r7, #16
 80075bc:	46bd      	mov	sp, r7
 80075be:	bd80      	pop	{r7, pc}
 80075c0:	20000210 	.word	0x20000210
 80075c4:	40023c00 	.word	0x40023c00

080075c8 <FLASH_Program_DoubleWord>:
  * @param  Address specifies the address to be programmed.
  * @param  Data specifies the data to be programmed.
  * @retval None
  */
static void FLASH_Program_DoubleWord(uint32_t Address, uint64_t Data)
{
 80075c8:	b480      	push	{r7}
 80075ca:	b085      	sub	sp, #20
 80075cc:	af00      	add	r7, sp, #0
 80075ce:	60f8      	str	r0, [r7, #12]
 80075d0:	e9c7 2300 	strd	r2, r3, [r7]
  /* Check the parameters */
  assert_param(IS_FLASH_ADDRESS(Address));
  
  /* If the previous operation is completed, proceed to program the new data */
  CLEAR_BIT(FLASH->CR, FLASH_CR_PSIZE);
 80075d4:	4b14      	ldr	r3, [pc, #80]	; (8007628 <FLASH_Program_DoubleWord+0x60>)
 80075d6:	691b      	ldr	r3, [r3, #16]
 80075d8:	4a13      	ldr	r2, [pc, #76]	; (8007628 <FLASH_Program_DoubleWord+0x60>)
 80075da:	f423 7340 	bic.w	r3, r3, #768	; 0x300
 80075de:	6113      	str	r3, [r2, #16]
  FLASH->CR |= FLASH_PSIZE_DOUBLE_WORD;
 80075e0:	4b11      	ldr	r3, [pc, #68]	; (8007628 <FLASH_Program_DoubleWord+0x60>)
 80075e2:	691b      	ldr	r3, [r3, #16]
 80075e4:	4a10      	ldr	r2, [pc, #64]	; (8007628 <FLASH_Program_DoubleWord+0x60>)
 80075e6:	f443 7340 	orr.w	r3, r3, #768	; 0x300
 80075ea:	6113      	str	r3, [r2, #16]
  FLASH->CR |= FLASH_CR_PG;
 80075ec:	4b0e      	ldr	r3, [pc, #56]	; (8007628 <FLASH_Program_DoubleWord+0x60>)
 80075ee:	691b      	ldr	r3, [r3, #16]
 80075f0:	4a0d      	ldr	r2, [pc, #52]	; (8007628 <FLASH_Program_DoubleWord+0x60>)
 80075f2:	f043 0301 	orr.w	r3, r3, #1
 80075f6:	6113      	str	r3, [r2, #16]

  /* Program first word */
  *(__IO uint32_t*)Address = (uint32_t)Data;
 80075f8:	68fb      	ldr	r3, [r7, #12]
 80075fa:	683a      	ldr	r2, [r7, #0]
 80075fc:	601a      	str	r2, [r3, #0]
  __ASM volatile ("isb 0xF":::"memory");
 80075fe:	f3bf 8f6f 	isb	sy
}
 8007602:	bf00      	nop
  /* Barrier to ensure programming is performed in 2 steps, in right order
    (independently of compiler optimization behavior) */
  __ISB();

  /* Program second word */
  *(__IO uint32_t*)(Address+4) = (uint32_t)(Data >> 32);
 8007604:	e9d7 0100 	ldrd	r0, r1, [r7]
 8007608:	f04f 0200 	mov.w	r2, #0
 800760c:	f04f 0300 	mov.w	r3, #0
 8007610:	000a      	movs	r2, r1
 8007612:	2300      	movs	r3, #0
 8007614:	68f9      	ldr	r1, [r7, #12]
 8007616:	3104      	adds	r1, #4
 8007618:	4613      	mov	r3, r2
 800761a:	600b      	str	r3, [r1, #0]
}
 800761c:	bf00      	nop
 800761e:	3714      	adds	r7, #20
 8007620:	46bd      	mov	sp, r7
 8007622:	f85d 7b04 	ldr.w	r7, [sp], #4
 8007626:	4770      	bx	lr
 8007628:	40023c00 	.word	0x40023c00

0800762c <FLASH_Program_Word>:
  * @param  Address specifies the address to be programmed.
  * @param  Data specifies the data to be programmed.
  * @retval None
  */
static void FLASH_Program_Word(uint32_t Address, uint32_t Data)
{
 800762c:	b480      	push	{r7}
 800762e:	b083      	sub	sp, #12
 8007630:	af00      	add	r7, sp, #0
 8007632:	6078      	str	r0, [r7, #4]
 8007634:	6039      	str	r1, [r7, #0]
  /* Check the parameters */
  assert_param(IS_FLASH_ADDRESS(Address));
  
  /* If the previous operation is completed, proceed to program the new data */
  CLEAR_BIT(FLASH->CR, FLASH_CR_PSIZE);
 8007636:	4b0d      	ldr	r3, [pc, #52]	; (800766c <FLASH_Program_Word+0x40>)
 8007638:	691b      	ldr	r3, [r3, #16]
 800763a:	4a0c      	ldr	r2, [pc, #48]	; (800766c <FLASH_Program_Word+0x40>)
 800763c:	f423 7340 	bic.w	r3, r3, #768	; 0x300
 8007640:	6113      	str	r3, [r2, #16]
  FLASH->CR |= FLASH_PSIZE_WORD;
 8007642:	4b0a      	ldr	r3, [pc, #40]	; (800766c <FLASH_Program_Word+0x40>)
 8007644:	691b      	ldr	r3, [r3, #16]
 8007646:	4a09      	ldr	r2, [pc, #36]	; (800766c <FLASH_Program_Word+0x40>)
 8007648:	f443 7300 	orr.w	r3, r3, #512	; 0x200
 800764c:	6113      	str	r3, [r2, #16]
  FLASH->CR |= FLASH_CR_PG;
 800764e:	4b07      	ldr	r3, [pc, #28]	; (800766c <FLASH_Program_Word+0x40>)
 8007650:	691b      	ldr	r3, [r3, #16]
 8007652:	4a06      	ldr	r2, [pc, #24]	; (800766c <FLASH_Program_Word+0x40>)
 8007654:	f043 0301 	orr.w	r3, r3, #1
 8007658:	6113      	str	r3, [r2, #16]

  *(__IO uint32_t*)Address = Data;
 800765a:	687b      	ldr	r3, [r7, #4]
 800765c:	683a      	ldr	r2, [r7, #0]
 800765e:	601a      	str	r2, [r3, #0]
}
 8007660:	bf00      	nop
 8007662:	370c      	adds	r7, #12
 8007664:	46bd      	mov	sp, r7
 8007666:	f85d 7b04 	ldr.w	r7, [sp], #4
 800766a:	4770      	bx	lr
 800766c:	40023c00 	.word	0x40023c00

08007670 <FLASH_Program_HalfWord>:
  * @param  Address specifies the address to be programmed.
  * @param  Data specifies the data to be programmed.
  * @retval None
  */
static void FLASH_Program_HalfWord(uint32_t Address, uint16_t Data)
{
 8007670:	b480      	push	{r7}
 8007672:	b083      	sub	sp, #12
 8007674:	af00      	add	r7, sp, #0
 8007676:	6078      	str	r0, [r7, #4]
 8007678:	460b      	mov	r3, r1
 800767a:	807b      	strh	r3, [r7, #2]
  /* Check the parameters */
  assert_param(IS_FLASH_ADDRESS(Address));
  
  /* If the previous operation is completed, proceed to program the new data */
  CLEAR_BIT(FLASH->CR, FLASH_CR_PSIZE);
 800767c:	4b0d      	ldr	r3, [pc, #52]	; (80076b4 <FLASH_Program_HalfWord+0x44>)
 800767e:	691b      	ldr	r3, [r3, #16]
 8007680:	4a0c      	ldr	r2, [pc, #48]	; (80076b4 <FLASH_Program_HalfWord+0x44>)
 8007682:	f423 7340 	bic.w	r3, r3, #768	; 0x300
 8007686:	6113      	str	r3, [r2, #16]
  FLASH->CR |= FLASH_PSIZE_HALF_WORD;
 8007688:	4b0a      	ldr	r3, [pc, #40]	; (80076b4 <FLASH_Program_HalfWord+0x44>)
 800768a:	691b      	ldr	r3, [r3, #16]
 800768c:	4a09      	ldr	r2, [pc, #36]	; (80076b4 <FLASH_Program_HalfWord+0x44>)
 800768e:	f443 7380 	orr.w	r3, r3, #256	; 0x100
 8007692:	6113      	str	r3, [r2, #16]
  FLASH->CR |= FLASH_CR_PG;
 8007694:	4b07      	ldr	r3, [pc, #28]	; (80076b4 <FLASH_Program_HalfWord+0x44>)
 8007696:	691b      	ldr	r3, [r3, #16]
 8007698:	4a06      	ldr	r2, [pc, #24]	; (80076b4 <FLASH_Program_HalfWord+0x44>)
 800769a:	f043 0301 	orr.w	r3, r3, #1
 800769e:	6113      	str	r3, [r2, #16]

  *(__IO uint16_t*)Address = Data;
 80076a0:	687b      	ldr	r3, [r7, #4]
 80076a2:	887a      	ldrh	r2, [r7, #2]
 80076a4:	801a      	strh	r2, [r3, #0]
}
 80076a6:	bf00      	nop
 80076a8:	370c      	adds	r7, #12
 80076aa:	46bd      	mov	sp, r7
 80076ac:	f85d 7b04 	ldr.w	r7, [sp], #4
 80076b0:	4770      	bx	lr
 80076b2:	bf00      	nop
 80076b4:	40023c00 	.word	0x40023c00

080076b8 <FLASH_Program_Byte>:
  * @param  Address specifies the address to be programmed.
  * @param  Data specifies the data to be programmed.
  * @retval None
  */
static void FLASH_Program_Byte(uint32_t Address, uint8_t Data)
{
 80076b8:	b480      	push	{r7}
 80076ba:	b083      	sub	sp, #12
 80076bc:	af00      	add	r7, sp, #0
 80076be:	6078      	str	r0, [r7, #4]
 80076c0:	460b      	mov	r3, r1
 80076c2:	70fb      	strb	r3, [r7, #3]
  /* Check the parameters */
  assert_param(IS_FLASH_ADDRESS(Address));
  
  /* If the previous operation is completed, proceed to program the new data */
  CLEAR_BIT(FLASH->CR, FLASH_CR_PSIZE);
 80076c4:	4b0c      	ldr	r3, [pc, #48]	; (80076f8 <FLASH_Program_Byte+0x40>)
 80076c6:	691b      	ldr	r3, [r3, #16]
 80076c8:	4a0b      	ldr	r2, [pc, #44]	; (80076f8 <FLASH_Program_Byte+0x40>)
 80076ca:	f423 7340 	bic.w	r3, r3, #768	; 0x300
 80076ce:	6113      	str	r3, [r2, #16]
  FLASH->CR |= FLASH_PSIZE_BYTE;
 80076d0:	4b09      	ldr	r3, [pc, #36]	; (80076f8 <FLASH_Program_Byte+0x40>)
 80076d2:	4a09      	ldr	r2, [pc, #36]	; (80076f8 <FLASH_Program_Byte+0x40>)
 80076d4:	691b      	ldr	r3, [r3, #16]
 80076d6:	6113      	str	r3, [r2, #16]
  FLASH->CR |= FLASH_CR_PG;
 80076d8:	4b07      	ldr	r3, [pc, #28]	; (80076f8 <FLASH_Program_Byte+0x40>)
 80076da:	691b      	ldr	r3, [r3, #16]
 80076dc:	4a06      	ldr	r2, [pc, #24]	; (80076f8 <FLASH_Program_Byte+0x40>)
 80076de:	f043 0301 	orr.w	r3, r3, #1
 80076e2:	6113      	str	r3, [r2, #16]

  *(__IO uint8_t*)Address = Data;
 80076e4:	687b      	ldr	r3, [r7, #4]
 80076e6:	78fa      	ldrb	r2, [r7, #3]
 80076e8:	701a      	strb	r2, [r3, #0]
}
 80076ea:	bf00      	nop
 80076ec:	370c      	adds	r7, #12
 80076ee:	46bd      	mov	sp, r7
 80076f0:	f85d 7b04 	ldr.w	r7, [sp], #4
 80076f4:	4770      	bx	lr
 80076f6:	bf00      	nop
 80076f8:	40023c00 	.word	0x40023c00

080076fc <FLASH_SetErrorCode>:
/**
  * @brief  Set the specific FLASH error flag.
  * @retval None
  */
static void FLASH_SetErrorCode(void)
{ 
 80076fc:	b480      	push	{r7}
 80076fe:	af00      	add	r7, sp, #0
  if(__HAL_FLASH_GET_FLAG(FLASH_FLAG_WRPERR) != RESET)
 8007700:	4b2f      	ldr	r3, [pc, #188]	; (80077c0 <FLASH_SetErrorCode+0xc4>)
 8007702:	68db      	ldr	r3, [r3, #12]
 8007704:	f003 0310 	and.w	r3, r3, #16
 8007708:	2b00      	cmp	r3, #0
 800770a:	d008      	beq.n	800771e <FLASH_SetErrorCode+0x22>
  {
   pFlash.ErrorCode |= HAL_FLASH_ERROR_WRP;
 800770c:	4b2d      	ldr	r3, [pc, #180]	; (80077c4 <FLASH_SetErrorCode+0xc8>)
 800770e:	69db      	ldr	r3, [r3, #28]
 8007710:	f043 0310 	orr.w	r3, r3, #16
 8007714:	4a2b      	ldr	r2, [pc, #172]	; (80077c4 <FLASH_SetErrorCode+0xc8>)
 8007716:	61d3      	str	r3, [r2, #28]
   
   /* Clear FLASH write protection error pending bit */
   __HAL_FLASH_CLEAR_FLAG(FLASH_FLAG_WRPERR);
 8007718:	4b29      	ldr	r3, [pc, #164]	; (80077c0 <FLASH_SetErrorCode+0xc4>)
 800771a:	2210      	movs	r2, #16
 800771c:	60da      	str	r2, [r3, #12]
  }
  
  if(__HAL_FLASH_GET_FLAG(FLASH_FLAG_PGAERR) != RESET)
 800771e:	4b28      	ldr	r3, [pc, #160]	; (80077c0 <FLASH_SetErrorCode+0xc4>)
 8007720:	68db      	ldr	r3, [r3, #12]
 8007722:	f003 0320 	and.w	r3, r3, #32
 8007726:	2b00      	cmp	r3, #0
 8007728:	d008      	beq.n	800773c <FLASH_SetErrorCode+0x40>
  {
   pFlash.ErrorCode |= HAL_FLASH_ERROR_PGA;
 800772a:	4b26      	ldr	r3, [pc, #152]	; (80077c4 <FLASH_SetErrorCode+0xc8>)
 800772c:	69db      	ldr	r3, [r3, #28]
 800772e:	f043 0308 	orr.w	r3, r3, #8
 8007732:	4a24      	ldr	r2, [pc, #144]	; (80077c4 <FLASH_SetErrorCode+0xc8>)
 8007734:	61d3      	str	r3, [r2, #28]
   
   /* Clear FLASH Programming alignment error pending bit */
   __HAL_FLASH_CLEAR_FLAG(FLASH_FLAG_PGAERR);
 8007736:	4b22      	ldr	r3, [pc, #136]	; (80077c0 <FLASH_SetErrorCode+0xc4>)
 8007738:	2220      	movs	r2, #32
 800773a:	60da      	str	r2, [r3, #12]
  }
  
  if(__HAL_FLASH_GET_FLAG(FLASH_FLAG_PGPERR) != RESET)
 800773c:	4b20      	ldr	r3, [pc, #128]	; (80077c0 <FLASH_SetErrorCode+0xc4>)
 800773e:	68db      	ldr	r3, [r3, #12]
 8007740:	f003 0340 	and.w	r3, r3, #64	; 0x40
 8007744:	2b00      	cmp	r3, #0
 8007746:	d008      	beq.n	800775a <FLASH_SetErrorCode+0x5e>
  {
    pFlash.ErrorCode |= HAL_FLASH_ERROR_PGP;
 8007748:	4b1e      	ldr	r3, [pc, #120]	; (80077c4 <FLASH_SetErrorCode+0xc8>)
 800774a:	69db      	ldr	r3, [r3, #28]
 800774c:	f043 0304 	orr.w	r3, r3, #4
 8007750:	4a1c      	ldr	r2, [pc, #112]	; (80077c4 <FLASH_SetErrorCode+0xc8>)
 8007752:	61d3      	str	r3, [r2, #28]
    
    /* Clear FLASH Programming parallelism error pending bit */
    __HAL_FLASH_CLEAR_FLAG(FLASH_FLAG_PGPERR);
 8007754:	4b1a      	ldr	r3, [pc, #104]	; (80077c0 <FLASH_SetErrorCode+0xc4>)
 8007756:	2240      	movs	r2, #64	; 0x40
 8007758:	60da      	str	r2, [r3, #12]
  }
  
  if(__HAL_FLASH_GET_FLAG(FLASH_FLAG_PGSERR) != RESET)
 800775a:	4b19      	ldr	r3, [pc, #100]	; (80077c0 <FLASH_SetErrorCode+0xc4>)
 800775c:	68db      	ldr	r3, [r3, #12]
 800775e:	f003 0380 	and.w	r3, r3, #128	; 0x80
 8007762:	2b00      	cmp	r3, #0
 8007764:	d008      	beq.n	8007778 <FLASH_SetErrorCode+0x7c>
  {
    pFlash.ErrorCode |= HAL_FLASH_ERROR_PGS;
 8007766:	4b17      	ldr	r3, [pc, #92]	; (80077c4 <FLASH_SetErrorCode+0xc8>)
 8007768:	69db      	ldr	r3, [r3, #28]
 800776a:	f043 0302 	orr.w	r3, r3, #2
 800776e:	4a15      	ldr	r2, [pc, #84]	; (80077c4 <FLASH_SetErrorCode+0xc8>)
 8007770:	61d3      	str	r3, [r2, #28]
    
    /* Clear FLASH Programming sequence error pending bit */
    __HAL_FLASH_CLEAR_FLAG(FLASH_FLAG_PGSERR);
 8007772:	4b13      	ldr	r3, [pc, #76]	; (80077c0 <FLASH_SetErrorCode+0xc4>)
 8007774:	2280      	movs	r2, #128	; 0x80
 8007776:	60da      	str	r2, [r3, #12]
  }
#if defined(FLASH_SR_RDERR) 
  if(__HAL_FLASH_GET_FLAG(FLASH_FLAG_RDERR) != RESET)
 8007778:	4b11      	ldr	r3, [pc, #68]	; (80077c0 <FLASH_SetErrorCode+0xc4>)
 800777a:	68db      	ldr	r3, [r3, #12]
 800777c:	f403 7380 	and.w	r3, r3, #256	; 0x100
 8007780:	2b00      	cmp	r3, #0
 8007782:	d009      	beq.n	8007798 <FLASH_SetErrorCode+0x9c>
  {
    pFlash.ErrorCode |= HAL_FLASH_ERROR_RD;
 8007784:	4b0f      	ldr	r3, [pc, #60]	; (80077c4 <FLASH_SetErrorCode+0xc8>)
 8007786:	69db      	ldr	r3, [r3, #28]
 8007788:	f043 0301 	orr.w	r3, r3, #1
 800778c:	4a0d      	ldr	r2, [pc, #52]	; (80077c4 <FLASH_SetErrorCode+0xc8>)
 800778e:	61d3      	str	r3, [r2, #28]
    
    /* Clear FLASH Proprietary readout protection error pending bit */
    __HAL_FLASH_CLEAR_FLAG(FLASH_FLAG_RDERR);
 8007790:	4b0b      	ldr	r3, [pc, #44]	; (80077c0 <FLASH_SetErrorCode+0xc4>)
 8007792:	f44f 7280 	mov.w	r2, #256	; 0x100
 8007796:	60da      	str	r2, [r3, #12]
  }
#endif /* FLASH_SR_RDERR */  
  if(__HAL_FLASH_GET_FLAG(FLASH_FLAG_OPERR) != RESET)
 8007798:	4b09      	ldr	r3, [pc, #36]	; (80077c0 <FLASH_SetErrorCode+0xc4>)
 800779a:	68db      	ldr	r3, [r3, #12]
 800779c:	f003 0302 	and.w	r3, r3, #2
 80077a0:	2b00      	cmp	r3, #0
 80077a2:	d008      	beq.n	80077b6 <FLASH_SetErrorCode+0xba>
  {
    pFlash.ErrorCode |= HAL_FLASH_ERROR_OPERATION;
 80077a4:	4b07      	ldr	r3, [pc, #28]	; (80077c4 <FLASH_SetErrorCode+0xc8>)
 80077a6:	69db      	ldr	r3, [r3, #28]
 80077a8:	f043 0320 	orr.w	r3, r3, #32
 80077ac:	4a05      	ldr	r2, [pc, #20]	; (80077c4 <FLASH_SetErrorCode+0xc8>)
 80077ae:	61d3      	str	r3, [r2, #28]
    
    /* Clear FLASH Operation error pending bit */
    __HAL_FLASH_CLEAR_FLAG(FLASH_FLAG_OPERR);
 80077b0:	4b03      	ldr	r3, [pc, #12]	; (80077c0 <FLASH_SetErrorCode+0xc4>)
 80077b2:	2202      	movs	r2, #2
 80077b4:	60da      	str	r2, [r3, #12]
  }
}
 80077b6:	bf00      	nop
 80077b8:	46bd      	mov	sp, r7
 80077ba:	f85d 7b04 	ldr.w	r7, [sp], #4
 80077be:	4770      	bx	lr
 80077c0:	40023c00 	.word	0x40023c00
 80077c4:	20000210 	.word	0x20000210

080077c8 <LL_GPIO_SetPinMode>:
{
 80077c8:	b480      	push	{r7}
 80077ca:	b089      	sub	sp, #36	; 0x24
 80077cc:	af00      	add	r7, sp, #0
 80077ce:	60f8      	str	r0, [r7, #12]
 80077d0:	60b9      	str	r1, [r7, #8]
 80077d2:	607a      	str	r2, [r7, #4]
  MODIFY_REG(GPIOx->MODER, (GPIO_MODER_MODER0 << (POSITION_VAL(Pin) * 2U)), (Mode << (POSITION_VAL(Pin) * 2U)));
 80077d4:	68fb      	ldr	r3, [r7, #12]
 80077d6:	681a      	ldr	r2, [r3, #0]
 80077d8:	68bb      	ldr	r3, [r7, #8]
 80077da:	617b      	str	r3, [r7, #20]
   __ASM volatile ("rbit %0, %1" : "=r" (result) : "r" (value) );
 80077dc:	697b      	ldr	r3, [r7, #20]
 80077de:	fa93 f3a3 	rbit	r3, r3
 80077e2:	613b      	str	r3, [r7, #16]
  return result;
 80077e4:	693b      	ldr	r3, [r7, #16]
 80077e6:	fab3 f383 	clz	r3, r3
 80077ea:	b2db      	uxtb	r3, r3
 80077ec:	005b      	lsls	r3, r3, #1
 80077ee:	2103      	movs	r1, #3
 80077f0:	fa01 f303 	lsl.w	r3, r1, r3
 80077f4:	43db      	mvns	r3, r3
 80077f6:	401a      	ands	r2, r3
 80077f8:	68bb      	ldr	r3, [r7, #8]
 80077fa:	61fb      	str	r3, [r7, #28]
   __ASM volatile ("rbit %0, %1" : "=r" (result) : "r" (value) );
 80077fc:	69fb      	ldr	r3, [r7, #28]
 80077fe:	fa93 f3a3 	rbit	r3, r3
 8007802:	61bb      	str	r3, [r7, #24]
  return result;
 8007804:	69bb      	ldr	r3, [r7, #24]
 8007806:	fab3 f383 	clz	r3, r3
 800780a:	b2db      	uxtb	r3, r3
 800780c:	005b      	lsls	r3, r3, #1
 800780e:	6879      	ldr	r1, [r7, #4]
 8007810:	fa01 f303 	lsl.w	r3, r1, r3
 8007814:	431a      	orrs	r2, r3
 8007816:	68fb      	ldr	r3, [r7, #12]
 8007818:	601a      	str	r2, [r3, #0]
}
 800781a:	bf00      	nop
 800781c:	3724      	adds	r7, #36	; 0x24
 800781e:	46bd      	mov	sp, r7
 8007820:	f85d 7b04 	ldr.w	r7, [sp], #4
 8007824:	4770      	bx	lr

08007826 <LL_GPIO_SetPinOutputType>:
{
 8007826:	b480      	push	{r7}
 8007828:	b085      	sub	sp, #20
 800782a:	af00      	add	r7, sp, #0
 800782c:	60f8      	str	r0, [r7, #12]
 800782e:	60b9      	str	r1, [r7, #8]
 8007830:	607a      	str	r2, [r7, #4]
  MODIFY_REG(GPIOx->OTYPER, PinMask, (PinMask * OutputType));
 8007832:	68fb      	ldr	r3, [r7, #12]
 8007834:	685a      	ldr	r2, [r3, #4]
 8007836:	68bb      	ldr	r3, [r7, #8]
 8007838:	43db      	mvns	r3, r3
 800783a:	401a      	ands	r2, r3
 800783c:	68bb      	ldr	r3, [r7, #8]
 800783e:	6879      	ldr	r1, [r7, #4]
 8007840:	fb01 f303 	mul.w	r3, r1, r3
 8007844:	431a      	orrs	r2, r3
 8007846:	68fb      	ldr	r3, [r7, #12]
 8007848:	605a      	str	r2, [r3, #4]
}
 800784a:	bf00      	nop
 800784c:	3714      	adds	r7, #20
 800784e:	46bd      	mov	sp, r7
 8007850:	f85d 7b04 	ldr.w	r7, [sp], #4
 8007854:	4770      	bx	lr

08007856 <LL_GPIO_SetPinSpeed>:
{
 8007856:	b480      	push	{r7}
 8007858:	b089      	sub	sp, #36	; 0x24
 800785a:	af00      	add	r7, sp, #0
 800785c:	60f8      	str	r0, [r7, #12]
 800785e:	60b9      	str	r1, [r7, #8]
 8007860:	607a      	str	r2, [r7, #4]
  MODIFY_REG(GPIOx->OSPEEDR, (GPIO_OSPEEDER_OSPEEDR0 << (POSITION_VAL(Pin) * 2U)),
 8007862:	68fb      	ldr	r3, [r7, #12]
 8007864:	689a      	ldr	r2, [r3, #8]
 8007866:	68bb      	ldr	r3, [r7, #8]
 8007868:	617b      	str	r3, [r7, #20]
   __ASM volatile ("rbit %0, %1" : "=r" (result) : "r" (value) );
 800786a:	697b      	ldr	r3, [r7, #20]
 800786c:	fa93 f3a3 	rbit	r3, r3
 8007870:	613b      	str	r3, [r7, #16]
  return result;
 8007872:	693b      	ldr	r3, [r7, #16]
 8007874:	fab3 f383 	clz	r3, r3
 8007878:	b2db      	uxtb	r3, r3
 800787a:	005b      	lsls	r3, r3, #1
 800787c:	2103      	movs	r1, #3
 800787e:	fa01 f303 	lsl.w	r3, r1, r3
 8007882:	43db      	mvns	r3, r3
 8007884:	401a      	ands	r2, r3
 8007886:	68bb      	ldr	r3, [r7, #8]
 8007888:	61fb      	str	r3, [r7, #28]
   __ASM volatile ("rbit %0, %1" : "=r" (result) : "r" (value) );
 800788a:	69fb      	ldr	r3, [r7, #28]
 800788c:	fa93 f3a3 	rbit	r3, r3
 8007890:	61bb      	str	r3, [r7, #24]
  return result;
 8007892:	69bb      	ldr	r3, [r7, #24]
 8007894:	fab3 f383 	clz	r3, r3
 8007898:	b2db      	uxtb	r3, r3
 800789a:	005b      	lsls	r3, r3, #1
 800789c:	6879      	ldr	r1, [r7, #4]
 800789e:	fa01 f303 	lsl.w	r3, r1, r3
 80078a2:	431a      	orrs	r2, r3
 80078a4:	68fb      	ldr	r3, [r7, #12]
 80078a6:	609a      	str	r2, [r3, #8]
}
 80078a8:	bf00      	nop
 80078aa:	3724      	adds	r7, #36	; 0x24
 80078ac:	46bd      	mov	sp, r7
 80078ae:	f85d 7b04 	ldr.w	r7, [sp], #4
 80078b2:	4770      	bx	lr

080078b4 <LL_GPIO_SetPinPull>:
{
 80078b4:	b480      	push	{r7}
 80078b6:	b089      	sub	sp, #36	; 0x24
 80078b8:	af00      	add	r7, sp, #0
 80078ba:	60f8      	str	r0, [r7, #12]
 80078bc:	60b9      	str	r1, [r7, #8]
 80078be:	607a      	str	r2, [r7, #4]
  MODIFY_REG(GPIOx->PUPDR, (GPIO_PUPDR_PUPDR0 << (POSITION_VAL(Pin) * 2U)), (Pull << (POSITION_VAL(Pin) * 2U)));
 80078c0:	68fb      	ldr	r3, [r7, #12]
 80078c2:	68da      	ldr	r2, [r3, #12]
 80078c4:	68bb      	ldr	r3, [r7, #8]
 80078c6:	617b      	str	r3, [r7, #20]
   __ASM volatile ("rbit %0, %1" : "=r" (result) : "r" (value) );
 80078c8:	697b      	ldr	r3, [r7, #20]
 80078ca:	fa93 f3a3 	rbit	r3, r3
 80078ce:	613b      	str	r3, [r7, #16]
  return result;
 80078d0:	693b      	ldr	r3, [r7, #16]
 80078d2:	fab3 f383 	clz	r3, r3
 80078d6:	b2db      	uxtb	r3, r3
 80078d8:	005b      	lsls	r3, r3, #1
 80078da:	2103      	movs	r1, #3
 80078dc:	fa01 f303 	lsl.w	r3, r1, r3
 80078e0:	43db      	mvns	r3, r3
 80078e2:	401a      	ands	r2, r3
 80078e4:	68bb      	ldr	r3, [r7, #8]
 80078e6:	61fb      	str	r3, [r7, #28]
   __ASM volatile ("rbit %0, %1" : "=r" (result) : "r" (value) );
 80078e8:	69fb      	ldr	r3, [r7, #28]
 80078ea:	fa93 f3a3 	rbit	r3, r3
 80078ee:	61bb      	str	r3, [r7, #24]
  return result;
 80078f0:	69bb      	ldr	r3, [r7, #24]
 80078f2:	fab3 f383 	clz	r3, r3
 80078f6:	b2db      	uxtb	r3, r3
 80078f8:	005b      	lsls	r3, r3, #1
 80078fa:	6879      	ldr	r1, [r7, #4]
 80078fc:	fa01 f303 	lsl.w	r3, r1, r3
 8007900:	431a      	orrs	r2, r3
 8007902:	68fb      	ldr	r3, [r7, #12]
 8007904:	60da      	str	r2, [r3, #12]
}
 8007906:	bf00      	nop
 8007908:	3724      	adds	r7, #36	; 0x24
 800790a:	46bd      	mov	sp, r7
 800790c:	f85d 7b04 	ldr.w	r7, [sp], #4
 8007910:	4770      	bx	lr

08007912 <LL_GPIO_SetAFPin_0_7>:
{
 8007912:	b480      	push	{r7}
 8007914:	b089      	sub	sp, #36	; 0x24
 8007916:	af00      	add	r7, sp, #0
 8007918:	60f8      	str	r0, [r7, #12]
 800791a:	60b9      	str	r1, [r7, #8]
 800791c:	607a      	str	r2, [r7, #4]
  MODIFY_REG(GPIOx->AFR[0], (GPIO_AFRL_AFSEL0 << (POSITION_VAL(Pin) * 4U)),
 800791e:	68fb      	ldr	r3, [r7, #12]
 8007920:	6a1a      	ldr	r2, [r3, #32]
 8007922:	68bb      	ldr	r3, [r7, #8]
 8007924:	617b      	str	r3, [r7, #20]
   __ASM volatile ("rbit %0, %1" : "=r" (result) : "r" (value) );
 8007926:	697b      	ldr	r3, [r7, #20]
 8007928:	fa93 f3a3 	rbit	r3, r3
 800792c:	613b      	str	r3, [r7, #16]
  return result;
 800792e:	693b      	ldr	r3, [r7, #16]
 8007930:	fab3 f383 	clz	r3, r3
 8007934:	b2db      	uxtb	r3, r3
 8007936:	009b      	lsls	r3, r3, #2
 8007938:	210f      	movs	r1, #15
 800793a:	fa01 f303 	lsl.w	r3, r1, r3
 800793e:	43db      	mvns	r3, r3
 8007940:	401a      	ands	r2, r3
 8007942:	68bb      	ldr	r3, [r7, #8]
 8007944:	61fb      	str	r3, [r7, #28]
   __ASM volatile ("rbit %0, %1" : "=r" (result) : "r" (value) );
 8007946:	69fb      	ldr	r3, [r7, #28]
 8007948:	fa93 f3a3 	rbit	r3, r3
 800794c:	61bb      	str	r3, [r7, #24]
  return result;
 800794e:	69bb      	ldr	r3, [r7, #24]
 8007950:	fab3 f383 	clz	r3, r3
 8007954:	b2db      	uxtb	r3, r3
 8007956:	009b      	lsls	r3, r3, #2
 8007958:	6879      	ldr	r1, [r7, #4]
 800795a:	fa01 f303 	lsl.w	r3, r1, r3
 800795e:	431a      	orrs	r2, r3
 8007960:	68fb      	ldr	r3, [r7, #12]
 8007962:	621a      	str	r2, [r3, #32]
}
 8007964:	bf00      	nop
 8007966:	3724      	adds	r7, #36	; 0x24
 8007968:	46bd      	mov	sp, r7
 800796a:	f85d 7b04 	ldr.w	r7, [sp], #4
 800796e:	4770      	bx	lr

08007970 <LL_GPIO_SetAFPin_8_15>:
{
 8007970:	b480      	push	{r7}
 8007972:	b089      	sub	sp, #36	; 0x24
 8007974:	af00      	add	r7, sp, #0
 8007976:	60f8      	str	r0, [r7, #12]
 8007978:	60b9      	str	r1, [r7, #8]
 800797a:	607a      	str	r2, [r7, #4]
  MODIFY_REG(GPIOx->AFR[1], (GPIO_AFRH_AFSEL8 << (POSITION_VAL(Pin >> 8U) * 4U)),
 800797c:	68fb      	ldr	r3, [r7, #12]
 800797e:	6a5a      	ldr	r2, [r3, #36]	; 0x24
 8007980:	68bb      	ldr	r3, [r7, #8]
 8007982:	0a1b      	lsrs	r3, r3, #8
 8007984:	617b      	str	r3, [r7, #20]
   __ASM volatile ("rbit %0, %1" : "=r" (result) : "r" (value) );
 8007986:	697b      	ldr	r3, [r7, #20]
 8007988:	fa93 f3a3 	rbit	r3, r3
 800798c:	613b      	str	r3, [r7, #16]
  return result;
 800798e:	693b      	ldr	r3, [r7, #16]
 8007990:	fab3 f383 	clz	r3, r3
 8007994:	b2db      	uxtb	r3, r3
 8007996:	009b      	lsls	r3, r3, #2
 8007998:	210f      	movs	r1, #15
 800799a:	fa01 f303 	lsl.w	r3, r1, r3
 800799e:	43db      	mvns	r3, r3
 80079a0:	401a      	ands	r2, r3
 80079a2:	68bb      	ldr	r3, [r7, #8]
 80079a4:	0a1b      	lsrs	r3, r3, #8
 80079a6:	61fb      	str	r3, [r7, #28]
   __ASM volatile ("rbit %0, %1" : "=r" (result) : "r" (value) );
 80079a8:	69fb      	ldr	r3, [r7, #28]
 80079aa:	fa93 f3a3 	rbit	r3, r3
 80079ae:	61bb      	str	r3, [r7, #24]
  return result;
 80079b0:	69bb      	ldr	r3, [r7, #24]
 80079b2:	fab3 f383 	clz	r3, r3
 80079b6:	b2db      	uxtb	r3, r3
 80079b8:	009b      	lsls	r3, r3, #2
 80079ba:	6879      	ldr	r1, [r7, #4]
 80079bc:	fa01 f303 	lsl.w	r3, r1, r3
 80079c0:	431a      	orrs	r2, r3
 80079c2:	68fb      	ldr	r3, [r7, #12]
 80079c4:	625a      	str	r2, [r3, #36]	; 0x24
}
 80079c6:	bf00      	nop
 80079c8:	3724      	adds	r7, #36	; 0x24
 80079ca:	46bd      	mov	sp, r7
 80079cc:	f85d 7b04 	ldr.w	r7, [sp], #4
 80079d0:	4770      	bx	lr

080079d2 <LL_GPIO_Init>:
  * @retval An ErrorStatus enumeration value:
  *          - SUCCESS: GPIO registers are initialized according to GPIO_InitStruct content
  *          - ERROR:   Not applicable
  */
ErrorStatus LL_GPIO_Init(GPIO_TypeDef *GPIOx, LL_GPIO_InitTypeDef *GPIO_InitStruct)
{
 80079d2:	b580      	push	{r7, lr}
 80079d4:	b088      	sub	sp, #32
 80079d6:	af00      	add	r7, sp, #0
 80079d8:	6078      	str	r0, [r7, #4]
 80079da:	6039      	str	r1, [r7, #0]
  uint32_t pinpos     = 0x00000000U;
 80079dc:	2300      	movs	r3, #0
 80079de:	61fb      	str	r3, [r7, #28]
  uint32_t currentpin = 0x00000000U;
 80079e0:	2300      	movs	r3, #0
 80079e2:	61bb      	str	r3, [r7, #24]
  assert_param(IS_LL_GPIO_MODE(GPIO_InitStruct->Mode));
  assert_param(IS_LL_GPIO_PULL(GPIO_InitStruct->Pull));

  /* ------------------------- Configure the port pins ---------------- */
  /* Initialize  pinpos on first pin set */
  pinpos = POSITION_VAL(GPIO_InitStruct->Pin);
 80079e4:	683b      	ldr	r3, [r7, #0]
 80079e6:	681b      	ldr	r3, [r3, #0]
 80079e8:	617b      	str	r3, [r7, #20]
   __ASM volatile ("rbit %0, %1" : "=r" (result) : "r" (value) );
 80079ea:	697b      	ldr	r3, [r7, #20]
 80079ec:	fa93 f3a3 	rbit	r3, r3
 80079f0:	613b      	str	r3, [r7, #16]
  return result;
 80079f2:	693b      	ldr	r3, [r7, #16]
 80079f4:	fab3 f383 	clz	r3, r3
 80079f8:	b2db      	uxtb	r3, r3
 80079fa:	61fb      	str	r3, [r7, #28]
  
  /* Configure the port pins */
  while (((GPIO_InitStruct->Pin) >> pinpos) != 0x00000000U)
 80079fc:	e050      	b.n	8007aa0 <LL_GPIO_Init+0xce>
  {
    /* Get current io position */
    currentpin = (GPIO_InitStruct->Pin) & (0x00000001U << pinpos);
 80079fe:	683b      	ldr	r3, [r7, #0]
 8007a00:	681a      	ldr	r2, [r3, #0]
 8007a02:	2101      	movs	r1, #1
 8007a04:	69fb      	ldr	r3, [r7, #28]
 8007a06:	fa01 f303 	lsl.w	r3, r1, r3
 8007a0a:	4013      	ands	r3, r2
 8007a0c:	61bb      	str	r3, [r7, #24]
    
    if (currentpin)
 8007a0e:	69bb      	ldr	r3, [r7, #24]
 8007a10:	2b00      	cmp	r3, #0
 8007a12:	d042      	beq.n	8007a9a <LL_GPIO_Init+0xc8>
    {
      
      if ((GPIO_InitStruct->Mode == LL_GPIO_MODE_OUTPUT) || (GPIO_InitStruct->Mode == LL_GPIO_MODE_ALTERNATE))
 8007a14:	683b      	ldr	r3, [r7, #0]
 8007a16:	685b      	ldr	r3, [r3, #4]
 8007a18:	2b01      	cmp	r3, #1
 8007a1a:	d003      	beq.n	8007a24 <LL_GPIO_Init+0x52>
 8007a1c:	683b      	ldr	r3, [r7, #0]
 8007a1e:	685b      	ldr	r3, [r3, #4]
 8007a20:	2b02      	cmp	r3, #2
 8007a22:	d10d      	bne.n	8007a40 <LL_GPIO_Init+0x6e>
      {
        /* Check Speed mode parameters */
        assert_param(IS_LL_GPIO_SPEED(GPIO_InitStruct->Speed));
        
        /* Speed mode configuration */
        LL_GPIO_SetPinSpeed(GPIOx, currentpin, GPIO_InitStruct->Speed);
 8007a24:	683b      	ldr	r3, [r7, #0]
 8007a26:	689b      	ldr	r3, [r3, #8]
 8007a28:	461a      	mov	r2, r3
 8007a2a:	69b9      	ldr	r1, [r7, #24]
 8007a2c:	6878      	ldr	r0, [r7, #4]
 8007a2e:	f7ff ff12 	bl	8007856 <LL_GPIO_SetPinSpeed>
        
        /* Check Output mode parameters */
        assert_param(IS_LL_GPIO_OUTPUT_TYPE(GPIO_InitStruct->OutputType));
        
        /* Output mode configuration*/
        LL_GPIO_SetPinOutputType(GPIOx, currentpin, GPIO_InitStruct->OutputType);
 8007a32:	683b      	ldr	r3, [r7, #0]
 8007a34:	68db      	ldr	r3, [r3, #12]
 8007a36:	461a      	mov	r2, r3
 8007a38:	69b9      	ldr	r1, [r7, #24]
 8007a3a:	6878      	ldr	r0, [r7, #4]
 8007a3c:	f7ff fef3 	bl	8007826 <LL_GPIO_SetPinOutputType>
      }
      
      /* Pull-up Pull down resistor configuration*/
      LL_GPIO_SetPinPull(GPIOx, currentpin, GPIO_InitStruct->Pull);
 8007a40:	683b      	ldr	r3, [r7, #0]
 8007a42:	691b      	ldr	r3, [r3, #16]
 8007a44:	461a      	mov	r2, r3
 8007a46:	69b9      	ldr	r1, [r7, #24]
 8007a48:	6878      	ldr	r0, [r7, #4]
 8007a4a:	f7ff ff33 	bl	80078b4 <LL_GPIO_SetPinPull>
      
      if (GPIO_InitStruct->Mode == LL_GPIO_MODE_ALTERNATE)
 8007a4e:	683b      	ldr	r3, [r7, #0]
 8007a50:	685b      	ldr	r3, [r3, #4]
 8007a52:	2b02      	cmp	r3, #2
 8007a54:	d11a      	bne.n	8007a8c <LL_GPIO_Init+0xba>
 8007a56:	69bb      	ldr	r3, [r7, #24]
 8007a58:	60fb      	str	r3, [r7, #12]
   __ASM volatile ("rbit %0, %1" : "=r" (result) : "r" (value) );
 8007a5a:	68fb      	ldr	r3, [r7, #12]
 8007a5c:	fa93 f3a3 	rbit	r3, r3
 8007a60:	60bb      	str	r3, [r7, #8]
  return result;
 8007a62:	68bb      	ldr	r3, [r7, #8]
      {
        /* Check Alternate parameter */
        assert_param(IS_LL_GPIO_ALTERNATE(GPIO_InitStruct->Alternate));
        
        /* Speed mode configuration */
        if (POSITION_VAL(currentpin) < 0x00000008U)
 8007a64:	fab3 f383 	clz	r3, r3
 8007a68:	b2db      	uxtb	r3, r3
 8007a6a:	2b07      	cmp	r3, #7
 8007a6c:	d807      	bhi.n	8007a7e <LL_GPIO_Init+0xac>
        {
          LL_GPIO_SetAFPin_0_7(GPIOx, currentpin, GPIO_InitStruct->Alternate);
 8007a6e:	683b      	ldr	r3, [r7, #0]
 8007a70:	695b      	ldr	r3, [r3, #20]
 8007a72:	461a      	mov	r2, r3
 8007a74:	69b9      	ldr	r1, [r7, #24]
 8007a76:	6878      	ldr	r0, [r7, #4]
 8007a78:	f7ff ff4b 	bl	8007912 <LL_GPIO_SetAFPin_0_7>
 8007a7c:	e006      	b.n	8007a8c <LL_GPIO_Init+0xba>
        }
        else
        {
          LL_GPIO_SetAFPin_8_15(GPIOx, currentpin, GPIO_InitStruct->Alternate);
 8007a7e:	683b      	ldr	r3, [r7, #0]
 8007a80:	695b      	ldr	r3, [r3, #20]
 8007a82:	461a      	mov	r2, r3
 8007a84:	69b9      	ldr	r1, [r7, #24]
 8007a86:	6878      	ldr	r0, [r7, #4]
 8007a88:	f7ff ff72 	bl	8007970 <LL_GPIO_SetAFPin_8_15>
        }
      }
      
      /* Pin Mode configuration */
      LL_GPIO_SetPinMode(GPIOx, currentpin, GPIO_InitStruct->Mode);
 8007a8c:	683b      	ldr	r3, [r7, #0]
 8007a8e:	685b      	ldr	r3, [r3, #4]
 8007a90:	461a      	mov	r2, r3
 8007a92:	69b9      	ldr	r1, [r7, #24]
 8007a94:	6878      	ldr	r0, [r7, #4]
 8007a96:	f7ff fe97 	bl	80077c8 <LL_GPIO_SetPinMode>
    }
    pinpos++;
 8007a9a:	69fb      	ldr	r3, [r7, #28]
 8007a9c:	3301      	adds	r3, #1
 8007a9e:	61fb      	str	r3, [r7, #28]
  while (((GPIO_InitStruct->Pin) >> pinpos) != 0x00000000U)
 8007aa0:	683b      	ldr	r3, [r7, #0]
 8007aa2:	681a      	ldr	r2, [r3, #0]
 8007aa4:	69fb      	ldr	r3, [r7, #28]
 8007aa6:	fa22 f303 	lsr.w	r3, r2, r3
 8007aaa:	2b00      	cmp	r3, #0
 8007aac:	d1a7      	bne.n	80079fe <LL_GPIO_Init+0x2c>
  }

  return (SUCCESS);
 8007aae:	2300      	movs	r3, #0
}
 8007ab0:	4618      	mov	r0, r3
 8007ab2:	3720      	adds	r7, #32
 8007ab4:	46bd      	mov	sp, r7
 8007ab6:	bd80      	pop	{r7, pc}

08007ab8 <LL_RCC_GetSysClkSource>:
{
 8007ab8:	b480      	push	{r7}
 8007aba:	af00      	add	r7, sp, #0
  return (uint32_t)(READ_BIT(RCC->CFGR, RCC_CFGR_SWS));
 8007abc:	4b04      	ldr	r3, [pc, #16]	; (8007ad0 <LL_RCC_GetSysClkSource+0x18>)
 8007abe:	689b      	ldr	r3, [r3, #8]
 8007ac0:	f003 030c 	and.w	r3, r3, #12
}
 8007ac4:	4618      	mov	r0, r3
 8007ac6:	46bd      	mov	sp, r7
 8007ac8:	f85d 7b04 	ldr.w	r7, [sp], #4
 8007acc:	4770      	bx	lr
 8007ace:	bf00      	nop
 8007ad0:	40023800 	.word	0x40023800

08007ad4 <LL_RCC_GetAHBPrescaler>:
{
 8007ad4:	b480      	push	{r7}
 8007ad6:	af00      	add	r7, sp, #0
  return (uint32_t)(READ_BIT(RCC->CFGR, RCC_CFGR_HPRE));
 8007ad8:	4b04      	ldr	r3, [pc, #16]	; (8007aec <LL_RCC_GetAHBPrescaler+0x18>)
 8007ada:	689b      	ldr	r3, [r3, #8]
 8007adc:	f003 03f0 	and.w	r3, r3, #240	; 0xf0
}
 8007ae0:	4618      	mov	r0, r3
 8007ae2:	46bd      	mov	sp, r7
 8007ae4:	f85d 7b04 	ldr.w	r7, [sp], #4
 8007ae8:	4770      	bx	lr
 8007aea:	bf00      	nop
 8007aec:	40023800 	.word	0x40023800

08007af0 <LL_RCC_GetAPB1Prescaler>:
{
 8007af0:	b480      	push	{r7}
 8007af2:	af00      	add	r7, sp, #0
  return (uint32_t)(READ_BIT(RCC->CFGR, RCC_CFGR_PPRE1));
 8007af4:	4b04      	ldr	r3, [pc, #16]	; (8007b08 <LL_RCC_GetAPB1Prescaler+0x18>)
 8007af6:	689b      	ldr	r3, [r3, #8]
 8007af8:	f403 53e0 	and.w	r3, r3, #7168	; 0x1c00
}
 8007afc:	4618      	mov	r0, r3
 8007afe:	46bd      	mov	sp, r7
 8007b00:	f85d 7b04 	ldr.w	r7, [sp], #4
 8007b04:	4770      	bx	lr
 8007b06:	bf00      	nop
 8007b08:	40023800 	.word	0x40023800

08007b0c <LL_RCC_GetAPB2Prescaler>:
{
 8007b0c:	b480      	push	{r7}
 8007b0e:	af00      	add	r7, sp, #0
  return (uint32_t)(READ_BIT(RCC->CFGR, RCC_CFGR_PPRE2));
 8007b10:	4b04      	ldr	r3, [pc, #16]	; (8007b24 <LL_RCC_GetAPB2Prescaler+0x18>)
 8007b12:	689b      	ldr	r3, [r3, #8]
 8007b14:	f403 4360 	and.w	r3, r3, #57344	; 0xe000
}
 8007b18:	4618      	mov	r0, r3
 8007b1a:	46bd      	mov	sp, r7
 8007b1c:	f85d 7b04 	ldr.w	r7, [sp], #4
 8007b20:	4770      	bx	lr
 8007b22:	bf00      	nop
 8007b24:	40023800 	.word	0x40023800

08007b28 <LL_RCC_PLL_GetMainSource>:
  * @retval Returned value can be one of the following values:
  *         @arg @ref LL_RCC_PLLSOURCE_HSI
  *         @arg @ref LL_RCC_PLLSOURCE_HSE
  */
__STATIC_INLINE uint32_t LL_RCC_PLL_GetMainSource(void)
{
 8007b28:	b480      	push	{r7}
 8007b2a:	af00      	add	r7, sp, #0
  return (uint32_t)(READ_BIT(RCC->PLLCFGR, RCC_PLLCFGR_PLLSRC));
 8007b2c:	4b04      	ldr	r3, [pc, #16]	; (8007b40 <LL_RCC_PLL_GetMainSource+0x18>)
 8007b2e:	685b      	ldr	r3, [r3, #4]
 8007b30:	f403 0380 	and.w	r3, r3, #4194304	; 0x400000
}
 8007b34:	4618      	mov	r0, r3
 8007b36:	46bd      	mov	sp, r7
 8007b38:	f85d 7b04 	ldr.w	r7, [sp], #4
 8007b3c:	4770      	bx	lr
 8007b3e:	bf00      	nop
 8007b40:	40023800 	.word	0x40023800

08007b44 <LL_RCC_PLL_GetN>:
  * @retval Between 50/192(*) and 432
  *
  *         (*) value not defined in all devices.
  */
__STATIC_INLINE uint32_t LL_RCC_PLL_GetN(void)
{
 8007b44:	b480      	push	{r7}
 8007b46:	af00      	add	r7, sp, #0
  return (uint32_t)(READ_BIT(RCC->PLLCFGR, RCC_PLLCFGR_PLLN) >>  RCC_PLLCFGR_PLLN_Pos);
 8007b48:	4b04      	ldr	r3, [pc, #16]	; (8007b5c <LL_RCC_PLL_GetN+0x18>)
 8007b4a:	685b      	ldr	r3, [r3, #4]
 8007b4c:	099b      	lsrs	r3, r3, #6
 8007b4e:	f3c3 0308 	ubfx	r3, r3, #0, #9
}
 8007b52:	4618      	mov	r0, r3
 8007b54:	46bd      	mov	sp, r7
 8007b56:	f85d 7b04 	ldr.w	r7, [sp], #4
 8007b5a:	4770      	bx	lr
 8007b5c:	40023800 	.word	0x40023800

08007b60 <LL_RCC_PLL_GetP>:
  *         @arg @ref LL_RCC_PLLP_DIV_4
  *         @arg @ref LL_RCC_PLLP_DIV_6
  *         @arg @ref LL_RCC_PLLP_DIV_8
  */
__STATIC_INLINE uint32_t LL_RCC_PLL_GetP(void)
{
 8007b60:	b480      	push	{r7}
 8007b62:	af00      	add	r7, sp, #0
  return (uint32_t)(READ_BIT(RCC->PLLCFGR, RCC_PLLCFGR_PLLP));
 8007b64:	4b04      	ldr	r3, [pc, #16]	; (8007b78 <LL_RCC_PLL_GetP+0x18>)
 8007b66:	685b      	ldr	r3, [r3, #4]
 8007b68:	f403 3340 	and.w	r3, r3, #196608	; 0x30000
}
 8007b6c:	4618      	mov	r0, r3
 8007b6e:	46bd      	mov	sp, r7
 8007b70:	f85d 7b04 	ldr.w	r7, [sp], #4
 8007b74:	4770      	bx	lr
 8007b76:	bf00      	nop
 8007b78:	40023800 	.word	0x40023800

08007b7c <LL_RCC_PLL_GetDivider>:
  *         @arg @ref LL_RCC_PLLM_DIV_61
  *         @arg @ref LL_RCC_PLLM_DIV_62
  *         @arg @ref LL_RCC_PLLM_DIV_63
  */
__STATIC_INLINE uint32_t LL_RCC_PLL_GetDivider(void)
{
 8007b7c:	b480      	push	{r7}
 8007b7e:	af00      	add	r7, sp, #0
  return (uint32_t)(READ_BIT(RCC->PLLCFGR, RCC_PLLCFGR_PLLM));
 8007b80:	4b04      	ldr	r3, [pc, #16]	; (8007b94 <LL_RCC_PLL_GetDivider+0x18>)
 8007b82:	685b      	ldr	r3, [r3, #4]
 8007b84:	f003 033f 	and.w	r3, r3, #63	; 0x3f
}
 8007b88:	4618      	mov	r0, r3
 8007b8a:	46bd      	mov	sp, r7
 8007b8c:	f85d 7b04 	ldr.w	r7, [sp], #4
 8007b90:	4770      	bx	lr
 8007b92:	bf00      	nop
 8007b94:	40023800 	.word	0x40023800

08007b98 <LL_RCC_GetSystemClocksFreq>:
  *         configuration based on this function will be incorrect.
  * @param  RCC_Clocks pointer to a @ref LL_RCC_ClocksTypeDef structure which will hold the clocks frequencies
  * @retval None
  */
void LL_RCC_GetSystemClocksFreq(LL_RCC_ClocksTypeDef *RCC_Clocks)
{
 8007b98:	b580      	push	{r7, lr}
 8007b9a:	b082      	sub	sp, #8
 8007b9c:	af00      	add	r7, sp, #0
 8007b9e:	6078      	str	r0, [r7, #4]
  /* Get SYSCLK frequency */
  RCC_Clocks->SYSCLK_Frequency = RCC_GetSystemClockFreq();
 8007ba0:	f000 f820 	bl	8007be4 <RCC_GetSystemClockFreq>
 8007ba4:	4602      	mov	r2, r0
 8007ba6:	687b      	ldr	r3, [r7, #4]
 8007ba8:	601a      	str	r2, [r3, #0]

  /* HCLK clock frequency */
  RCC_Clocks->HCLK_Frequency   = RCC_GetHCLKClockFreq(RCC_Clocks->SYSCLK_Frequency);
 8007baa:	687b      	ldr	r3, [r7, #4]
 8007bac:	681b      	ldr	r3, [r3, #0]
 8007bae:	4618      	mov	r0, r3
 8007bb0:	f000 f840 	bl	8007c34 <RCC_GetHCLKClockFreq>
 8007bb4:	4602      	mov	r2, r0
 8007bb6:	687b      	ldr	r3, [r7, #4]
 8007bb8:	605a      	str	r2, [r3, #4]

  /* PCLK1 clock frequency */
  RCC_Clocks->PCLK1_Frequency  = RCC_GetPCLK1ClockFreq(RCC_Clocks->HCLK_Frequency);
 8007bba:	687b      	ldr	r3, [r7, #4]
 8007bbc:	685b      	ldr	r3, [r3, #4]
 8007bbe:	4618      	mov	r0, r3
 8007bc0:	f000 f84e 	bl	8007c60 <RCC_GetPCLK1ClockFreq>
 8007bc4:	4602      	mov	r2, r0
 8007bc6:	687b      	ldr	r3, [r7, #4]
 8007bc8:	609a      	str	r2, [r3, #8]

  /* PCLK2 clock frequency */
  RCC_Clocks->PCLK2_Frequency  = RCC_GetPCLK2ClockFreq(RCC_Clocks->HCLK_Frequency);
 8007bca:	687b      	ldr	r3, [r7, #4]
 8007bcc:	685b      	ldr	r3, [r3, #4]
 8007bce:	4618      	mov	r0, r3
 8007bd0:	f000 f85a 	bl	8007c88 <RCC_GetPCLK2ClockFreq>
 8007bd4:	4602      	mov	r2, r0
 8007bd6:	687b      	ldr	r3, [r7, #4]
 8007bd8:	60da      	str	r2, [r3, #12]
}
 8007bda:	bf00      	nop
 8007bdc:	3708      	adds	r7, #8
 8007bde:	46bd      	mov	sp, r7
 8007be0:	bd80      	pop	{r7, pc}
	...

08007be4 <RCC_GetSystemClockFreq>:
/**
  * @brief  Return SYSTEM clock frequency
  * @retval SYSTEM clock frequency (in Hz)
  */
uint32_t RCC_GetSystemClockFreq(void)
{
 8007be4:	b580      	push	{r7, lr}
 8007be6:	b082      	sub	sp, #8
 8007be8:	af00      	add	r7, sp, #0
  uint32_t frequency = 0U;
 8007bea:	2300      	movs	r3, #0
 8007bec:	607b      	str	r3, [r7, #4]

  /* Get SYSCLK source -------------------------------------------------------*/
  switch (LL_RCC_GetSysClkSource())
 8007bee:	f7ff ff63 	bl	8007ab8 <LL_RCC_GetSysClkSource>
 8007bf2:	4603      	mov	r3, r0
 8007bf4:	2b08      	cmp	r3, #8
 8007bf6:	d00c      	beq.n	8007c12 <RCC_GetSystemClockFreq+0x2e>
 8007bf8:	2b08      	cmp	r3, #8
 8007bfa:	d80f      	bhi.n	8007c1c <RCC_GetSystemClockFreq+0x38>
 8007bfc:	2b00      	cmp	r3, #0
 8007bfe:	d002      	beq.n	8007c06 <RCC_GetSystemClockFreq+0x22>
 8007c00:	2b04      	cmp	r3, #4
 8007c02:	d003      	beq.n	8007c0c <RCC_GetSystemClockFreq+0x28>
 8007c04:	e00a      	b.n	8007c1c <RCC_GetSystemClockFreq+0x38>
  {
    case LL_RCC_SYS_CLKSOURCE_STATUS_HSI:  /* HSI used as system clock  source */
      frequency = HSI_VALUE;
 8007c06:	4b09      	ldr	r3, [pc, #36]	; (8007c2c <RCC_GetSystemClockFreq+0x48>)
 8007c08:	607b      	str	r3, [r7, #4]
      break;
 8007c0a:	e00a      	b.n	8007c22 <RCC_GetSystemClockFreq+0x3e>

    case LL_RCC_SYS_CLKSOURCE_STATUS_HSE:  /* HSE used as system clock  source */
      frequency = HSE_VALUE;
 8007c0c:	4b08      	ldr	r3, [pc, #32]	; (8007c30 <RCC_GetSystemClockFreq+0x4c>)
 8007c0e:	607b      	str	r3, [r7, #4]
      break;
 8007c10:	e007      	b.n	8007c22 <RCC_GetSystemClockFreq+0x3e>

    case LL_RCC_SYS_CLKSOURCE_STATUS_PLL:  /* PLL used as system clock  source */
      frequency = RCC_PLL_GetFreqDomain_SYS(LL_RCC_SYS_CLKSOURCE_STATUS_PLL);
 8007c12:	2008      	movs	r0, #8
 8007c14:	f000 f84c 	bl	8007cb0 <RCC_PLL_GetFreqDomain_SYS>
 8007c18:	6078      	str	r0, [r7, #4]
      break;
 8007c1a:	e002      	b.n	8007c22 <RCC_GetSystemClockFreq+0x3e>
      frequency = RCC_PLL_GetFreqDomain_SYS(LL_RCC_SYS_CLKSOURCE_STATUS_PLLR);
      break;
#endif /* RCC_PLLR_SYSCLK_SUPPORT */

    default:
      frequency = HSI_VALUE;
 8007c1c:	4b03      	ldr	r3, [pc, #12]	; (8007c2c <RCC_GetSystemClockFreq+0x48>)
 8007c1e:	607b      	str	r3, [r7, #4]
      break;
 8007c20:	bf00      	nop
  }

  return frequency;
 8007c22:	687b      	ldr	r3, [r7, #4]
}
 8007c24:	4618      	mov	r0, r3
 8007c26:	3708      	adds	r7, #8
 8007c28:	46bd      	mov	sp, r7
 8007c2a:	bd80      	pop	{r7, pc}
 8007c2c:	00f42400 	.word	0x00f42400
 8007c30:	017d7840 	.word	0x017d7840

08007c34 <RCC_GetHCLKClockFreq>:
  * @brief  Return HCLK clock frequency
  * @param  SYSCLK_Frequency SYSCLK clock frequency
  * @retval HCLK clock frequency (in Hz)
  */
uint32_t RCC_GetHCLKClockFreq(uint32_t SYSCLK_Frequency)
{
 8007c34:	b580      	push	{r7, lr}
 8007c36:	b082      	sub	sp, #8
 8007c38:	af00      	add	r7, sp, #0
 8007c3a:	6078      	str	r0, [r7, #4]
  /* HCLK clock frequency */
  return __LL_RCC_CALC_HCLK_FREQ(SYSCLK_Frequency, LL_RCC_GetAHBPrescaler());
 8007c3c:	f7ff ff4a 	bl	8007ad4 <LL_RCC_GetAHBPrescaler>
 8007c40:	4603      	mov	r3, r0
 8007c42:	091b      	lsrs	r3, r3, #4
 8007c44:	f003 030f 	and.w	r3, r3, #15
 8007c48:	4a04      	ldr	r2, [pc, #16]	; (8007c5c <RCC_GetHCLKClockFreq+0x28>)
 8007c4a:	5cd3      	ldrb	r3, [r2, r3]
 8007c4c:	461a      	mov	r2, r3
 8007c4e:	687b      	ldr	r3, [r7, #4]
 8007c50:	40d3      	lsrs	r3, r2
}
 8007c52:	4618      	mov	r0, r3
 8007c54:	3708      	adds	r7, #8
 8007c56:	46bd      	mov	sp, r7
 8007c58:	bd80      	pop	{r7, pc}
 8007c5a:	bf00      	nop
 8007c5c:	08008834 	.word	0x08008834

08007c60 <RCC_GetPCLK1ClockFreq>:
  * @brief  Return PCLK1 clock frequency
  * @param  HCLK_Frequency HCLK clock frequency
  * @retval PCLK1 clock frequency (in Hz)
  */
uint32_t RCC_GetPCLK1ClockFreq(uint32_t HCLK_Frequency)
{
 8007c60:	b580      	push	{r7, lr}
 8007c62:	b082      	sub	sp, #8
 8007c64:	af00      	add	r7, sp, #0
 8007c66:	6078      	str	r0, [r7, #4]
  /* PCLK1 clock frequency */
  return __LL_RCC_CALC_PCLK1_FREQ(HCLK_Frequency, LL_RCC_GetAPB1Prescaler());
 8007c68:	f7ff ff42 	bl	8007af0 <LL_RCC_GetAPB1Prescaler>
 8007c6c:	4603      	mov	r3, r0
 8007c6e:	0a9b      	lsrs	r3, r3, #10
 8007c70:	4a04      	ldr	r2, [pc, #16]	; (8007c84 <RCC_GetPCLK1ClockFreq+0x24>)
 8007c72:	5cd3      	ldrb	r3, [r2, r3]
 8007c74:	461a      	mov	r2, r3
 8007c76:	687b      	ldr	r3, [r7, #4]
 8007c78:	40d3      	lsrs	r3, r2
}
 8007c7a:	4618      	mov	r0, r3
 8007c7c:	3708      	adds	r7, #8
 8007c7e:	46bd      	mov	sp, r7
 8007c80:	bd80      	pop	{r7, pc}
 8007c82:	bf00      	nop
 8007c84:	08008844 	.word	0x08008844

08007c88 <RCC_GetPCLK2ClockFreq>:
  * @brief  Return PCLK2 clock frequency
  * @param  HCLK_Frequency HCLK clock frequency
  * @retval PCLK2 clock frequency (in Hz)
  */
uint32_t RCC_GetPCLK2ClockFreq(uint32_t HCLK_Frequency)
{
 8007c88:	b580      	push	{r7, lr}
 8007c8a:	b082      	sub	sp, #8
 8007c8c:	af00      	add	r7, sp, #0
 8007c8e:	6078      	str	r0, [r7, #4]
  /* PCLK2 clock frequency */
  return __LL_RCC_CALC_PCLK2_FREQ(HCLK_Frequency, LL_RCC_GetAPB2Prescaler());
 8007c90:	f7ff ff3c 	bl	8007b0c <LL_RCC_GetAPB2Prescaler>
 8007c94:	4603      	mov	r3, r0
 8007c96:	0b5b      	lsrs	r3, r3, #13
 8007c98:	4a04      	ldr	r2, [pc, #16]	; (8007cac <RCC_GetPCLK2ClockFreq+0x24>)
 8007c9a:	5cd3      	ldrb	r3, [r2, r3]
 8007c9c:	461a      	mov	r2, r3
 8007c9e:	687b      	ldr	r3, [r7, #4]
 8007ca0:	40d3      	lsrs	r3, r2
}
 8007ca2:	4618      	mov	r0, r3
 8007ca4:	3708      	adds	r7, #8
 8007ca6:	46bd      	mov	sp, r7
 8007ca8:	bd80      	pop	{r7, pc}
 8007caa:	bf00      	nop
 8007cac:	08008844 	.word	0x08008844

08007cb0 <RCC_PLL_GetFreqDomain_SYS>:
  * @brief  Return PLL clock frequency used for system domain
  * @param  SYSCLK_Source System clock source
  * @retval PLL clock frequency (in Hz)
  */
uint32_t RCC_PLL_GetFreqDomain_SYS(uint32_t SYSCLK_Source)
{
 8007cb0:	b590      	push	{r4, r7, lr}
 8007cb2:	b087      	sub	sp, #28
 8007cb4:	af00      	add	r7, sp, #0
 8007cb6:	6078      	str	r0, [r7, #4]
  uint32_t pllinputfreq = 0U, pllsource = 0U, plloutputfreq = 0U;
 8007cb8:	2300      	movs	r3, #0
 8007cba:	617b      	str	r3, [r7, #20]
 8007cbc:	2300      	movs	r3, #0
 8007cbe:	60fb      	str	r3, [r7, #12]
 8007cc0:	2300      	movs	r3, #0
 8007cc2:	613b      	str	r3, [r7, #16]

  /* PLL_VCO = (HSE_VALUE or HSI_VALUE / PLLM) * PLLN
     SYSCLK = PLL_VCO / (PLLP or PLLR)
  */
  pllsource = LL_RCC_PLL_GetMainSource();
 8007cc4:	f7ff ff30 	bl	8007b28 <LL_RCC_PLL_GetMainSource>
 8007cc8:	60f8      	str	r0, [r7, #12]

  switch (pllsource)
 8007cca:	68fb      	ldr	r3, [r7, #12]
 8007ccc:	2b00      	cmp	r3, #0
 8007cce:	d004      	beq.n	8007cda <RCC_PLL_GetFreqDomain_SYS+0x2a>
 8007cd0:	68fb      	ldr	r3, [r7, #12]
 8007cd2:	f5b3 0f80 	cmp.w	r3, #4194304	; 0x400000
 8007cd6:	d003      	beq.n	8007ce0 <RCC_PLL_GetFreqDomain_SYS+0x30>
 8007cd8:	e005      	b.n	8007ce6 <RCC_PLL_GetFreqDomain_SYS+0x36>
  {
    case LL_RCC_PLLSOURCE_HSI:  /* HSI used as PLL clock source */
      pllinputfreq = HSI_VALUE;
 8007cda:	4b12      	ldr	r3, [pc, #72]	; (8007d24 <RCC_PLL_GetFreqDomain_SYS+0x74>)
 8007cdc:	617b      	str	r3, [r7, #20]
      break;
 8007cde:	e005      	b.n	8007cec <RCC_PLL_GetFreqDomain_SYS+0x3c>

    case LL_RCC_PLLSOURCE_HSE:  /* HSE used as PLL clock source */
      pllinputfreq = HSE_VALUE;
 8007ce0:	4b11      	ldr	r3, [pc, #68]	; (8007d28 <RCC_PLL_GetFreqDomain_SYS+0x78>)
 8007ce2:	617b      	str	r3, [r7, #20]
      break;
 8007ce4:	e002      	b.n	8007cec <RCC_PLL_GetFreqDomain_SYS+0x3c>

    default:
      pllinputfreq = HSI_VALUE;
 8007ce6:	4b0f      	ldr	r3, [pc, #60]	; (8007d24 <RCC_PLL_GetFreqDomain_SYS+0x74>)
 8007ce8:	617b      	str	r3, [r7, #20]
      break;
 8007cea:	bf00      	nop
  }

  if (SYSCLK_Source == LL_RCC_SYS_CLKSOURCE_STATUS_PLL)
 8007cec:	687b      	ldr	r3, [r7, #4]
 8007cee:	2b08      	cmp	r3, #8
 8007cf0:	d113      	bne.n	8007d1a <RCC_PLL_GetFreqDomain_SYS+0x6a>
  {
    plloutputfreq = __LL_RCC_CALC_PLLCLK_FREQ(pllinputfreq, LL_RCC_PLL_GetDivider(),
 8007cf2:	f7ff ff43 	bl	8007b7c <LL_RCC_PLL_GetDivider>
 8007cf6:	4602      	mov	r2, r0
 8007cf8:	697b      	ldr	r3, [r7, #20]
 8007cfa:	fbb3 f4f2 	udiv	r4, r3, r2
 8007cfe:	f7ff ff21 	bl	8007b44 <LL_RCC_PLL_GetN>
 8007d02:	4603      	mov	r3, r0
 8007d04:	fb03 f404 	mul.w	r4, r3, r4
 8007d08:	f7ff ff2a 	bl	8007b60 <LL_RCC_PLL_GetP>
 8007d0c:	4603      	mov	r3, r0
 8007d0e:	0c1b      	lsrs	r3, r3, #16
 8007d10:	3301      	adds	r3, #1
 8007d12:	005b      	lsls	r3, r3, #1
 8007d14:	fbb4 f3f3 	udiv	r3, r4, r3
 8007d18:	613b      	str	r3, [r7, #16]
    plloutputfreq = __LL_RCC_CALC_PLLRCLK_FREQ(pllinputfreq, LL_RCC_PLL_GetDivider(),
                                        LL_RCC_PLL_GetN(), LL_RCC_PLL_GetR());
  }
#endif /* RCC_PLLR_SYSCLK_SUPPORT */

  return plloutputfreq;
 8007d1a:	693b      	ldr	r3, [r7, #16]
}
 8007d1c:	4618      	mov	r0, r3
 8007d1e:	371c      	adds	r7, #28
 8007d20:	46bd      	mov	sp, r7
 8007d22:	bd90      	pop	{r4, r7, pc}
 8007d24:	00f42400 	.word	0x00f42400
 8007d28:	017d7840 	.word	0x017d7840

08007d2c <LL_TIM_SetPrescaler>:
{
 8007d2c:	b480      	push	{r7}
 8007d2e:	b083      	sub	sp, #12
 8007d30:	af00      	add	r7, sp, #0
 8007d32:	6078      	str	r0, [r7, #4]
 8007d34:	6039      	str	r1, [r7, #0]
  WRITE_REG(TIMx->PSC, Prescaler);
 8007d36:	687b      	ldr	r3, [r7, #4]
 8007d38:	683a      	ldr	r2, [r7, #0]
 8007d3a:	629a      	str	r2, [r3, #40]	; 0x28
}
 8007d3c:	bf00      	nop
 8007d3e:	370c      	adds	r7, #12
 8007d40:	46bd      	mov	sp, r7
 8007d42:	f85d 7b04 	ldr.w	r7, [sp], #4
 8007d46:	4770      	bx	lr

08007d48 <LL_TIM_SetAutoReload>:
{
 8007d48:	b480      	push	{r7}
 8007d4a:	b083      	sub	sp, #12
 8007d4c:	af00      	add	r7, sp, #0
 8007d4e:	6078      	str	r0, [r7, #4]
 8007d50:	6039      	str	r1, [r7, #0]
  WRITE_REG(TIMx->ARR, AutoReload);
 8007d52:	687b      	ldr	r3, [r7, #4]
 8007d54:	683a      	ldr	r2, [r7, #0]
 8007d56:	62da      	str	r2, [r3, #44]	; 0x2c
}
 8007d58:	bf00      	nop
 8007d5a:	370c      	adds	r7, #12
 8007d5c:	46bd      	mov	sp, r7
 8007d5e:	f85d 7b04 	ldr.w	r7, [sp], #4
 8007d62:	4770      	bx	lr

08007d64 <LL_TIM_SetRepetitionCounter>:
{
 8007d64:	b480      	push	{r7}
 8007d66:	b083      	sub	sp, #12
 8007d68:	af00      	add	r7, sp, #0
 8007d6a:	6078      	str	r0, [r7, #4]
 8007d6c:	6039      	str	r1, [r7, #0]
  WRITE_REG(TIMx->RCR, RepetitionCounter);
 8007d6e:	687b      	ldr	r3, [r7, #4]
 8007d70:	683a      	ldr	r2, [r7, #0]
 8007d72:	631a      	str	r2, [r3, #48]	; 0x30
}
 8007d74:	bf00      	nop
 8007d76:	370c      	adds	r7, #12
 8007d78:	46bd      	mov	sp, r7
 8007d7a:	f85d 7b04 	ldr.w	r7, [sp], #4
 8007d7e:	4770      	bx	lr

08007d80 <LL_TIM_OC_SetCompareCH1>:
{
 8007d80:	b480      	push	{r7}
 8007d82:	b083      	sub	sp, #12
 8007d84:	af00      	add	r7, sp, #0
 8007d86:	6078      	str	r0, [r7, #4]
 8007d88:	6039      	str	r1, [r7, #0]
  WRITE_REG(TIMx->CCR1, CompareValue);
 8007d8a:	687b      	ldr	r3, [r7, #4]
 8007d8c:	683a      	ldr	r2, [r7, #0]
 8007d8e:	635a      	str	r2, [r3, #52]	; 0x34
}
 8007d90:	bf00      	nop
 8007d92:	370c      	adds	r7, #12
 8007d94:	46bd      	mov	sp, r7
 8007d96:	f85d 7b04 	ldr.w	r7, [sp], #4
 8007d9a:	4770      	bx	lr

08007d9c <LL_TIM_OC_SetCompareCH2>:
{
 8007d9c:	b480      	push	{r7}
 8007d9e:	b083      	sub	sp, #12
 8007da0:	af00      	add	r7, sp, #0
 8007da2:	6078      	str	r0, [r7, #4]
 8007da4:	6039      	str	r1, [r7, #0]
  WRITE_REG(TIMx->CCR2, CompareValue);
 8007da6:	687b      	ldr	r3, [r7, #4]
 8007da8:	683a      	ldr	r2, [r7, #0]
 8007daa:	639a      	str	r2, [r3, #56]	; 0x38
}
 8007dac:	bf00      	nop
 8007dae:	370c      	adds	r7, #12
 8007db0:	46bd      	mov	sp, r7
 8007db2:	f85d 7b04 	ldr.w	r7, [sp], #4
 8007db6:	4770      	bx	lr

08007db8 <LL_TIM_OC_SetCompareCH3>:
{
 8007db8:	b480      	push	{r7}
 8007dba:	b083      	sub	sp, #12
 8007dbc:	af00      	add	r7, sp, #0
 8007dbe:	6078      	str	r0, [r7, #4]
 8007dc0:	6039      	str	r1, [r7, #0]
  WRITE_REG(TIMx->CCR3, CompareValue);
 8007dc2:	687b      	ldr	r3, [r7, #4]
 8007dc4:	683a      	ldr	r2, [r7, #0]
 8007dc6:	63da      	str	r2, [r3, #60]	; 0x3c
}
 8007dc8:	bf00      	nop
 8007dca:	370c      	adds	r7, #12
 8007dcc:	46bd      	mov	sp, r7
 8007dce:	f85d 7b04 	ldr.w	r7, [sp], #4
 8007dd2:	4770      	bx	lr

08007dd4 <LL_TIM_OC_SetCompareCH4>:
{
 8007dd4:	b480      	push	{r7}
 8007dd6:	b083      	sub	sp, #12
 8007dd8:	af00      	add	r7, sp, #0
 8007dda:	6078      	str	r0, [r7, #4]
 8007ddc:	6039      	str	r1, [r7, #0]
  WRITE_REG(TIMx->CCR4, CompareValue);
 8007dde:	687b      	ldr	r3, [r7, #4]
 8007de0:	683a      	ldr	r2, [r7, #0]
 8007de2:	641a      	str	r2, [r3, #64]	; 0x40
}
 8007de4:	bf00      	nop
 8007de6:	370c      	adds	r7, #12
 8007de8:	46bd      	mov	sp, r7
 8007dea:	f85d 7b04 	ldr.w	r7, [sp], #4
 8007dee:	4770      	bx	lr

08007df0 <LL_TIM_GenerateEvent_UPDATE>:
  * @rmtoll EGR          UG            LL_TIM_GenerateEvent_UPDATE
  * @param  TIMx Timer instance
  * @retval None
  */
__STATIC_INLINE void LL_TIM_GenerateEvent_UPDATE(TIM_TypeDef *TIMx)
{
 8007df0:	b480      	push	{r7}
 8007df2:	b083      	sub	sp, #12
 8007df4:	af00      	add	r7, sp, #0
 8007df6:	6078      	str	r0, [r7, #4]
  SET_BIT(TIMx->EGR, TIM_EGR_UG);
 8007df8:	687b      	ldr	r3, [r7, #4]
 8007dfa:	695b      	ldr	r3, [r3, #20]
 8007dfc:	f043 0201 	orr.w	r2, r3, #1
 8007e00:	687b      	ldr	r3, [r7, #4]
 8007e02:	615a      	str	r2, [r3, #20]
}
 8007e04:	bf00      	nop
 8007e06:	370c      	adds	r7, #12
 8007e08:	46bd      	mov	sp, r7
 8007e0a:	f85d 7b04 	ldr.w	r7, [sp], #4
 8007e0e:	4770      	bx	lr

08007e10 <LL_TIM_Init>:
  * @retval An ErrorStatus enumeration value:
  *          - SUCCESS: TIMx registers are de-initialized
  *          - ERROR: not applicable
  */
ErrorStatus LL_TIM_Init(TIM_TypeDef *TIMx, LL_TIM_InitTypeDef *TIM_InitStruct)
{
 8007e10:	b580      	push	{r7, lr}
 8007e12:	b084      	sub	sp, #16
 8007e14:	af00      	add	r7, sp, #0
 8007e16:	6078      	str	r0, [r7, #4]
 8007e18:	6039      	str	r1, [r7, #0]
  /* Check the parameters */
  assert_param(IS_TIM_INSTANCE(TIMx));
  assert_param(IS_LL_TIM_COUNTERMODE(TIM_InitStruct->CounterMode));
  assert_param(IS_LL_TIM_CLOCKDIVISION(TIM_InitStruct->ClockDivision));

  tmpcr1 = LL_TIM_ReadReg(TIMx, CR1);
 8007e1a:	687b      	ldr	r3, [r7, #4]
 8007e1c:	681b      	ldr	r3, [r3, #0]
 8007e1e:	60fb      	str	r3, [r7, #12]

  if (IS_TIM_COUNTER_MODE_SELECT_INSTANCE(TIMx))
 8007e20:	687b      	ldr	r3, [r7, #4]
 8007e22:	4a31      	ldr	r2, [pc, #196]	; (8007ee8 <LL_TIM_Init+0xd8>)
 8007e24:	4293      	cmp	r3, r2
 8007e26:	d00f      	beq.n	8007e48 <LL_TIM_Init+0x38>
 8007e28:	687b      	ldr	r3, [r7, #4]
 8007e2a:	f1b3 4f80 	cmp.w	r3, #1073741824	; 0x40000000
 8007e2e:	d00b      	beq.n	8007e48 <LL_TIM_Init+0x38>
 8007e30:	687b      	ldr	r3, [r7, #4]
 8007e32:	4a2e      	ldr	r2, [pc, #184]	; (8007eec <LL_TIM_Init+0xdc>)
 8007e34:	4293      	cmp	r3, r2
 8007e36:	d007      	beq.n	8007e48 <LL_TIM_Init+0x38>
 8007e38:	687b      	ldr	r3, [r7, #4]
 8007e3a:	4a2d      	ldr	r2, [pc, #180]	; (8007ef0 <LL_TIM_Init+0xe0>)
 8007e3c:	4293      	cmp	r3, r2
 8007e3e:	d003      	beq.n	8007e48 <LL_TIM_Init+0x38>
 8007e40:	687b      	ldr	r3, [r7, #4]
 8007e42:	4a2c      	ldr	r2, [pc, #176]	; (8007ef4 <LL_TIM_Init+0xe4>)
 8007e44:	4293      	cmp	r3, r2
 8007e46:	d106      	bne.n	8007e56 <LL_TIM_Init+0x46>
  {
    /* Select the Counter Mode */
    MODIFY_REG(tmpcr1, (TIM_CR1_DIR | TIM_CR1_CMS), TIM_InitStruct->CounterMode);
 8007e48:	68fb      	ldr	r3, [r7, #12]
 8007e4a:	f023 0270 	bic.w	r2, r3, #112	; 0x70
 8007e4e:	683b      	ldr	r3, [r7, #0]
 8007e50:	685b      	ldr	r3, [r3, #4]
 8007e52:	4313      	orrs	r3, r2
 8007e54:	60fb      	str	r3, [r7, #12]
  }

  if (IS_TIM_CLOCK_DIVISION_INSTANCE(TIMx))
 8007e56:	687b      	ldr	r3, [r7, #4]
 8007e58:	4a23      	ldr	r2, [pc, #140]	; (8007ee8 <LL_TIM_Init+0xd8>)
 8007e5a:	4293      	cmp	r3, r2
 8007e5c:	d01b      	beq.n	8007e96 <LL_TIM_Init+0x86>
 8007e5e:	687b      	ldr	r3, [r7, #4]
 8007e60:	f1b3 4f80 	cmp.w	r3, #1073741824	; 0x40000000
 8007e64:	d017      	beq.n	8007e96 <LL_TIM_Init+0x86>
 8007e66:	687b      	ldr	r3, [r7, #4]
 8007e68:	4a20      	ldr	r2, [pc, #128]	; (8007eec <LL_TIM_Init+0xdc>)
 8007e6a:	4293      	cmp	r3, r2
 8007e6c:	d013      	beq.n	8007e96 <LL_TIM_Init+0x86>
 8007e6e:	687b      	ldr	r3, [r7, #4]
 8007e70:	4a1f      	ldr	r2, [pc, #124]	; (8007ef0 <LL_TIM_Init+0xe0>)
 8007e72:	4293      	cmp	r3, r2
 8007e74:	d00f      	beq.n	8007e96 <LL_TIM_Init+0x86>
 8007e76:	687b      	ldr	r3, [r7, #4]
 8007e78:	4a1e      	ldr	r2, [pc, #120]	; (8007ef4 <LL_TIM_Init+0xe4>)
 8007e7a:	4293      	cmp	r3, r2
 8007e7c:	d00b      	beq.n	8007e96 <LL_TIM_Init+0x86>
 8007e7e:	687b      	ldr	r3, [r7, #4]
 8007e80:	4a1d      	ldr	r2, [pc, #116]	; (8007ef8 <LL_TIM_Init+0xe8>)
 8007e82:	4293      	cmp	r3, r2
 8007e84:	d007      	beq.n	8007e96 <LL_TIM_Init+0x86>
 8007e86:	687b      	ldr	r3, [r7, #4]
 8007e88:	4a1c      	ldr	r2, [pc, #112]	; (8007efc <LL_TIM_Init+0xec>)
 8007e8a:	4293      	cmp	r3, r2
 8007e8c:	d003      	beq.n	8007e96 <LL_TIM_Init+0x86>
 8007e8e:	687b      	ldr	r3, [r7, #4]
 8007e90:	4a1b      	ldr	r2, [pc, #108]	; (8007f00 <LL_TIM_Init+0xf0>)
 8007e92:	4293      	cmp	r3, r2
 8007e94:	d106      	bne.n	8007ea4 <LL_TIM_Init+0x94>
  {
    /* Set the clock division */
    MODIFY_REG(tmpcr1, TIM_CR1_CKD, TIM_InitStruct->ClockDivision);
 8007e96:	68fb      	ldr	r3, [r7, #12]
 8007e98:	f423 7240 	bic.w	r2, r3, #768	; 0x300
 8007e9c:	683b      	ldr	r3, [r7, #0]
 8007e9e:	68db      	ldr	r3, [r3, #12]
 8007ea0:	4313      	orrs	r3, r2
 8007ea2:	60fb      	str	r3, [r7, #12]
  }

  /* Write to TIMx CR1 */
  LL_TIM_WriteReg(TIMx, CR1, tmpcr1);
 8007ea4:	687b      	ldr	r3, [r7, #4]
 8007ea6:	68fa      	ldr	r2, [r7, #12]
 8007ea8:	601a      	str	r2, [r3, #0]

  /* Set the Autoreload value */
  LL_TIM_SetAutoReload(TIMx, TIM_InitStruct->Autoreload);
 8007eaa:	683b      	ldr	r3, [r7, #0]
 8007eac:	689b      	ldr	r3, [r3, #8]
 8007eae:	4619      	mov	r1, r3
 8007eb0:	6878      	ldr	r0, [r7, #4]
 8007eb2:	f7ff ff49 	bl	8007d48 <LL_TIM_SetAutoReload>

  /* Set the Prescaler value */
  LL_TIM_SetPrescaler(TIMx, TIM_InitStruct->Prescaler);
 8007eb6:	683b      	ldr	r3, [r7, #0]
 8007eb8:	881b      	ldrh	r3, [r3, #0]
 8007eba:	4619      	mov	r1, r3
 8007ebc:	6878      	ldr	r0, [r7, #4]
 8007ebe:	f7ff ff35 	bl	8007d2c <LL_TIM_SetPrescaler>

  if (IS_TIM_REPETITION_COUNTER_INSTANCE(TIMx))
 8007ec2:	687b      	ldr	r3, [r7, #4]
 8007ec4:	4a08      	ldr	r2, [pc, #32]	; (8007ee8 <LL_TIM_Init+0xd8>)
 8007ec6:	4293      	cmp	r3, r2
 8007ec8:	d105      	bne.n	8007ed6 <LL_TIM_Init+0xc6>
  {
    /* Set the Repetition Counter value */
    LL_TIM_SetRepetitionCounter(TIMx, TIM_InitStruct->RepetitionCounter);
 8007eca:	683b      	ldr	r3, [r7, #0]
 8007ecc:	691b      	ldr	r3, [r3, #16]
 8007ece:	4619      	mov	r1, r3
 8007ed0:	6878      	ldr	r0, [r7, #4]
 8007ed2:	f7ff ff47 	bl	8007d64 <LL_TIM_SetRepetitionCounter>
  }

  /* Generate an update event to reload the Prescaler
     and the repetition counter value (if applicable) immediately */
  LL_TIM_GenerateEvent_UPDATE(TIMx);
 8007ed6:	6878      	ldr	r0, [r7, #4]
 8007ed8:	f7ff ff8a 	bl	8007df0 <LL_TIM_GenerateEvent_UPDATE>

  return SUCCESS;
 8007edc:	2300      	movs	r3, #0
}
 8007ede:	4618      	mov	r0, r3
 8007ee0:	3710      	adds	r7, #16
 8007ee2:	46bd      	mov	sp, r7
 8007ee4:	bd80      	pop	{r7, pc}
 8007ee6:	bf00      	nop
 8007ee8:	40010000 	.word	0x40010000
 8007eec:	40000400 	.word	0x40000400
 8007ef0:	40000800 	.word	0x40000800
 8007ef4:	40000c00 	.word	0x40000c00
 8007ef8:	40014000 	.word	0x40014000
 8007efc:	40014400 	.word	0x40014400
 8007f00:	40014800 	.word	0x40014800

08007f04 <LL_TIM_OC_Init>:
  * @retval An ErrorStatus enumeration value:
  *          - SUCCESS: TIMx output channel is initialized
  *          - ERROR: TIMx output channel is not initialized
  */
ErrorStatus LL_TIM_OC_Init(TIM_TypeDef *TIMx, uint32_t Channel, LL_TIM_OC_InitTypeDef *TIM_OC_InitStruct)
{
 8007f04:	b580      	push	{r7, lr}
 8007f06:	b086      	sub	sp, #24
 8007f08:	af00      	add	r7, sp, #0
 8007f0a:	60f8      	str	r0, [r7, #12]
 8007f0c:	60b9      	str	r1, [r7, #8]
 8007f0e:	607a      	str	r2, [r7, #4]
  ErrorStatus result = ERROR;
 8007f10:	2301      	movs	r3, #1
 8007f12:	75fb      	strb	r3, [r7, #23]

  switch (Channel)
 8007f14:	68bb      	ldr	r3, [r7, #8]
 8007f16:	f5b3 5f80 	cmp.w	r3, #4096	; 0x1000
 8007f1a:	d027      	beq.n	8007f6c <LL_TIM_OC_Init+0x68>
 8007f1c:	68bb      	ldr	r3, [r7, #8]
 8007f1e:	f5b3 5f80 	cmp.w	r3, #4096	; 0x1000
 8007f22:	d82a      	bhi.n	8007f7a <LL_TIM_OC_Init+0x76>
 8007f24:	68bb      	ldr	r3, [r7, #8]
 8007f26:	f5b3 7f80 	cmp.w	r3, #256	; 0x100
 8007f2a:	d018      	beq.n	8007f5e <LL_TIM_OC_Init+0x5a>
 8007f2c:	68bb      	ldr	r3, [r7, #8]
 8007f2e:	f5b3 7f80 	cmp.w	r3, #256	; 0x100
 8007f32:	d822      	bhi.n	8007f7a <LL_TIM_OC_Init+0x76>
 8007f34:	68bb      	ldr	r3, [r7, #8]
 8007f36:	2b01      	cmp	r3, #1
 8007f38:	d003      	beq.n	8007f42 <LL_TIM_OC_Init+0x3e>
 8007f3a:	68bb      	ldr	r3, [r7, #8]
 8007f3c:	2b10      	cmp	r3, #16
 8007f3e:	d007      	beq.n	8007f50 <LL_TIM_OC_Init+0x4c>
      break;
    case LL_TIM_CHANNEL_CH4:
      result = OC4Config(TIMx, TIM_OC_InitStruct);
      break;
    default:
      break;
 8007f40:	e01b      	b.n	8007f7a <LL_TIM_OC_Init+0x76>
      result = OC1Config(TIMx, TIM_OC_InitStruct);
 8007f42:	6879      	ldr	r1, [r7, #4]
 8007f44:	68f8      	ldr	r0, [r7, #12]
 8007f46:	f000 f867 	bl	8008018 <OC1Config>
 8007f4a:	4603      	mov	r3, r0
 8007f4c:	75fb      	strb	r3, [r7, #23]
      break;
 8007f4e:	e015      	b.n	8007f7c <LL_TIM_OC_Init+0x78>
      result = OC2Config(TIMx, TIM_OC_InitStruct);
 8007f50:	6879      	ldr	r1, [r7, #4]
 8007f52:	68f8      	ldr	r0, [r7, #12]
 8007f54:	f000 f8c6 	bl	80080e4 <OC2Config>
 8007f58:	4603      	mov	r3, r0
 8007f5a:	75fb      	strb	r3, [r7, #23]
      break;
 8007f5c:	e00e      	b.n	8007f7c <LL_TIM_OC_Init+0x78>
      result = OC3Config(TIMx, TIM_OC_InitStruct);
 8007f5e:	6879      	ldr	r1, [r7, #4]
 8007f60:	68f8      	ldr	r0, [r7, #12]
 8007f62:	f000 f929 	bl	80081b8 <OC3Config>
 8007f66:	4603      	mov	r3, r0
 8007f68:	75fb      	strb	r3, [r7, #23]
      break;
 8007f6a:	e007      	b.n	8007f7c <LL_TIM_OC_Init+0x78>
      result = OC4Config(TIMx, TIM_OC_InitStruct);
 8007f6c:	6879      	ldr	r1, [r7, #4]
 8007f6e:	68f8      	ldr	r0, [r7, #12]
 8007f70:	f000 f98c 	bl	800828c <OC4Config>
 8007f74:	4603      	mov	r3, r0
 8007f76:	75fb      	strb	r3, [r7, #23]
      break;
 8007f78:	e000      	b.n	8007f7c <LL_TIM_OC_Init+0x78>
      break;
 8007f7a:	bf00      	nop
  }

  return result;
 8007f7c:	7dfb      	ldrb	r3, [r7, #23]
}
 8007f7e:	4618      	mov	r0, r3
 8007f80:	3718      	adds	r7, #24
 8007f82:	46bd      	mov	sp, r7
 8007f84:	bd80      	pop	{r7, pc}

08007f86 <LL_TIM_BDTR_Init>:
  * @retval An ErrorStatus enumeration value:
  *          - SUCCESS: Break and Dead Time is initialized
  *          - ERROR: not applicable
  */
ErrorStatus LL_TIM_BDTR_Init(TIM_TypeDef *TIMx, LL_TIM_BDTR_InitTypeDef *TIM_BDTRInitStruct)
{
 8007f86:	b480      	push	{r7}
 8007f88:	b085      	sub	sp, #20
 8007f8a:	af00      	add	r7, sp, #0
 8007f8c:	6078      	str	r0, [r7, #4]
 8007f8e:	6039      	str	r1, [r7, #0]
  uint32_t tmpbdtr = 0;
 8007f90:	2300      	movs	r3, #0
 8007f92:	60fb      	str	r3, [r7, #12]

  /* Set the Lock level, the Break enable Bit and the Polarity, the OSSR State,
  the OSSI State, the dead time value and the Automatic Output Enable Bit */

  /* Set the BDTR bits */
  MODIFY_REG(tmpbdtr, TIM_BDTR_DTG, TIM_BDTRInitStruct->DeadTime);
 8007f94:	68fb      	ldr	r3, [r7, #12]
 8007f96:	f023 03ff 	bic.w	r3, r3, #255	; 0xff
 8007f9a:	683a      	ldr	r2, [r7, #0]
 8007f9c:	7b12      	ldrb	r2, [r2, #12]
 8007f9e:	4313      	orrs	r3, r2
 8007fa0:	60fb      	str	r3, [r7, #12]
  MODIFY_REG(tmpbdtr, TIM_BDTR_LOCK, TIM_BDTRInitStruct->LockLevel);
 8007fa2:	68fb      	ldr	r3, [r7, #12]
 8007fa4:	f423 7240 	bic.w	r2, r3, #768	; 0x300
 8007fa8:	683b      	ldr	r3, [r7, #0]
 8007faa:	689b      	ldr	r3, [r3, #8]
 8007fac:	4313      	orrs	r3, r2
 8007fae:	60fb      	str	r3, [r7, #12]
  MODIFY_REG(tmpbdtr, TIM_BDTR_OSSI, TIM_BDTRInitStruct->OSSIState);
 8007fb0:	68fb      	ldr	r3, [r7, #12]
 8007fb2:	f423 6280 	bic.w	r2, r3, #1024	; 0x400
 8007fb6:	683b      	ldr	r3, [r7, #0]
 8007fb8:	685b      	ldr	r3, [r3, #4]
 8007fba:	4313      	orrs	r3, r2
 8007fbc:	60fb      	str	r3, [r7, #12]
  MODIFY_REG(tmpbdtr, TIM_BDTR_OSSR, TIM_BDTRInitStruct->OSSRState);
 8007fbe:	68fb      	ldr	r3, [r7, #12]
 8007fc0:	f423 6200 	bic.w	r2, r3, #2048	; 0x800
 8007fc4:	683b      	ldr	r3, [r7, #0]
 8007fc6:	681b      	ldr	r3, [r3, #0]
 8007fc8:	4313      	orrs	r3, r2
 8007fca:	60fb      	str	r3, [r7, #12]
  MODIFY_REG(tmpbdtr, TIM_BDTR_BKE, TIM_BDTRInitStruct->BreakState);
 8007fcc:	68fb      	ldr	r3, [r7, #12]
 8007fce:	f423 5380 	bic.w	r3, r3, #4096	; 0x1000
 8007fd2:	683a      	ldr	r2, [r7, #0]
 8007fd4:	89d2      	ldrh	r2, [r2, #14]
 8007fd6:	4313      	orrs	r3, r2
 8007fd8:	60fb      	str	r3, [r7, #12]
  MODIFY_REG(tmpbdtr, TIM_BDTR_BKP, TIM_BDTRInitStruct->BreakPolarity);
 8007fda:	68fb      	ldr	r3, [r7, #12]
 8007fdc:	f423 5200 	bic.w	r2, r3, #8192	; 0x2000
 8007fe0:	683b      	ldr	r3, [r7, #0]
 8007fe2:	691b      	ldr	r3, [r3, #16]
 8007fe4:	4313      	orrs	r3, r2
 8007fe6:	60fb      	str	r3, [r7, #12]
  MODIFY_REG(tmpbdtr, TIM_BDTR_AOE, TIM_BDTRInitStruct->AutomaticOutput);
 8007fe8:	68fb      	ldr	r3, [r7, #12]
 8007fea:	f423 4280 	bic.w	r2, r3, #16384	; 0x4000
 8007fee:	683b      	ldr	r3, [r7, #0]
 8007ff0:	695b      	ldr	r3, [r3, #20]
 8007ff2:	4313      	orrs	r3, r2
 8007ff4:	60fb      	str	r3, [r7, #12]
  MODIFY_REG(tmpbdtr, TIM_BDTR_MOE, TIM_BDTRInitStruct->AutomaticOutput);
 8007ff6:	68fb      	ldr	r3, [r7, #12]
 8007ff8:	f423 4200 	bic.w	r2, r3, #32768	; 0x8000
 8007ffc:	683b      	ldr	r3, [r7, #0]
 8007ffe:	695b      	ldr	r3, [r3, #20]
 8008000:	4313      	orrs	r3, r2
 8008002:	60fb      	str	r3, [r7, #12]

  /* Set TIMx_BDTR */
  LL_TIM_WriteReg(TIMx, BDTR, tmpbdtr);
 8008004:	687b      	ldr	r3, [r7, #4]
 8008006:	68fa      	ldr	r2, [r7, #12]
 8008008:	645a      	str	r2, [r3, #68]	; 0x44

  return SUCCESS;
 800800a:	2300      	movs	r3, #0
}
 800800c:	4618      	mov	r0, r3
 800800e:	3714      	adds	r7, #20
 8008010:	46bd      	mov	sp, r7
 8008012:	f85d 7b04 	ldr.w	r7, [sp], #4
 8008016:	4770      	bx	lr

08008018 <OC1Config>:
  * @retval An ErrorStatus enumeration value:
  *          - SUCCESS: TIMx registers are de-initialized
  *          - ERROR: not applicable
  */
static ErrorStatus OC1Config(TIM_TypeDef *TIMx, LL_TIM_OC_InitTypeDef *TIM_OCInitStruct)
{
 8008018:	b580      	push	{r7, lr}
 800801a:	b086      	sub	sp, #24
 800801c:	af00      	add	r7, sp, #0
 800801e:	6078      	str	r0, [r7, #4]
 8008020:	6039      	str	r1, [r7, #0]
  assert_param(IS_LL_TIM_OCPOLARITY(TIM_OCInitStruct->OCPolarity));
  assert_param(IS_LL_TIM_OCSTATE(TIM_OCInitStruct->OCNState));
  assert_param(IS_LL_TIM_OCPOLARITY(TIM_OCInitStruct->OCNPolarity));

  /* Disable the Channel 1: Reset the CC1E Bit */
  CLEAR_BIT(TIMx->CCER, TIM_CCER_CC1E);
 8008022:	687b      	ldr	r3, [r7, #4]
 8008024:	6a1b      	ldr	r3, [r3, #32]
 8008026:	f023 0201 	bic.w	r2, r3, #1
 800802a:	687b      	ldr	r3, [r7, #4]
 800802c:	621a      	str	r2, [r3, #32]

  /* Get the TIMx CCER register value */
  tmpccer = LL_TIM_ReadReg(TIMx, CCER);
 800802e:	687b      	ldr	r3, [r7, #4]
 8008030:	6a1b      	ldr	r3, [r3, #32]
 8008032:	617b      	str	r3, [r7, #20]

  /* Get the TIMx CR2 register value */
  tmpcr2 = LL_TIM_ReadReg(TIMx, CR2);
 8008034:	687b      	ldr	r3, [r7, #4]
 8008036:	685b      	ldr	r3, [r3, #4]
 8008038:	613b      	str	r3, [r7, #16]

  /* Get the TIMx CCMR1 register value */
  tmpccmr1 = LL_TIM_ReadReg(TIMx, CCMR1);
 800803a:	687b      	ldr	r3, [r7, #4]
 800803c:	699b      	ldr	r3, [r3, #24]
 800803e:	60fb      	str	r3, [r7, #12]

  /* Reset Capture/Compare selection Bits */
  CLEAR_BIT(tmpccmr1, TIM_CCMR1_CC1S);
 8008040:	68fb      	ldr	r3, [r7, #12]
 8008042:	f023 0303 	bic.w	r3, r3, #3
 8008046:	60fb      	str	r3, [r7, #12]

  /* Set the Output Compare Mode */
  MODIFY_REG(tmpccmr1, TIM_CCMR1_OC1M, TIM_OCInitStruct->OCMode);
 8008048:	68fb      	ldr	r3, [r7, #12]
 800804a:	f023 0270 	bic.w	r2, r3, #112	; 0x70
 800804e:	683b      	ldr	r3, [r7, #0]
 8008050:	681b      	ldr	r3, [r3, #0]
 8008052:	4313      	orrs	r3, r2
 8008054:	60fb      	str	r3, [r7, #12]

  /* Set the Output Compare Polarity */
  MODIFY_REG(tmpccer, TIM_CCER_CC1P, TIM_OCInitStruct->OCPolarity);
 8008056:	697b      	ldr	r3, [r7, #20]
 8008058:	f023 0202 	bic.w	r2, r3, #2
 800805c:	683b      	ldr	r3, [r7, #0]
 800805e:	691b      	ldr	r3, [r3, #16]
 8008060:	4313      	orrs	r3, r2
 8008062:	617b      	str	r3, [r7, #20]

  /* Set the Output State */
  MODIFY_REG(tmpccer, TIM_CCER_CC1E, TIM_OCInitStruct->OCState);
 8008064:	697b      	ldr	r3, [r7, #20]
 8008066:	f023 0201 	bic.w	r2, r3, #1
 800806a:	683b      	ldr	r3, [r7, #0]
 800806c:	685b      	ldr	r3, [r3, #4]
 800806e:	4313      	orrs	r3, r2
 8008070:	617b      	str	r3, [r7, #20]

  if (IS_TIM_BREAK_INSTANCE(TIMx))
 8008072:	687b      	ldr	r3, [r7, #4]
 8008074:	4a1a      	ldr	r2, [pc, #104]	; (80080e0 <OC1Config+0xc8>)
 8008076:	4293      	cmp	r3, r2
 8008078:	d11e      	bne.n	80080b8 <OC1Config+0xa0>
  {
    assert_param(IS_LL_TIM_OCIDLESTATE(TIM_OCInitStruct->OCNIdleState));
    assert_param(IS_LL_TIM_OCIDLESTATE(TIM_OCInitStruct->OCIdleState));

    /* Set the complementary output Polarity */
    MODIFY_REG(tmpccer, TIM_CCER_CC1NP, TIM_OCInitStruct->OCNPolarity << 2U);
 800807a:	697b      	ldr	r3, [r7, #20]
 800807c:	f023 0208 	bic.w	r2, r3, #8
 8008080:	683b      	ldr	r3, [r7, #0]
 8008082:	695b      	ldr	r3, [r3, #20]
 8008084:	009b      	lsls	r3, r3, #2
 8008086:	4313      	orrs	r3, r2
 8008088:	617b      	str	r3, [r7, #20]

    /* Set the complementary output State */
    MODIFY_REG(tmpccer, TIM_CCER_CC1NE, TIM_OCInitStruct->OCNState << 2U);
 800808a:	697b      	ldr	r3, [r7, #20]
 800808c:	f023 0204 	bic.w	r2, r3, #4
 8008090:	683b      	ldr	r3, [r7, #0]
 8008092:	689b      	ldr	r3, [r3, #8]
 8008094:	009b      	lsls	r3, r3, #2
 8008096:	4313      	orrs	r3, r2
 8008098:	617b      	str	r3, [r7, #20]

    /* Set the Output Idle state */
    MODIFY_REG(tmpcr2, TIM_CR2_OIS1, TIM_OCInitStruct->OCIdleState);
 800809a:	693b      	ldr	r3, [r7, #16]
 800809c:	f423 7280 	bic.w	r2, r3, #256	; 0x100
 80080a0:	683b      	ldr	r3, [r7, #0]
 80080a2:	699b      	ldr	r3, [r3, #24]
 80080a4:	4313      	orrs	r3, r2
 80080a6:	613b      	str	r3, [r7, #16]

    /* Set the complementary output Idle state */
    MODIFY_REG(tmpcr2, TIM_CR2_OIS1N, TIM_OCInitStruct->OCNIdleState << 1U);
 80080a8:	693b      	ldr	r3, [r7, #16]
 80080aa:	f423 7200 	bic.w	r2, r3, #512	; 0x200
 80080ae:	683b      	ldr	r3, [r7, #0]
 80080b0:	69db      	ldr	r3, [r3, #28]
 80080b2:	005b      	lsls	r3, r3, #1
 80080b4:	4313      	orrs	r3, r2
 80080b6:	613b      	str	r3, [r7, #16]
  }

  /* Write to TIMx CR2 */
  LL_TIM_WriteReg(TIMx, CR2, tmpcr2);
 80080b8:	687b      	ldr	r3, [r7, #4]
 80080ba:	693a      	ldr	r2, [r7, #16]
 80080bc:	605a      	str	r2, [r3, #4]

  /* Write to TIMx CCMR1 */
  LL_TIM_WriteReg(TIMx, CCMR1, tmpccmr1);
 80080be:	687b      	ldr	r3, [r7, #4]
 80080c0:	68fa      	ldr	r2, [r7, #12]
 80080c2:	619a      	str	r2, [r3, #24]

  /* Set the Capture Compare Register value */
  LL_TIM_OC_SetCompareCH1(TIMx, TIM_OCInitStruct->CompareValue);
 80080c4:	683b      	ldr	r3, [r7, #0]
 80080c6:	68db      	ldr	r3, [r3, #12]
 80080c8:	4619      	mov	r1, r3
 80080ca:	6878      	ldr	r0, [r7, #4]
 80080cc:	f7ff fe58 	bl	8007d80 <LL_TIM_OC_SetCompareCH1>

  /* Write to TIMx CCER */
  LL_TIM_WriteReg(TIMx, CCER, tmpccer);
 80080d0:	687b      	ldr	r3, [r7, #4]
 80080d2:	697a      	ldr	r2, [r7, #20]
 80080d4:	621a      	str	r2, [r3, #32]

  return SUCCESS;
 80080d6:	2300      	movs	r3, #0
}
 80080d8:	4618      	mov	r0, r3
 80080da:	3718      	adds	r7, #24
 80080dc:	46bd      	mov	sp, r7
 80080de:	bd80      	pop	{r7, pc}
 80080e0:	40010000 	.word	0x40010000

080080e4 <OC2Config>:
  * @retval An ErrorStatus enumeration value:
  *          - SUCCESS: TIMx registers are de-initialized
  *          - ERROR: not applicable
  */
static ErrorStatus OC2Config(TIM_TypeDef *TIMx, LL_TIM_OC_InitTypeDef *TIM_OCInitStruct)
{
 80080e4:	b580      	push	{r7, lr}
 80080e6:	b086      	sub	sp, #24
 80080e8:	af00      	add	r7, sp, #0
 80080ea:	6078      	str	r0, [r7, #4]
 80080ec:	6039      	str	r1, [r7, #0]
  assert_param(IS_LL_TIM_OCPOLARITY(TIM_OCInitStruct->OCPolarity));
  assert_param(IS_LL_TIM_OCSTATE(TIM_OCInitStruct->OCNState));
  assert_param(IS_LL_TIM_OCPOLARITY(TIM_OCInitStruct->OCNPolarity));

  /* Disable the Channel 2: Reset the CC2E Bit */
  CLEAR_BIT(TIMx->CCER, TIM_CCER_CC2E);
 80080ee:	687b      	ldr	r3, [r7, #4]
 80080f0:	6a1b      	ldr	r3, [r3, #32]
 80080f2:	f023 0210 	bic.w	r2, r3, #16
 80080f6:	687b      	ldr	r3, [r7, #4]
 80080f8:	621a      	str	r2, [r3, #32]

  /* Get the TIMx CCER register value */
  tmpccer =  LL_TIM_ReadReg(TIMx, CCER);
 80080fa:	687b      	ldr	r3, [r7, #4]
 80080fc:	6a1b      	ldr	r3, [r3, #32]
 80080fe:	617b      	str	r3, [r7, #20]

  /* Get the TIMx CR2 register value */
  tmpcr2 = LL_TIM_ReadReg(TIMx, CR2);
 8008100:	687b      	ldr	r3, [r7, #4]
 8008102:	685b      	ldr	r3, [r3, #4]
 8008104:	613b      	str	r3, [r7, #16]

  /* Get the TIMx CCMR1 register value */
  tmpccmr1 = LL_TIM_ReadReg(TIMx, CCMR1);
 8008106:	687b      	ldr	r3, [r7, #4]
 8008108:	699b      	ldr	r3, [r3, #24]
 800810a:	60fb      	str	r3, [r7, #12]

  /* Reset Capture/Compare selection Bits */
  CLEAR_BIT(tmpccmr1, TIM_CCMR1_CC2S);
 800810c:	68fb      	ldr	r3, [r7, #12]
 800810e:	f423 7340 	bic.w	r3, r3, #768	; 0x300
 8008112:	60fb      	str	r3, [r7, #12]

  /* Select the Output Compare Mode */
  MODIFY_REG(tmpccmr1, TIM_CCMR1_OC2M, TIM_OCInitStruct->OCMode << 8U);
 8008114:	68fb      	ldr	r3, [r7, #12]
 8008116:	f423 42e0 	bic.w	r2, r3, #28672	; 0x7000
 800811a:	683b      	ldr	r3, [r7, #0]
 800811c:	681b      	ldr	r3, [r3, #0]
 800811e:	021b      	lsls	r3, r3, #8
 8008120:	4313      	orrs	r3, r2
 8008122:	60fb      	str	r3, [r7, #12]

  /* Set the Output Compare Polarity */
  MODIFY_REG(tmpccer, TIM_CCER_CC2P, TIM_OCInitStruct->OCPolarity << 4U);
 8008124:	697b      	ldr	r3, [r7, #20]
 8008126:	f023 0220 	bic.w	r2, r3, #32
 800812a:	683b      	ldr	r3, [r7, #0]
 800812c:	691b      	ldr	r3, [r3, #16]
 800812e:	011b      	lsls	r3, r3, #4
 8008130:	4313      	orrs	r3, r2
 8008132:	617b      	str	r3, [r7, #20]

  /* Set the Output State */
  MODIFY_REG(tmpccer, TIM_CCER_CC2E, TIM_OCInitStruct->OCState << 4U);
 8008134:	697b      	ldr	r3, [r7, #20]
 8008136:	f023 0210 	bic.w	r2, r3, #16
 800813a:	683b      	ldr	r3, [r7, #0]
 800813c:	685b      	ldr	r3, [r3, #4]
 800813e:	011b      	lsls	r3, r3, #4
 8008140:	4313      	orrs	r3, r2
 8008142:	617b      	str	r3, [r7, #20]

  if (IS_TIM_BREAK_INSTANCE(TIMx))
 8008144:	687b      	ldr	r3, [r7, #4]
 8008146:	4a1b      	ldr	r2, [pc, #108]	; (80081b4 <OC2Config+0xd0>)
 8008148:	4293      	cmp	r3, r2
 800814a:	d11f      	bne.n	800818c <OC2Config+0xa8>
  {
    assert_param(IS_LL_TIM_OCIDLESTATE(TIM_OCInitStruct->OCNIdleState));
    assert_param(IS_LL_TIM_OCIDLESTATE(TIM_OCInitStruct->OCIdleState));

    /* Set the complementary output Polarity */
    MODIFY_REG(tmpccer, TIM_CCER_CC2NP, TIM_OCInitStruct->OCNPolarity << 6U);
 800814c:	697b      	ldr	r3, [r7, #20]
 800814e:	f023 0280 	bic.w	r2, r3, #128	; 0x80
 8008152:	683b      	ldr	r3, [r7, #0]
 8008154:	695b      	ldr	r3, [r3, #20]
 8008156:	019b      	lsls	r3, r3, #6
 8008158:	4313      	orrs	r3, r2
 800815a:	617b      	str	r3, [r7, #20]

    /* Set the complementary output State */
    MODIFY_REG(tmpccer, TIM_CCER_CC2NE, TIM_OCInitStruct->OCNState << 6U);
 800815c:	697b      	ldr	r3, [r7, #20]
 800815e:	f023 0240 	bic.w	r2, r3, #64	; 0x40
 8008162:	683b      	ldr	r3, [r7, #0]
 8008164:	689b      	ldr	r3, [r3, #8]
 8008166:	019b      	lsls	r3, r3, #6
 8008168:	4313      	orrs	r3, r2
 800816a:	617b      	str	r3, [r7, #20]

    /* Set the Output Idle state */
    MODIFY_REG(tmpcr2, TIM_CR2_OIS2, TIM_OCInitStruct->OCIdleState << 2U);
 800816c:	693b      	ldr	r3, [r7, #16]
 800816e:	f423 6280 	bic.w	r2, r3, #1024	; 0x400
 8008172:	683b      	ldr	r3, [r7, #0]
 8008174:	699b      	ldr	r3, [r3, #24]
 8008176:	009b      	lsls	r3, r3, #2
 8008178:	4313      	orrs	r3, r2
 800817a:	613b      	str	r3, [r7, #16]

    /* Set the complementary output Idle state */
    MODIFY_REG(tmpcr2, TIM_CR2_OIS2N, TIM_OCInitStruct->OCNIdleState << 3U);
 800817c:	693b      	ldr	r3, [r7, #16]
 800817e:	f423 6200 	bic.w	r2, r3, #2048	; 0x800
 8008182:	683b      	ldr	r3, [r7, #0]
 8008184:	69db      	ldr	r3, [r3, #28]
 8008186:	00db      	lsls	r3, r3, #3
 8008188:	4313      	orrs	r3, r2
 800818a:	613b      	str	r3, [r7, #16]
  }

  /* Write to TIMx CR2 */
  LL_TIM_WriteReg(TIMx, CR2, tmpcr2);
 800818c:	687b      	ldr	r3, [r7, #4]
 800818e:	693a      	ldr	r2, [r7, #16]
 8008190:	605a      	str	r2, [r3, #4]

  /* Write to TIMx CCMR1 */
  LL_TIM_WriteReg(TIMx, CCMR1, tmpccmr1);
 8008192:	687b      	ldr	r3, [r7, #4]
 8008194:	68fa      	ldr	r2, [r7, #12]
 8008196:	619a      	str	r2, [r3, #24]

  /* Set the Capture Compare Register value */
  LL_TIM_OC_SetCompareCH2(TIMx, TIM_OCInitStruct->CompareValue);
 8008198:	683b      	ldr	r3, [r7, #0]
 800819a:	68db      	ldr	r3, [r3, #12]
 800819c:	4619      	mov	r1, r3
 800819e:	6878      	ldr	r0, [r7, #4]
 80081a0:	f7ff fdfc 	bl	8007d9c <LL_TIM_OC_SetCompareCH2>

  /* Write to TIMx CCER */
  LL_TIM_WriteReg(TIMx, CCER, tmpccer);
 80081a4:	687b      	ldr	r3, [r7, #4]
 80081a6:	697a      	ldr	r2, [r7, #20]
 80081a8:	621a      	str	r2, [r3, #32]

  return SUCCESS;
 80081aa:	2300      	movs	r3, #0
}
 80081ac:	4618      	mov	r0, r3
 80081ae:	3718      	adds	r7, #24
 80081b0:	46bd      	mov	sp, r7
 80081b2:	bd80      	pop	{r7, pc}
 80081b4:	40010000 	.word	0x40010000

080081b8 <OC3Config>:
  * @retval An ErrorStatus enumeration value:
  *          - SUCCESS: TIMx registers are de-initialized
  *          - ERROR: not applicable
  */
static ErrorStatus OC3Config(TIM_TypeDef *TIMx, LL_TIM_OC_InitTypeDef *TIM_OCInitStruct)
{
 80081b8:	b580      	push	{r7, lr}
 80081ba:	b086      	sub	sp, #24
 80081bc:	af00      	add	r7, sp, #0
 80081be:	6078      	str	r0, [r7, #4]
 80081c0:	6039      	str	r1, [r7, #0]
  assert_param(IS_LL_TIM_OCPOLARITY(TIM_OCInitStruct->OCPolarity));
  assert_param(IS_LL_TIM_OCSTATE(TIM_OCInitStruct->OCNState));
  assert_param(IS_LL_TIM_OCPOLARITY(TIM_OCInitStruct->OCNPolarity));

  /* Disable the Channel 3: Reset the CC3E Bit */
  CLEAR_BIT(TIMx->CCER, TIM_CCER_CC3E);
 80081c2:	687b      	ldr	r3, [r7, #4]
 80081c4:	6a1b      	ldr	r3, [r3, #32]
 80081c6:	f423 7280 	bic.w	r2, r3, #256	; 0x100
 80081ca:	687b      	ldr	r3, [r7, #4]
 80081cc:	621a      	str	r2, [r3, #32]

  /* Get the TIMx CCER register value */
  tmpccer =  LL_TIM_ReadReg(TIMx, CCER);
 80081ce:	687b      	ldr	r3, [r7, #4]
 80081d0:	6a1b      	ldr	r3, [r3, #32]
 80081d2:	617b      	str	r3, [r7, #20]

  /* Get the TIMx CR2 register value */
  tmpcr2 = LL_TIM_ReadReg(TIMx, CR2);
 80081d4:	687b      	ldr	r3, [r7, #4]
 80081d6:	685b      	ldr	r3, [r3, #4]
 80081d8:	613b      	str	r3, [r7, #16]

  /* Get the TIMx CCMR2 register value */
  tmpccmr2 = LL_TIM_ReadReg(TIMx, CCMR2);
 80081da:	687b      	ldr	r3, [r7, #4]
 80081dc:	69db      	ldr	r3, [r3, #28]
 80081de:	60fb      	str	r3, [r7, #12]

  /* Reset Capture/Compare selection Bits */
  CLEAR_BIT(tmpccmr2, TIM_CCMR2_CC3S);
 80081e0:	68fb      	ldr	r3, [r7, #12]
 80081e2:	f023 0303 	bic.w	r3, r3, #3
 80081e6:	60fb      	str	r3, [r7, #12]

  /* Select the Output Compare Mode */
  MODIFY_REG(tmpccmr2, TIM_CCMR2_OC3M, TIM_OCInitStruct->OCMode);
 80081e8:	68fb      	ldr	r3, [r7, #12]
 80081ea:	f023 0270 	bic.w	r2, r3, #112	; 0x70
 80081ee:	683b      	ldr	r3, [r7, #0]
 80081f0:	681b      	ldr	r3, [r3, #0]
 80081f2:	4313      	orrs	r3, r2
 80081f4:	60fb      	str	r3, [r7, #12]

  /* Set the Output Compare Polarity */
  MODIFY_REG(tmpccer, TIM_CCER_CC3P, TIM_OCInitStruct->OCPolarity << 8U);
 80081f6:	697b      	ldr	r3, [r7, #20]
 80081f8:	f423 7200 	bic.w	r2, r3, #512	; 0x200
 80081fc:	683b      	ldr	r3, [r7, #0]
 80081fe:	691b      	ldr	r3, [r3, #16]
 8008200:	021b      	lsls	r3, r3, #8
 8008202:	4313      	orrs	r3, r2
 8008204:	617b      	str	r3, [r7, #20]

  /* Set the Output State */
  MODIFY_REG(tmpccer, TIM_CCER_CC3E, TIM_OCInitStruct->OCState << 8U);
 8008206:	697b      	ldr	r3, [r7, #20]
 8008208:	f423 7280 	bic.w	r2, r3, #256	; 0x100
 800820c:	683b      	ldr	r3, [r7, #0]
 800820e:	685b      	ldr	r3, [r3, #4]
 8008210:	021b      	lsls	r3, r3, #8
 8008212:	4313      	orrs	r3, r2
 8008214:	617b      	str	r3, [r7, #20]

  if (IS_TIM_BREAK_INSTANCE(TIMx))
 8008216:	687b      	ldr	r3, [r7, #4]
 8008218:	4a1b      	ldr	r2, [pc, #108]	; (8008288 <OC3Config+0xd0>)
 800821a:	4293      	cmp	r3, r2
 800821c:	d11f      	bne.n	800825e <OC3Config+0xa6>
  {
    assert_param(IS_LL_TIM_OCIDLESTATE(TIM_OCInitStruct->OCNIdleState));
    assert_param(IS_LL_TIM_OCIDLESTATE(TIM_OCInitStruct->OCIdleState));

    /* Set the complementary output Polarity */
    MODIFY_REG(tmpccer, TIM_CCER_CC3NP, TIM_OCInitStruct->OCNPolarity << 10U);
 800821e:	697b      	ldr	r3, [r7, #20]
 8008220:	f423 6200 	bic.w	r2, r3, #2048	; 0x800
 8008224:	683b      	ldr	r3, [r7, #0]
 8008226:	695b      	ldr	r3, [r3, #20]
 8008228:	029b      	lsls	r3, r3, #10
 800822a:	4313      	orrs	r3, r2
 800822c:	617b      	str	r3, [r7, #20]

    /* Set the complementary output State */
    MODIFY_REG(tmpccer, TIM_CCER_CC3NE, TIM_OCInitStruct->OCNState << 10U);
 800822e:	697b      	ldr	r3, [r7, #20]
 8008230:	f423 6280 	bic.w	r2, r3, #1024	; 0x400
 8008234:	683b      	ldr	r3, [r7, #0]
 8008236:	689b      	ldr	r3, [r3, #8]
 8008238:	029b      	lsls	r3, r3, #10
 800823a:	4313      	orrs	r3, r2
 800823c:	617b      	str	r3, [r7, #20]

    /* Set the Output Idle state */
    MODIFY_REG(tmpcr2, TIM_CR2_OIS3, TIM_OCInitStruct->OCIdleState << 4U);
 800823e:	693b      	ldr	r3, [r7, #16]
 8008240:	f423 5280 	bic.w	r2, r3, #4096	; 0x1000
 8008244:	683b      	ldr	r3, [r7, #0]
 8008246:	699b      	ldr	r3, [r3, #24]
 8008248:	011b      	lsls	r3, r3, #4
 800824a:	4313      	orrs	r3, r2
 800824c:	613b      	str	r3, [r7, #16]

    /* Set the complementary output Idle state */
    MODIFY_REG(tmpcr2, TIM_CR2_OIS3N, TIM_OCInitStruct->OCNIdleState << 5U);
 800824e:	693b      	ldr	r3, [r7, #16]
 8008250:	f423 5200 	bic.w	r2, r3, #8192	; 0x2000
 8008254:	683b      	ldr	r3, [r7, #0]
 8008256:	69db      	ldr	r3, [r3, #28]
 8008258:	015b      	lsls	r3, r3, #5
 800825a:	4313      	orrs	r3, r2
 800825c:	613b      	str	r3, [r7, #16]
  }

  /* Write to TIMx CR2 */
  LL_TIM_WriteReg(TIMx, CR2, tmpcr2);
 800825e:	687b      	ldr	r3, [r7, #4]
 8008260:	693a      	ldr	r2, [r7, #16]
 8008262:	605a      	str	r2, [r3, #4]

  /* Write to TIMx CCMR2 */
  LL_TIM_WriteReg(TIMx, CCMR2, tmpccmr2);
 8008264:	687b      	ldr	r3, [r7, #4]
 8008266:	68fa      	ldr	r2, [r7, #12]
 8008268:	61da      	str	r2, [r3, #28]

  /* Set the Capture Compare Register value */
  LL_TIM_OC_SetCompareCH3(TIMx, TIM_OCInitStruct->CompareValue);
 800826a:	683b      	ldr	r3, [r7, #0]
 800826c:	68db      	ldr	r3, [r3, #12]
 800826e:	4619      	mov	r1, r3
 8008270:	6878      	ldr	r0, [r7, #4]
 8008272:	f7ff fda1 	bl	8007db8 <LL_TIM_OC_SetCompareCH3>

  /* Write to TIMx CCER */
  LL_TIM_WriteReg(TIMx, CCER, tmpccer);
 8008276:	687b      	ldr	r3, [r7, #4]
 8008278:	697a      	ldr	r2, [r7, #20]
 800827a:	621a      	str	r2, [r3, #32]

  return SUCCESS;
 800827c:	2300      	movs	r3, #0
}
 800827e:	4618      	mov	r0, r3
 8008280:	3718      	adds	r7, #24
 8008282:	46bd      	mov	sp, r7
 8008284:	bd80      	pop	{r7, pc}
 8008286:	bf00      	nop
 8008288:	40010000 	.word	0x40010000

0800828c <OC4Config>:
  * @retval An ErrorStatus enumeration value:
  *          - SUCCESS: TIMx registers are de-initialized
  *          - ERROR: not applicable
  */
static ErrorStatus OC4Config(TIM_TypeDef *TIMx, LL_TIM_OC_InitTypeDef *TIM_OCInitStruct)
{
 800828c:	b580      	push	{r7, lr}
 800828e:	b086      	sub	sp, #24
 8008290:	af00      	add	r7, sp, #0
 8008292:	6078      	str	r0, [r7, #4]
 8008294:	6039      	str	r1, [r7, #0]
  assert_param(IS_LL_TIM_OCPOLARITY(TIM_OCInitStruct->OCPolarity));
  assert_param(IS_LL_TIM_OCPOLARITY(TIM_OCInitStruct->OCNPolarity));
  assert_param(IS_LL_TIM_OCSTATE(TIM_OCInitStruct->OCNState));

  /* Disable the Channel 4: Reset the CC4E Bit */
  CLEAR_BIT(TIMx->CCER, TIM_CCER_CC4E);
 8008296:	687b      	ldr	r3, [r7, #4]
 8008298:	6a1b      	ldr	r3, [r3, #32]
 800829a:	f423 5280 	bic.w	r2, r3, #4096	; 0x1000
 800829e:	687b      	ldr	r3, [r7, #4]
 80082a0:	621a      	str	r2, [r3, #32]

  /* Get the TIMx CCER register value */
  tmpccer = LL_TIM_ReadReg(TIMx, CCER);
 80082a2:	687b      	ldr	r3, [r7, #4]
 80082a4:	6a1b      	ldr	r3, [r3, #32]
 80082a6:	613b      	str	r3, [r7, #16]

  /* Get the TIMx CR2 register value */
  tmpcr2 =  LL_TIM_ReadReg(TIMx, CR2);
 80082a8:	687b      	ldr	r3, [r7, #4]
 80082aa:	685b      	ldr	r3, [r3, #4]
 80082ac:	617b      	str	r3, [r7, #20]

  /* Get the TIMx CCMR2 register value */
  tmpccmr2 = LL_TIM_ReadReg(TIMx, CCMR2);
 80082ae:	687b      	ldr	r3, [r7, #4]
 80082b0:	69db      	ldr	r3, [r3, #28]
 80082b2:	60fb      	str	r3, [r7, #12]

  /* Reset Capture/Compare selection Bits */
  CLEAR_BIT(tmpccmr2, TIM_CCMR2_CC4S);
 80082b4:	68fb      	ldr	r3, [r7, #12]
 80082b6:	f423 7340 	bic.w	r3, r3, #768	; 0x300
 80082ba:	60fb      	str	r3, [r7, #12]

  /* Select the Output Compare Mode */
  MODIFY_REG(tmpccmr2, TIM_CCMR2_OC4M, TIM_OCInitStruct->OCMode << 8U);
 80082bc:	68fb      	ldr	r3, [r7, #12]
 80082be:	f423 42e0 	bic.w	r2, r3, #28672	; 0x7000
 80082c2:	683b      	ldr	r3, [r7, #0]
 80082c4:	681b      	ldr	r3, [r3, #0]
 80082c6:	021b      	lsls	r3, r3, #8
 80082c8:	4313      	orrs	r3, r2
 80082ca:	60fb      	str	r3, [r7, #12]

  /* Set the Output Compare Polarity */
  MODIFY_REG(tmpccer, TIM_CCER_CC4P, TIM_OCInitStruct->OCPolarity << 12U);
 80082cc:	693b      	ldr	r3, [r7, #16]
 80082ce:	f423 5200 	bic.w	r2, r3, #8192	; 0x2000
 80082d2:	683b      	ldr	r3, [r7, #0]
 80082d4:	691b      	ldr	r3, [r3, #16]
 80082d6:	031b      	lsls	r3, r3, #12
 80082d8:	4313      	orrs	r3, r2
 80082da:	613b      	str	r3, [r7, #16]

  /* Set the Output State */
  MODIFY_REG(tmpccer, TIM_CCER_CC4E, TIM_OCInitStruct->OCState << 12U);
 80082dc:	693b      	ldr	r3, [r7, #16]
 80082de:	f423 5280 	bic.w	r2, r3, #4096	; 0x1000
 80082e2:	683b      	ldr	r3, [r7, #0]
 80082e4:	685b      	ldr	r3, [r3, #4]
 80082e6:	031b      	lsls	r3, r3, #12
 80082e8:	4313      	orrs	r3, r2
 80082ea:	613b      	str	r3, [r7, #16]

  if (IS_TIM_BREAK_INSTANCE(TIMx))
 80082ec:	687b      	ldr	r3, [r7, #4]
 80082ee:	4a0f      	ldr	r2, [pc, #60]	; (800832c <OC4Config+0xa0>)
 80082f0:	4293      	cmp	r3, r2
 80082f2:	d107      	bne.n	8008304 <OC4Config+0x78>
  {
    assert_param(IS_LL_TIM_OCIDLESTATE(TIM_OCInitStruct->OCNIdleState));
    assert_param(IS_LL_TIM_OCIDLESTATE(TIM_OCInitStruct->OCIdleState));

    /* Set the Output Idle state */
    MODIFY_REG(tmpcr2, TIM_CR2_OIS4, TIM_OCInitStruct->OCIdleState << 6U);
 80082f4:	697b      	ldr	r3, [r7, #20]
 80082f6:	f423 4280 	bic.w	r2, r3, #16384	; 0x4000
 80082fa:	683b      	ldr	r3, [r7, #0]
 80082fc:	699b      	ldr	r3, [r3, #24]
 80082fe:	019b      	lsls	r3, r3, #6
 8008300:	4313      	orrs	r3, r2
 8008302:	617b      	str	r3, [r7, #20]
  }

  /* Write to TIMx CR2 */
  LL_TIM_WriteReg(TIMx, CR2, tmpcr2);
 8008304:	687b      	ldr	r3, [r7, #4]
 8008306:	697a      	ldr	r2, [r7, #20]
 8008308:	605a      	str	r2, [r3, #4]

  /* Write to TIMx CCMR2 */
  LL_TIM_WriteReg(TIMx, CCMR2, tmpccmr2);
 800830a:	687b      	ldr	r3, [r7, #4]
 800830c:	68fa      	ldr	r2, [r7, #12]
 800830e:	61da      	str	r2, [r3, #28]

  /* Set the Capture Compare Register value */
  LL_TIM_OC_SetCompareCH4(TIMx, TIM_OCInitStruct->CompareValue);
 8008310:	683b      	ldr	r3, [r7, #0]
 8008312:	68db      	ldr	r3, [r3, #12]
 8008314:	4619      	mov	r1, r3
 8008316:	6878      	ldr	r0, [r7, #4]
 8008318:	f7ff fd5c 	bl	8007dd4 <LL_TIM_OC_SetCompareCH4>

  /* Write to TIMx CCER */
  LL_TIM_WriteReg(TIMx, CCER, tmpccer);
 800831c:	687b      	ldr	r3, [r7, #4]
 800831e:	693a      	ldr	r2, [r7, #16]
 8008320:	621a      	str	r2, [r3, #32]

  return SUCCESS;
 8008322:	2300      	movs	r3, #0
}
 8008324:	4618      	mov	r0, r3
 8008326:	3718      	adds	r7, #24
 8008328:	46bd      	mov	sp, r7
 800832a:	bd80      	pop	{r7, pc}
 800832c:	40010000 	.word	0x40010000

08008330 <LL_USART_IsEnabled>:
{
 8008330:	b480      	push	{r7}
 8008332:	b083      	sub	sp, #12
 8008334:	af00      	add	r7, sp, #0
 8008336:	6078      	str	r0, [r7, #4]
  return (READ_BIT(USARTx->CR1, USART_CR1_UE) == (USART_CR1_UE));
 8008338:	687b      	ldr	r3, [r7, #4]
 800833a:	68db      	ldr	r3, [r3, #12]
 800833c:	f403 5300 	and.w	r3, r3, #8192	; 0x2000
 8008340:	f5b3 5f00 	cmp.w	r3, #8192	; 0x2000
 8008344:	bf0c      	ite	eq
 8008346:	2301      	moveq	r3, #1
 8008348:	2300      	movne	r3, #0
 800834a:	b2db      	uxtb	r3, r3
}
 800834c:	4618      	mov	r0, r3
 800834e:	370c      	adds	r7, #12
 8008350:	46bd      	mov	sp, r7
 8008352:	f85d 7b04 	ldr.w	r7, [sp], #4
 8008356:	4770      	bx	lr

08008358 <LL_USART_SetStopBitsLength>:
{
 8008358:	b480      	push	{r7}
 800835a:	b083      	sub	sp, #12
 800835c:	af00      	add	r7, sp, #0
 800835e:	6078      	str	r0, [r7, #4]
 8008360:	6039      	str	r1, [r7, #0]
  MODIFY_REG(USARTx->CR2, USART_CR2_STOP, StopBits);
 8008362:	687b      	ldr	r3, [r7, #4]
 8008364:	691b      	ldr	r3, [r3, #16]
 8008366:	f423 5240 	bic.w	r2, r3, #12288	; 0x3000
 800836a:	683b      	ldr	r3, [r7, #0]
 800836c:	431a      	orrs	r2, r3
 800836e:	687b      	ldr	r3, [r7, #4]
 8008370:	611a      	str	r2, [r3, #16]
}
 8008372:	bf00      	nop
 8008374:	370c      	adds	r7, #12
 8008376:	46bd      	mov	sp, r7
 8008378:	f85d 7b04 	ldr.w	r7, [sp], #4
 800837c:	4770      	bx	lr

0800837e <LL_USART_SetHWFlowCtrl>:
{
 800837e:	b480      	push	{r7}
 8008380:	b083      	sub	sp, #12
 8008382:	af00      	add	r7, sp, #0
 8008384:	6078      	str	r0, [r7, #4]
 8008386:	6039      	str	r1, [r7, #0]
  MODIFY_REG(USARTx->CR3, USART_CR3_RTSE | USART_CR3_CTSE, HardwareFlowControl);
 8008388:	687b      	ldr	r3, [r7, #4]
 800838a:	695b      	ldr	r3, [r3, #20]
 800838c:	f423 7240 	bic.w	r2, r3, #768	; 0x300
 8008390:	683b      	ldr	r3, [r7, #0]
 8008392:	431a      	orrs	r2, r3
 8008394:	687b      	ldr	r3, [r7, #4]
 8008396:	615a      	str	r2, [r3, #20]
}
 8008398:	bf00      	nop
 800839a:	370c      	adds	r7, #12
 800839c:	46bd      	mov	sp, r7
 800839e:	f85d 7b04 	ldr.w	r7, [sp], #4
 80083a2:	4770      	bx	lr

080083a4 <LL_USART_SetBaudRate>:
{
 80083a4:	e92d 4ff0 	stmdb	sp!, {r4, r5, r6, r7, r8, r9, sl, fp, lr}
 80083a8:	b09f      	sub	sp, #124	; 0x7c
 80083aa:	af00      	add	r7, sp, #0
 80083ac:	6778      	str	r0, [r7, #116]	; 0x74
 80083ae:	6739      	str	r1, [r7, #112]	; 0x70
 80083b0:	66fa      	str	r2, [r7, #108]	; 0x6c
 80083b2:	66bb      	str	r3, [r7, #104]	; 0x68
  if (OverSampling == LL_USART_OVERSAMPLING_8)
 80083b4:	6efb      	ldr	r3, [r7, #108]	; 0x6c
 80083b6:	f5b3 4f00 	cmp.w	r3, #32768	; 0x8000
 80083ba:	f040 80bc 	bne.w	8008536 <LL_USART_SetBaudRate+0x192>
    USARTx->BRR = (uint16_t)(__LL_USART_DIV_SAMPLING8(PeriphClk, BaudRate));
 80083be:	6f3b      	ldr	r3, [r7, #112]	; 0x70
 80083c0:	461c      	mov	r4, r3
 80083c2:	f04f 0500 	mov.w	r5, #0
 80083c6:	4622      	mov	r2, r4
 80083c8:	462b      	mov	r3, r5
 80083ca:	eb12 0a02 	adds.w	sl, r2, r2
 80083ce:	eb43 0b03 	adc.w	fp, r3, r3
 80083d2:	4652      	mov	r2, sl
 80083d4:	465b      	mov	r3, fp
 80083d6:	1912      	adds	r2, r2, r4
 80083d8:	eb45 0303 	adc.w	r3, r5, r3
 80083dc:	f04f 0000 	mov.w	r0, #0
 80083e0:	f04f 0100 	mov.w	r1, #0
 80083e4:	00d9      	lsls	r1, r3, #3
 80083e6:	ea41 7152 	orr.w	r1, r1, r2, lsr #29
 80083ea:	00d0      	lsls	r0, r2, #3
 80083ec:	4602      	mov	r2, r0
 80083ee:	460b      	mov	r3, r1
 80083f0:	1911      	adds	r1, r2, r4
 80083f2:	6639      	str	r1, [r7, #96]	; 0x60
 80083f4:	416b      	adcs	r3, r5
 80083f6:	667b      	str	r3, [r7, #100]	; 0x64
 80083f8:	6ebb      	ldr	r3, [r7, #104]	; 0x68
 80083fa:	461a      	mov	r2, r3
 80083fc:	f04f 0300 	mov.w	r3, #0
 8008400:	1891      	adds	r1, r2, r2
 8008402:	6339      	str	r1, [r7, #48]	; 0x30
 8008404:	415b      	adcs	r3, r3
 8008406:	637b      	str	r3, [r7, #52]	; 0x34
 8008408:	e9d7 230c 	ldrd	r2, r3, [r7, #48]	; 0x30
 800840c:	e9d7 0118 	ldrd	r0, r1, [r7, #96]	; 0x60
 8008410:	f7fb fee0 	bl	80041d4 <__aeabi_uldivmod>
 8008414:	4602      	mov	r2, r0
 8008416:	460b      	mov	r3, r1
 8008418:	4ba9      	ldr	r3, [pc, #676]	; (80086c0 <LL_USART_SetBaudRate+0x31c>)
 800841a:	fba3 2302 	umull	r2, r3, r3, r2
 800841e:	095b      	lsrs	r3, r3, #5
 8008420:	b29b      	uxth	r3, r3
 8008422:	011b      	lsls	r3, r3, #4
 8008424:	b29e      	uxth	r6, r3
 8008426:	6f3b      	ldr	r3, [r7, #112]	; 0x70
 8008428:	461c      	mov	r4, r3
 800842a:	f04f 0500 	mov.w	r5, #0
 800842e:	4622      	mov	r2, r4
 8008430:	462b      	mov	r3, r5
 8008432:	1891      	adds	r1, r2, r2
 8008434:	62b9      	str	r1, [r7, #40]	; 0x28
 8008436:	415b      	adcs	r3, r3
 8008438:	62fb      	str	r3, [r7, #44]	; 0x2c
 800843a:	e9d7 230a 	ldrd	r2, r3, [r7, #40]	; 0x28
 800843e:	1912      	adds	r2, r2, r4
 8008440:	eb45 0303 	adc.w	r3, r5, r3
 8008444:	f04f 0000 	mov.w	r0, #0
 8008448:	f04f 0100 	mov.w	r1, #0
 800844c:	00d9      	lsls	r1, r3, #3
 800844e:	ea41 7152 	orr.w	r1, r1, r2, lsr #29
 8008452:	00d0      	lsls	r0, r2, #3
 8008454:	4602      	mov	r2, r0
 8008456:	460b      	mov	r3, r1
 8008458:	1911      	adds	r1, r2, r4
 800845a:	65b9      	str	r1, [r7, #88]	; 0x58
 800845c:	416b      	adcs	r3, r5
 800845e:	65fb      	str	r3, [r7, #92]	; 0x5c
 8008460:	6ebb      	ldr	r3, [r7, #104]	; 0x68
 8008462:	461a      	mov	r2, r3
 8008464:	f04f 0300 	mov.w	r3, #0
 8008468:	1891      	adds	r1, r2, r2
 800846a:	6239      	str	r1, [r7, #32]
 800846c:	415b      	adcs	r3, r3
 800846e:	627b      	str	r3, [r7, #36]	; 0x24
 8008470:	e9d7 2308 	ldrd	r2, r3, [r7, #32]
 8008474:	e9d7 0116 	ldrd	r0, r1, [r7, #88]	; 0x58
 8008478:	f7fb feac 	bl	80041d4 <__aeabi_uldivmod>
 800847c:	4602      	mov	r2, r0
 800847e:	460b      	mov	r3, r1
 8008480:	4b8f      	ldr	r3, [pc, #572]	; (80086c0 <LL_USART_SetBaudRate+0x31c>)
 8008482:	fba3 1302 	umull	r1, r3, r3, r2
 8008486:	095b      	lsrs	r3, r3, #5
 8008488:	2164      	movs	r1, #100	; 0x64
 800848a:	fb01 f303 	mul.w	r3, r1, r3
 800848e:	1ad3      	subs	r3, r2, r3
 8008490:	00db      	lsls	r3, r3, #3
 8008492:	3332      	adds	r3, #50	; 0x32
 8008494:	4a8a      	ldr	r2, [pc, #552]	; (80086c0 <LL_USART_SetBaudRate+0x31c>)
 8008496:	fba2 2303 	umull	r2, r3, r2, r3
 800849a:	095b      	lsrs	r3, r3, #5
 800849c:	b29b      	uxth	r3, r3
 800849e:	005b      	lsls	r3, r3, #1
 80084a0:	b29b      	uxth	r3, r3
 80084a2:	f403 73f8 	and.w	r3, r3, #496	; 0x1f0
 80084a6:	b29b      	uxth	r3, r3
 80084a8:	4433      	add	r3, r6
 80084aa:	b29e      	uxth	r6, r3
 80084ac:	6f3b      	ldr	r3, [r7, #112]	; 0x70
 80084ae:	4618      	mov	r0, r3
 80084b0:	f04f 0100 	mov.w	r1, #0
 80084b4:	4602      	mov	r2, r0
 80084b6:	460b      	mov	r3, r1
 80084b8:	1894      	adds	r4, r2, r2
 80084ba:	61bc      	str	r4, [r7, #24]
 80084bc:	415b      	adcs	r3, r3
 80084be:	61fb      	str	r3, [r7, #28]
 80084c0:	e9d7 2306 	ldrd	r2, r3, [r7, #24]
 80084c4:	1812      	adds	r2, r2, r0
 80084c6:	eb41 0303 	adc.w	r3, r1, r3
 80084ca:	f04f 0400 	mov.w	r4, #0
 80084ce:	f04f 0500 	mov.w	r5, #0
 80084d2:	00dd      	lsls	r5, r3, #3
 80084d4:	ea45 7552 	orr.w	r5, r5, r2, lsr #29
 80084d8:	00d4      	lsls	r4, r2, #3
 80084da:	4622      	mov	r2, r4
 80084dc:	462b      	mov	r3, r5
 80084de:	1814      	adds	r4, r2, r0
 80084e0:	653c      	str	r4, [r7, #80]	; 0x50
 80084e2:	414b      	adcs	r3, r1
 80084e4:	657b      	str	r3, [r7, #84]	; 0x54
 80084e6:	6ebb      	ldr	r3, [r7, #104]	; 0x68
 80084e8:	461a      	mov	r2, r3
 80084ea:	f04f 0300 	mov.w	r3, #0
 80084ee:	1891      	adds	r1, r2, r2
 80084f0:	6139      	str	r1, [r7, #16]
 80084f2:	415b      	adcs	r3, r3
 80084f4:	617b      	str	r3, [r7, #20]
 80084f6:	e9d7 2304 	ldrd	r2, r3, [r7, #16]
 80084fa:	e9d7 0114 	ldrd	r0, r1, [r7, #80]	; 0x50
 80084fe:	f7fb fe69 	bl	80041d4 <__aeabi_uldivmod>
 8008502:	4602      	mov	r2, r0
 8008504:	460b      	mov	r3, r1
 8008506:	4b6e      	ldr	r3, [pc, #440]	; (80086c0 <LL_USART_SetBaudRate+0x31c>)
 8008508:	fba3 1302 	umull	r1, r3, r3, r2
 800850c:	095b      	lsrs	r3, r3, #5
 800850e:	2164      	movs	r1, #100	; 0x64
 8008510:	fb01 f303 	mul.w	r3, r1, r3
 8008514:	1ad3      	subs	r3, r2, r3
 8008516:	00db      	lsls	r3, r3, #3
 8008518:	3332      	adds	r3, #50	; 0x32
 800851a:	4a69      	ldr	r2, [pc, #420]	; (80086c0 <LL_USART_SetBaudRate+0x31c>)
 800851c:	fba2 2303 	umull	r2, r3, r2, r3
 8008520:	095b      	lsrs	r3, r3, #5
 8008522:	b29b      	uxth	r3, r3
 8008524:	f003 0307 	and.w	r3, r3, #7
 8008528:	b29b      	uxth	r3, r3
 800852a:	4433      	add	r3, r6
 800852c:	b29b      	uxth	r3, r3
 800852e:	461a      	mov	r2, r3
 8008530:	6f7b      	ldr	r3, [r7, #116]	; 0x74
 8008532:	609a      	str	r2, [r3, #8]
}
 8008534:	e0be      	b.n	80086b4 <LL_USART_SetBaudRate+0x310>
    USARTx->BRR = (uint16_t)(__LL_USART_DIV_SAMPLING16(PeriphClk, BaudRate));
 8008536:	6f3b      	ldr	r3, [r7, #112]	; 0x70
 8008538:	461c      	mov	r4, r3
 800853a:	f04f 0500 	mov.w	r5, #0
 800853e:	4622      	mov	r2, r4
 8008540:	462b      	mov	r3, r5
 8008542:	eb12 0802 	adds.w	r8, r2, r2
 8008546:	eb43 0903 	adc.w	r9, r3, r3
 800854a:	4642      	mov	r2, r8
 800854c:	464b      	mov	r3, r9
 800854e:	1912      	adds	r2, r2, r4
 8008550:	eb45 0303 	adc.w	r3, r5, r3
 8008554:	f04f 0000 	mov.w	r0, #0
 8008558:	f04f 0100 	mov.w	r1, #0
 800855c:	00d9      	lsls	r1, r3, #3
 800855e:	ea41 7152 	orr.w	r1, r1, r2, lsr #29
 8008562:	00d0      	lsls	r0, r2, #3
 8008564:	4602      	mov	r2, r0
 8008566:	460b      	mov	r3, r1
 8008568:	1911      	adds	r1, r2, r4
 800856a:	64b9      	str	r1, [r7, #72]	; 0x48
 800856c:	416b      	adcs	r3, r5
 800856e:	64fb      	str	r3, [r7, #76]	; 0x4c
 8008570:	6ebb      	ldr	r3, [r7, #104]	; 0x68
 8008572:	4618      	mov	r0, r3
 8008574:	f04f 0100 	mov.w	r1, #0
 8008578:	f04f 0200 	mov.w	r2, #0
 800857c:	f04f 0300 	mov.w	r3, #0
 8008580:	008b      	lsls	r3, r1, #2
 8008582:	ea43 7390 	orr.w	r3, r3, r0, lsr #30
 8008586:	0082      	lsls	r2, r0, #2
 8008588:	e9d7 0112 	ldrd	r0, r1, [r7, #72]	; 0x48
 800858c:	f7fb fe22 	bl	80041d4 <__aeabi_uldivmod>
 8008590:	4602      	mov	r2, r0
 8008592:	460b      	mov	r3, r1
 8008594:	4b4a      	ldr	r3, [pc, #296]	; (80086c0 <LL_USART_SetBaudRate+0x31c>)
 8008596:	fba3 2302 	umull	r2, r3, r3, r2
 800859a:	095b      	lsrs	r3, r3, #5
 800859c:	b29b      	uxth	r3, r3
 800859e:	011b      	lsls	r3, r3, #4
 80085a0:	b29e      	uxth	r6, r3
 80085a2:	6f3b      	ldr	r3, [r7, #112]	; 0x70
 80085a4:	4618      	mov	r0, r3
 80085a6:	f04f 0100 	mov.w	r1, #0
 80085aa:	4602      	mov	r2, r0
 80085ac:	460b      	mov	r3, r1
 80085ae:	1894      	adds	r4, r2, r2
 80085b0:	60bc      	str	r4, [r7, #8]
 80085b2:	415b      	adcs	r3, r3
 80085b4:	60fb      	str	r3, [r7, #12]
 80085b6:	e9d7 2302 	ldrd	r2, r3, [r7, #8]
 80085ba:	1812      	adds	r2, r2, r0
 80085bc:	eb41 0303 	adc.w	r3, r1, r3
 80085c0:	f04f 0400 	mov.w	r4, #0
 80085c4:	f04f 0500 	mov.w	r5, #0
 80085c8:	00dd      	lsls	r5, r3, #3
 80085ca:	ea45 7552 	orr.w	r5, r5, r2, lsr #29
 80085ce:	00d4      	lsls	r4, r2, #3
 80085d0:	4622      	mov	r2, r4
 80085d2:	462b      	mov	r3, r5
 80085d4:	1814      	adds	r4, r2, r0
 80085d6:	643c      	str	r4, [r7, #64]	; 0x40
 80085d8:	414b      	adcs	r3, r1
 80085da:	647b      	str	r3, [r7, #68]	; 0x44
 80085dc:	6ebb      	ldr	r3, [r7, #104]	; 0x68
 80085de:	4618      	mov	r0, r3
 80085e0:	f04f 0100 	mov.w	r1, #0
 80085e4:	f04f 0200 	mov.w	r2, #0
 80085e8:	f04f 0300 	mov.w	r3, #0
 80085ec:	008b      	lsls	r3, r1, #2
 80085ee:	ea43 7390 	orr.w	r3, r3, r0, lsr #30
 80085f2:	0082      	lsls	r2, r0, #2
 80085f4:	e9d7 0110 	ldrd	r0, r1, [r7, #64]	; 0x40
 80085f8:	f7fb fdec 	bl	80041d4 <__aeabi_uldivmod>
 80085fc:	4602      	mov	r2, r0
 80085fe:	460b      	mov	r3, r1
 8008600:	4b2f      	ldr	r3, [pc, #188]	; (80086c0 <LL_USART_SetBaudRate+0x31c>)
 8008602:	fba3 1302 	umull	r1, r3, r3, r2
 8008606:	095b      	lsrs	r3, r3, #5
 8008608:	2164      	movs	r1, #100	; 0x64
 800860a:	fb01 f303 	mul.w	r3, r1, r3
 800860e:	1ad3      	subs	r3, r2, r3
 8008610:	011b      	lsls	r3, r3, #4
 8008612:	3332      	adds	r3, #50	; 0x32
 8008614:	4a2a      	ldr	r2, [pc, #168]	; (80086c0 <LL_USART_SetBaudRate+0x31c>)
 8008616:	fba2 2303 	umull	r2, r3, r2, r3
 800861a:	095b      	lsrs	r3, r3, #5
 800861c:	b29b      	uxth	r3, r3
 800861e:	f003 03f0 	and.w	r3, r3, #240	; 0xf0
 8008622:	b29b      	uxth	r3, r3
 8008624:	4433      	add	r3, r6
 8008626:	b29e      	uxth	r6, r3
 8008628:	6f3b      	ldr	r3, [r7, #112]	; 0x70
 800862a:	4618      	mov	r0, r3
 800862c:	f04f 0100 	mov.w	r1, #0
 8008630:	4602      	mov	r2, r0
 8008632:	460b      	mov	r3, r1
 8008634:	1894      	adds	r4, r2, r2
 8008636:	603c      	str	r4, [r7, #0]
 8008638:	415b      	adcs	r3, r3
 800863a:	607b      	str	r3, [r7, #4]
 800863c:	e9d7 2300 	ldrd	r2, r3, [r7]
 8008640:	1812      	adds	r2, r2, r0
 8008642:	eb41 0303 	adc.w	r3, r1, r3
 8008646:	f04f 0400 	mov.w	r4, #0
 800864a:	f04f 0500 	mov.w	r5, #0
 800864e:	00dd      	lsls	r5, r3, #3
 8008650:	ea45 7552 	orr.w	r5, r5, r2, lsr #29
 8008654:	00d4      	lsls	r4, r2, #3
 8008656:	4622      	mov	r2, r4
 8008658:	462b      	mov	r3, r5
 800865a:	1814      	adds	r4, r2, r0
 800865c:	63bc      	str	r4, [r7, #56]	; 0x38
 800865e:	414b      	adcs	r3, r1
 8008660:	63fb      	str	r3, [r7, #60]	; 0x3c
 8008662:	6ebb      	ldr	r3, [r7, #104]	; 0x68
 8008664:	4618      	mov	r0, r3
 8008666:	f04f 0100 	mov.w	r1, #0
 800866a:	f04f 0200 	mov.w	r2, #0
 800866e:	f04f 0300 	mov.w	r3, #0
 8008672:	008b      	lsls	r3, r1, #2
 8008674:	ea43 7390 	orr.w	r3, r3, r0, lsr #30
 8008678:	0082      	lsls	r2, r0, #2
 800867a:	e9d7 010e 	ldrd	r0, r1, [r7, #56]	; 0x38
 800867e:	f7fb fda9 	bl	80041d4 <__aeabi_uldivmod>
 8008682:	4602      	mov	r2, r0
 8008684:	460b      	mov	r3, r1
 8008686:	4b0e      	ldr	r3, [pc, #56]	; (80086c0 <LL_USART_SetBaudRate+0x31c>)
 8008688:	fba3 1302 	umull	r1, r3, r3, r2
 800868c:	095b      	lsrs	r3, r3, #5
 800868e:	2164      	movs	r1, #100	; 0x64
 8008690:	fb01 f303 	mul.w	r3, r1, r3
 8008694:	1ad3      	subs	r3, r2, r3
 8008696:	011b      	lsls	r3, r3, #4
 8008698:	3332      	adds	r3, #50	; 0x32
 800869a:	4a09      	ldr	r2, [pc, #36]	; (80086c0 <LL_USART_SetBaudRate+0x31c>)
 800869c:	fba2 2303 	umull	r2, r3, r2, r3
 80086a0:	095b      	lsrs	r3, r3, #5
 80086a2:	b29b      	uxth	r3, r3
 80086a4:	f003 030f 	and.w	r3, r3, #15
 80086a8:	b29b      	uxth	r3, r3
 80086aa:	4433      	add	r3, r6
 80086ac:	b29b      	uxth	r3, r3
 80086ae:	461a      	mov	r2, r3
 80086b0:	6f7b      	ldr	r3, [r7, #116]	; 0x74
 80086b2:	609a      	str	r2, [r3, #8]
}
 80086b4:	bf00      	nop
 80086b6:	377c      	adds	r7, #124	; 0x7c
 80086b8:	46bd      	mov	sp, r7
 80086ba:	e8bd 8ff0 	ldmia.w	sp!, {r4, r5, r6, r7, r8, r9, sl, fp, pc}
 80086be:	bf00      	nop
 80086c0:	51eb851f 	.word	0x51eb851f

080086c4 <LL_USART_Init>:
  * @retval An ErrorStatus enumeration value:
  *          - SUCCESS: USART registers are initialized according to USART_InitStruct content
  *          - ERROR: Problem occurred during USART Registers initialization
  */
ErrorStatus LL_USART_Init(USART_TypeDef *USARTx, LL_USART_InitTypeDef *USART_InitStruct)
{
 80086c4:	b580      	push	{r7, lr}
 80086c6:	b088      	sub	sp, #32
 80086c8:	af00      	add	r7, sp, #0
 80086ca:	6078      	str	r0, [r7, #4]
 80086cc:	6039      	str	r1, [r7, #0]
  ErrorStatus status = ERROR;
 80086ce:	2301      	movs	r3, #1
 80086d0:	77fb      	strb	r3, [r7, #31]
  uint32_t periphclk = LL_RCC_PERIPH_FREQUENCY_NO;
 80086d2:	2300      	movs	r3, #0
 80086d4:	61bb      	str	r3, [r7, #24]
  assert_param(IS_LL_USART_HWCONTROL(USART_InitStruct->HardwareFlowControl));
  assert_param(IS_LL_USART_OVERSAMPLING(USART_InitStruct->OverSampling));

  /* USART needs to be in disabled state, in order to be able to configure some bits in
     CRx registers */
  if (LL_USART_IsEnabled(USARTx) == 0U)
 80086d6:	6878      	ldr	r0, [r7, #4]
 80086d8:	f7ff fe2a 	bl	8008330 <LL_USART_IsEnabled>
 80086dc:	4603      	mov	r3, r0
 80086de:	2b00      	cmp	r3, #0
 80086e0:	d149      	bne.n	8008776 <LL_USART_Init+0xb2>
     * - DataWidth:          USART_CR1_M bits according to USART_InitStruct->DataWidth value
     * - Parity:             USART_CR1_PCE, USART_CR1_PS bits according to USART_InitStruct->Parity value
     * - TransferDirection:  USART_CR1_TE, USART_CR1_RE bits according to USART_InitStruct->TransferDirection value
     * - Oversampling:       USART_CR1_OVER8 bit according to USART_InitStruct->OverSampling value.
     */
    MODIFY_REG(USARTx->CR1,
 80086e2:	687b      	ldr	r3, [r7, #4]
 80086e4:	68db      	ldr	r3, [r3, #12]
 80086e6:	f423 4316 	bic.w	r3, r3, #38400	; 0x9600
 80086ea:	f023 030c 	bic.w	r3, r3, #12
 80086ee:	683a      	ldr	r2, [r7, #0]
 80086f0:	6851      	ldr	r1, [r2, #4]
 80086f2:	683a      	ldr	r2, [r7, #0]
 80086f4:	68d2      	ldr	r2, [r2, #12]
 80086f6:	4311      	orrs	r1, r2
 80086f8:	683a      	ldr	r2, [r7, #0]
 80086fa:	6912      	ldr	r2, [r2, #16]
 80086fc:	4311      	orrs	r1, r2
 80086fe:	683a      	ldr	r2, [r7, #0]
 8008700:	6992      	ldr	r2, [r2, #24]
 8008702:	430a      	orrs	r2, r1
 8008704:	431a      	orrs	r2, r3
 8008706:	687b      	ldr	r3, [r7, #4]
 8008708:	60da      	str	r2, [r3, #12]
    /*---------------------------- USART CR2 Configuration -----------------------
     * Configure USARTx CR2 (Stop bits) with parameters:
     * - Stop Bits:          USART_CR2_STOP bits according to USART_InitStruct->StopBits value.
     * - CLKEN, CPOL, CPHA and LBCL bits are to be configured using LL_USART_ClockInit().
     */
    LL_USART_SetStopBitsLength(USARTx, USART_InitStruct->StopBits);
 800870a:	683b      	ldr	r3, [r7, #0]
 800870c:	689b      	ldr	r3, [r3, #8]
 800870e:	4619      	mov	r1, r3
 8008710:	6878      	ldr	r0, [r7, #4]
 8008712:	f7ff fe21 	bl	8008358 <LL_USART_SetStopBitsLength>

    /*---------------------------- USART CR3 Configuration -----------------------
     * Configure USARTx CR3 (Hardware Flow Control) with parameters:
     * - HardwareFlowControl: USART_CR3_RTSE, USART_CR3_CTSE bits according to USART_InitStruct->HardwareFlowControl value.
     */
    LL_USART_SetHWFlowCtrl(USARTx, USART_InitStruct->HardwareFlowControl);
 8008716:	683b      	ldr	r3, [r7, #0]
 8008718:	695b      	ldr	r3, [r3, #20]
 800871a:	4619      	mov	r1, r3
 800871c:	6878      	ldr	r0, [r7, #4]
 800871e:	f7ff fe2e 	bl	800837e <LL_USART_SetHWFlowCtrl>

    /*---------------------------- USART BRR Configuration -----------------------
     * Retrieve Clock frequency used for USART Peripheral
     */
    LL_RCC_GetSystemClocksFreq(&rcc_clocks);
 8008722:	f107 0308 	add.w	r3, r7, #8
 8008726:	4618      	mov	r0, r3
 8008728:	f7ff fa36 	bl	8007b98 <LL_RCC_GetSystemClocksFreq>
    if (USARTx == USART1)
 800872c:	687b      	ldr	r3, [r7, #4]
 800872e:	4a14      	ldr	r2, [pc, #80]	; (8008780 <LL_USART_Init+0xbc>)
 8008730:	4293      	cmp	r3, r2
 8008732:	d102      	bne.n	800873a <LL_USART_Init+0x76>
    {
      periphclk = rcc_clocks.PCLK2_Frequency;
 8008734:	697b      	ldr	r3, [r7, #20]
 8008736:	61bb      	str	r3, [r7, #24]
 8008738:	e00c      	b.n	8008754 <LL_USART_Init+0x90>
    }
    else if (USARTx == USART2)
 800873a:	687b      	ldr	r3, [r7, #4]
 800873c:	4a11      	ldr	r2, [pc, #68]	; (8008784 <LL_USART_Init+0xc0>)
 800873e:	4293      	cmp	r3, r2
 8008740:	d102      	bne.n	8008748 <LL_USART_Init+0x84>
    {
      periphclk = rcc_clocks.PCLK1_Frequency;
 8008742:	693b      	ldr	r3, [r7, #16]
 8008744:	61bb      	str	r3, [r7, #24]
 8008746:	e005      	b.n	8008754 <LL_USART_Init+0x90>
    {
      periphclk = rcc_clocks.PCLK1_Frequency;
    }
#endif /* USART3 */
#if defined(USART6)
    else if (USARTx == USART6)
 8008748:	687b      	ldr	r3, [r7, #4]
 800874a:	4a0f      	ldr	r2, [pc, #60]	; (8008788 <LL_USART_Init+0xc4>)
 800874c:	4293      	cmp	r3, r2
 800874e:	d101      	bne.n	8008754 <LL_USART_Init+0x90>
    {
      periphclk = rcc_clocks.PCLK2_Frequency;
 8008750:	697b      	ldr	r3, [r7, #20]
 8008752:	61bb      	str	r3, [r7, #24]

    /* Configure the USART Baud Rate :
       - valid baud rate value (different from 0) is required
       - Peripheral clock as returned by RCC service, should be valid (different from 0).
    */
    if ((periphclk != LL_RCC_PERIPH_FREQUENCY_NO)
 8008754:	69bb      	ldr	r3, [r7, #24]
 8008756:	2b00      	cmp	r3, #0
 8008758:	d00d      	beq.n	8008776 <LL_USART_Init+0xb2>
        && (USART_InitStruct->BaudRate != 0U))
 800875a:	683b      	ldr	r3, [r7, #0]
 800875c:	681b      	ldr	r3, [r3, #0]
 800875e:	2b00      	cmp	r3, #0
 8008760:	d009      	beq.n	8008776 <LL_USART_Init+0xb2>
    {
      status = SUCCESS;
 8008762:	2300      	movs	r3, #0
 8008764:	77fb      	strb	r3, [r7, #31]
      LL_USART_SetBaudRate(USARTx,
 8008766:	683b      	ldr	r3, [r7, #0]
 8008768:	699a      	ldr	r2, [r3, #24]
 800876a:	683b      	ldr	r3, [r7, #0]
 800876c:	681b      	ldr	r3, [r3, #0]
 800876e:	69b9      	ldr	r1, [r7, #24]
 8008770:	6878      	ldr	r0, [r7, #4]
 8008772:	f7ff fe17 	bl	80083a4 <LL_USART_SetBaudRate>
      assert_param(IS_LL_USART_BRR_MIN(USARTx->BRR));
    }
  }
  /* Endif (=> USART not in Disabled state => return ERROR) */

  return (status);
 8008776:	7ffb      	ldrb	r3, [r7, #31]
}
 8008778:	4618      	mov	r0, r3
 800877a:	3720      	adds	r7, #32
 800877c:	46bd      	mov	sp, r7
 800877e:	bd80      	pop	{r7, pc}
 8008780:	40011000 	.word	0x40011000
 8008784:	40004400 	.word	0x40004400
 8008788:	40011400 	.word	0x40011400

0800878c <LL_SetSystemCoreClock>:
  * @note   Variable can be calculated also through SystemCoreClockUpdate function.
  * @param  HCLKFrequency HCLK frequency in Hz (can be calculated thanks to RCC helper macro)
  * @retval None
  */
void LL_SetSystemCoreClock(uint32_t HCLKFrequency)
{
 800878c:	b480      	push	{r7}
 800878e:	b083      	sub	sp, #12
 8008790:	af00      	add	r7, sp, #0
 8008792:	6078      	str	r0, [r7, #4]
  /* HCLK clock frequency */
  SystemCoreClock = HCLKFrequency;
 8008794:	4a04      	ldr	r2, [pc, #16]	; (80087a8 <LL_SetSystemCoreClock+0x1c>)
 8008796:	687b      	ldr	r3, [r7, #4]
 8008798:	6013      	str	r3, [r2, #0]
}
 800879a:	bf00      	nop
 800879c:	370c      	adds	r7, #12
 800879e:	46bd      	mov	sp, r7
 80087a0:	f85d 7b04 	ldr.w	r7, [sp], #4
 80087a4:	4770      	bx	lr
 80087a6:	bf00      	nop
 80087a8:	20000000 	.word	0x20000000

080087ac <__libc_init_array>:
 80087ac:	b570      	push	{r4, r5, r6, lr}
 80087ae:	4d0d      	ldr	r5, [pc, #52]	; (80087e4 <__libc_init_array+0x38>)
 80087b0:	4c0d      	ldr	r4, [pc, #52]	; (80087e8 <__libc_init_array+0x3c>)
 80087b2:	1b64      	subs	r4, r4, r5
 80087b4:	10a4      	asrs	r4, r4, #2
 80087b6:	2600      	movs	r6, #0
 80087b8:	42a6      	cmp	r6, r4
 80087ba:	d109      	bne.n	80087d0 <__libc_init_array+0x24>
 80087bc:	4d0b      	ldr	r5, [pc, #44]	; (80087ec <__libc_init_array+0x40>)
 80087be:	4c0c      	ldr	r4, [pc, #48]	; (80087f0 <__libc_init_array+0x44>)
 80087c0:	f000 f820 	bl	8008804 <_init>
 80087c4:	1b64      	subs	r4, r4, r5
 80087c6:	10a4      	asrs	r4, r4, #2
 80087c8:	2600      	movs	r6, #0
 80087ca:	42a6      	cmp	r6, r4
 80087cc:	d105      	bne.n	80087da <__libc_init_array+0x2e>
 80087ce:	bd70      	pop	{r4, r5, r6, pc}
 80087d0:	f855 3b04 	ldr.w	r3, [r5], #4
 80087d4:	4798      	blx	r3
 80087d6:	3601      	adds	r6, #1
 80087d8:	e7ee      	b.n	80087b8 <__libc_init_array+0xc>
 80087da:	f855 3b04 	ldr.w	r3, [r5], #4
 80087de:	4798      	blx	r3
 80087e0:	3601      	adds	r6, #1
 80087e2:	e7f2      	b.n	80087ca <__libc_init_array+0x1e>
 80087e4:	08008854 	.word	0x08008854
 80087e8:	08008854 	.word	0x08008854
 80087ec:	08008854 	.word	0x08008854
 80087f0:	08008858 	.word	0x08008858

080087f4 <memset>:
 80087f4:	4402      	add	r2, r0
 80087f6:	4603      	mov	r3, r0
 80087f8:	4293      	cmp	r3, r2
 80087fa:	d100      	bne.n	80087fe <memset+0xa>
 80087fc:	4770      	bx	lr
 80087fe:	f803 1b01 	strb.w	r1, [r3], #1
 8008802:	e7f9      	b.n	80087f8 <memset+0x4>

08008804 <_init>:
 8008804:	b5f8      	push	{r3, r4, r5, r6, r7, lr}
 8008806:	bf00      	nop
 8008808:	bcf8      	pop	{r3, r4, r5, r6, r7}
 800880a:	bc08      	pop	{r3}
 800880c:	469e      	mov	lr, r3
 800880e:	4770      	bx	lr

08008810 <_fini>:
 8008810:	b5f8      	push	{r3, r4, r5, r6, r7, lr}
 8008812:	bf00      	nop
 8008814:	bcf8      	pop	{r3, r4, r5, r6, r7}
 8008816:	bc08      	pop	{r3}
 8008818:	469e      	mov	lr, r3
 800881a:	4770      	bx	lr
